Ec:_glClearStencil
Lee:_Array_InternalArray__ICollection_Add_TisMark_t2724874473_m1613484179_gshared
jog:__ZL80Graphic_t2426225576_CustomAttributesCacheGenerator_Graphic_OnFillVBO_m1723985607P21CustomAttributesCache
eAg:_RuntimeTypeHandle_GetObjectData_m3567098501
TBj:__ZN6il2cpp2vm5Array13GetByteLengthEP11Il2CppArray
muh:_Raycast3DCallback_BeginInvoke_m3028685017
LVf:__ZL61IRemotingFormatter_t4112065742_CustomAttributesCacheGeneratorP21CustomAttributesCache
EF:__Z102Register_UnityEngine_Experimental_Director_AnimatorControllerPlayable_INTERNAL_CALL_ResetTriggerStringv
QUe:_Comparison_1_Invoke_m353639462_gshared
EZg:_UInt64_System_IConvertible_ToDecimal_m4205696037
p0d:_GraphicRegistry_RegisterGraphicForCanvas_m2284226562
QBa:__Z21SourceMipLevelForBlitiiii
tlb:__ZN31CanvasBatchIntermediateRenderer15AddAsRenderNodeER15RenderNodeQueueRK20DeprecatedSourceData
KIg:_GenericTypeParameterBuilder_GetEvent_m4210567427
ZAd:_Enumerator_get_Key_m2908810861
Wdi:__Z55RuntimeInvoker_ILTokenInfo_t149559338_Int32_t2071877448PK10MethodInfoPvPS2_
H5c:__ZN11UnityEngine7Connect14AppUpdateEventD0Ev
KU:__ZdlPv
AD:__ZN23AnimationOffsetPlayable11SetRotationE11Quaternionf
zB:__ZN11UnityEngine9Animation28GenericAnimationBindingCacheD2Ev
SVf:__ZL68RemotingSurrogateSelector_t2821375126_CustomAttributesCacheGeneratorP21CustomAttributesCache
Rph:_EqualityComparer_1__cctor_m968537130_gshared
ere:_List_1_System_Collections_IList_IndexOf_m39706221_gshared
CDd:_Decimal_op_Implicit_m2971610317
CNi:_TextGenerator_get_lineCount_m4287181941
$0d:_Graphic_UnregisterDirtyVerticesCallback_m1526739224
X3a:__Z18RestoreRenderStateR20CameraRenderOldStateR17ShaderPassContext
Ewd:_SynchronizedArrayListWrapper_get_Item_m3309425850
ENb:__Z18Transfer_BlittableI18StreamedBinaryReadILb1EELb1E5RectTIfEEvRK29SerializationCommandArgumentsR31RuntimeSerializationCommandInfo
oKb:__Z18Transfer_BlittableI24GenerateTypeTreeTransferLb0E11ColorRGBA32EvRK29SerializationCommandArgumentsR31RuntimeSerializationCommandInfo
B3:__Z25scripting_class_from_name17ScriptingImagePtrPKcS1_
coj:__ZN14dense_hash_mapI10KeyWrapperINSt3__24pairIPK12PropertyInfoP11Il2CppClassEEEj17ReflectionMapHashIS8_ENS9_14EqualsComparerINS1_8equal_toIS8_EEEENS1_9allocatorINS2_IKS9_jEEEEE15set_deleted_keyERSH_
dEb:__Z29scripting_class_enum_basetype17ScriptingClassPtr
i1d:_GraphicRaycaster_get_ignoreReversedGraphics_m2757724367
kZj:_emscripten_glDeleteBuffers__wrapper
pFj:__ZN6il2cpp8metadata26Il2CppTypeEqualityComparer8AreEqualEPK10Il2CppTypeS4_
vJg:_GenericTypeParameterBuilder_GetHashCode_m867619899
Vci:__Z79RuntimeInvoker_Void_t1841601450_Int32_t2071877448_ParameterModifier_t1820634920PK10MethodInfoPvPS2_
JVg:_TimeSpan_ToString_m2947282901
iph:_EqualityComparer_1__cctor_m3397254040_gshared
TW:__ZNK20LocalFileSystemPosix6ParentERK13FileEntryDataRN4core12basic_stringIcNS3_20StringStorageDefaultIcEEEE
v0h:__Z37RuntimeInvoker_ContentType_t859870085PK10MethodInfoPvPS2_
wNi:_TextGenerator_get_verts_m3124035267
O9e:_MonoType_CheckMethodSecurity_m4116906190
MPi:_Vector2_get_one_m3174311904
Uje:_Array_Sort_TisVector2_t2243707579_m1307634946_gshared
r9h:__Z37RuntimeInvoker_Enumerator_t1593300101PK10MethodInfoPvPS2_
rra:__ZN17PersistentManager22CheckInstanceIDsLoadedEPii
Iza:__ZN7ApiGLES17CopyBufferSubDataEjjlll
lti:_AnimatorControllerPlayable_IsInTransition_m4064534331
W5i:__ZN15dense_hashtableINSt3__24pairIK10KeyWrapperIPKcEP11Il2CppClassEES5_N6il2cpp5utils11StringUtils12StringHasherIS4_EEN14dense_hash_mapIS5_S8_SE_NS5_14EqualsComparerINSC_21CaseSensitiveComparerEEENS0_9allocatorIS9_EEE9SelectKeyESI_SK_E13set_empty_keyERKS9_
c9f:__ZL99Sprite_t309593783_CustomAttributesCacheGenerator_Sprite_get_associatedAlphaSplitTexture_m3617241169P21CustomAttributesCache
i0i:__ZNSt3__26vectorIPK10Il2CppTypeNS_9allocatorIS3_EEE7reserveEj
nSi:_U3CCreateWhereIteratorU3Ec__Iterator1D_1_Reset_m1773515612_gshared
xXa:__ZN25CameraStackRenderingState20GetOrCreateBuiltinRTE24BuiltinRenderTextureTypeii17DepthBufferFormat19RenderTextureFormatj22RenderTextureReadWrite14VRTextureUsagei
L4d:_InputField_get_caretPosition_m1005871812
ojh:_Dictionary_2__ctor_m3111963761_gshared
URi:_AesManaged_CreateEncryptor_m1729287824
_sb:__ZNK14Texture2DArray26CanReuploadDataToGfxDeviceEv
_$a:__ZN17PrePassRenderLoop14RenderBasePassEP13RenderTextureRK14LightingLayersR13dynamic_arrayI16RenderObjectDataLj4EERbR10MinMaxAABB
Ohb:__ZN17GlobalGameManager23VirtualRedirectTransferER17RemapPPtrTransfer
QRc:_sfnt_stream_close
Itd:_Char_System_IConvertible_ToInt16_m2741348777_AdjustorThunk
Vlc:__ZN5IMGUI18RepaintModalWindowER8GUIState
P2i:__ZL25UnresolvedVirtualCall_129P12Il2CppObject17Color_t2020392075PK10MethodInfo
Lgb:__ZN21ArchiveStorageCreator10InitializeERKN4core12basic_stringIcNS0_20StringStorageDefaultIcEEEEb
M$d:_FontData_get_verticalOverflow_m83665814
ENe:_ReadOnlyCollection_1_System_Collections_Generic_IListU3CTU3E_set_Item_m1547026160_gshared
hPf:__ZL61MarshalAsAttribute_t2900773360_CustomAttributesCacheGeneratorP21CustomAttributesCache
dsb:__Z23SetSpriteMeshIndexCountP14SharedMeshDataj
nca:__ZN7Texture13SetFilterModeEi
ucc:__Z46Register_UnityEngine_Application_get_isPlayingv
FDj:__ZN6il2cpp8metadata13GenericMethod9GetMethodEPK19Il2CppGenericMethod
Cq:__ZNSt3__26vectorIN4core12basic_stringIcNS1_20StringStorageDefaultIcEEEENS_9allocatorIS5_EEE7reserveEj
XFd:_Convert_ToUInt16_m2130758075
kkj:__ZN15dense_hashtableINSt3__24pairIK10KeyWrapperINS1_IPK11Il2CppImageP11Il2CppClassEEEjEES9_17ReflectionMapHashIS8_EN14dense_hash_mapIS9_jSD_NS9_14EqualsComparerINS0_8equal_toIS8_EEEENS0_9allocatorISB_EEE9SelectKeyESI_SK_E3endEv
BFf:_X509BasicConstraintsExtension_Encode_m3505127076
sua:__ZN13GfxDeviceGLES11SetViewportERK5RectTIiE
O2d:_Image_get_pixelsPerUnit_m4104195799
JAh:_Toggle_InternalToggle_m2323729210
OJd:_Decimal_System_IConvertible_ToInt64_m2504363272
Qod:_Array_GetValue_m3182152438
Wd:_emscripten_glDepthRange
eCg:_DESTransform_CipherFunct_m3559419566
Y9h:__Z91RuntimeInvoker_Boolean_t3825574718_TouchScreenKeyboardTypeU26_t2194866306_Int32_t2071877448PK10MethodInfoPvPS2_
r_g:_UIntPtr_get_Size_m537421489
mbd:_Rijndael_Create_m113171669
D2g:_GUILayoutGroup_CalcWidth_m4107152934
Jzg:_RuntimeFieldHandle_get_Value_m3963757144
OSb:__Z14resize_trimmedINSt3__26vectorIN9ShaderLab20SerializedSubProgram12UAVParameterENS0_9allocatorIS4_EEEEEvRT_j
fvg:_SerializationInfo_AddValue_m1781549036
ptf:_TlsServerKeyExchange_verifySignature_m3641534563
t9b:__ZN13BuildSettings34ConvertScenePathToDisplayScenePathERKN4core12basic_stringIcNS0_20StringStorageDefaultIcEEEE
GJe:_Collection_1_Clear_m445145071_gshared
Xyh:_Slider_FindSelectableOnLeft_m3136767885
aUh:__Z75RuntimeInvoker_Void_t1841601450_Il2CppObject_RuntimeFieldHandle_t2331729674PK10MethodInfoPvPS2_
oBa:__ZN4crndL20crnd_default_reallocEPvjPjbS0_
w0d:__ZN21InterfaceFuncInvoker1IP19Material_t193706927S1_E6InvokeEjP11Il2CppClassP12Il2CppObjectS1_
Jbe:_Array_BinarySearch_TisInt32_t2071877448_m51233948_gshared
C8b:__ZN7Texture11SetWrapModeEi
bRj:__ZNSt3__212basic_stringIcNS_11char_traitsIcEENS_9allocatorIcEEEC2ERKS5_
Cvg:_ProviderData_CopyFrom_m431414335
vRg:_UTF32Encoding_GetPreamble_m767706727
djc:__Z33Texture_CUSTOM_Internal_GetHeightP12Il2CppObject
AGe:_Collection_1_System_Collections_IList_Add_m1953936885_gshared
c7d:_LayoutGroup_get_preferredHeight_m3901163825
YVa:__ZN23ScriptableRenderContextC2Ev
ljb:__ZN4PPtrI13RenderTextureE8TransferI18StreamedBinaryReadILb0EEEEvRT_
mDd:_DateTime_AbsoluteDays_m3061694073
Bai:__Z56RuntimeInvoker_Boolean_t3825574718_LabelData_t3712112744PK10MethodInfoPvPS2_
Pqi:_AnimationClipPlayable_set_speed_m3332297554
NYc:_UNITY_FT_Stream_GetChar
_Nb:__Z18Transfer_BlittableI18StreamedBinaryReadILb1EELb1EdEvRK29SerializationCommandArgumentsR31RuntimeSerializationCommandInfo
Afh:_Enumerator_System_Collections_IEnumerator_get_Current_m229223308_gshared
n4f:__ZL202U3CCreateWhereIteratorU3Ec__Iterator1D_1_t2523986802_CustomAttributesCacheGenerator_U3CCreateWhereIteratorU3Ec__Iterator1D_1_System_Collections_Generic_IEnumerableU3CTSourceU3E_GetEnumerator_m2392330777P21CustomAttributesCache
pEb:__Z26BuildSerializationCacheFor17ScriptingClassPtrRb
Iej:_il2cpp_class_get_name
Cti:_AnimatorControllerPlayable_CrossFadeInFixedTimeInternal_m3729673154
kUf:__ZL55GCHandleType_t1970708122_CustomAttributesCacheGeneratorP21CustomAttributesCache
gpi:_Event_Init_m3901382626
yfb:__ZN10FileSystem12MountHandlerEP17FileSystemHandler
nwd:_FixedSizeArrayListWrapper_AddRange_m2071800418
RB:__ZN13ProduceHelperI8AnimatorLb0EE7ProduceE18MemLabelIdentifier18ObjectCreationMode
paa:__Z9InitInputv
xMi:_StateMachineBehaviour_OnStateUpdate_m2021794605
Tpe:_Enumerator_VerifyState_m2358705882_AdjustorThunk
gLb:__Z29Transfer_Blittable_ArrayFieldI24GenerateTypeTreeTransfer11ColorRGBA32EvRT_R9ArrayInfoRK23StaticTransferFieldInfo
lvh:_Selectable_Navigate_m915280351
$lf:_AppDomain_getCurDomain_m591611373
yab:__ZN16MemoryFileSystem6DeleteER13FileEntryDatab
cQi:_Vector3_get_normalized_m936072361
npa:__ZL21BlitScaleStbImageImplRK14ImageReferenceRS_NS_10ColorSpaceE
Wzf:_TlsStream_set_Position_m378064217
rB:__ZN18StreamedBinaryReadILb0EE21TransferSTLStyleArrayI13dynamic_arrayIjLj4EEEEvRT_17TransferMetaFlags
WFc:__ZNSt3__26__sortIR31RayHitsByInverseDepthComparitorP12RaycastHit2DEEvT0_S5_T_
XGb:__Z29Transfer_Blittable_ArrayFieldI14SafeBinaryReadyEvRT_R9ArrayInfoRK23StaticTransferFieldInfo
pM:__ZN20SoundChannelInstance15setChannelGroupEPN4FMOD12ChannelGroupE
Agd:_Evidence_Equals_m2325859915
FEg:_Default__ctor_m172834064
sc:invoke_vifffii
Amg:__ZL77StandaloneInputModule_t70867863_CustomAttributesCacheGenerator_m_VerticalAxisP21CustomAttributesCache
pBb:__ZN20ArchiveStorageReader17MakeStorageUnusedEv
tEi:_Regex_IsMatch_m2159202025
DKa:__ZNK25MultiBlocksMemoryFileData5CloneEv
qIj:_GC_add_ext_descriptor
EJj:__ZN6il2cpp2os14WindowsRuntime22GetRestrictedErrorInfoEv
e3d:_Image_CalculateLayoutInputHorizontal_m3275149860
wwg:_RemotingServices_GetMethodBaseFromName_m3271095947
D$h:__Z71RuntimeInvoker_TimeSpan_t3430258949_Double_t4078015681_Int64_t909078037PK10MethodInfoPvPS2_
tMa:__ZN17ArchiveFileSystem11CreateAsDirER13FileEntryData
A2i:__ZL25UnresolvedVirtualCall_114P12Il2CppObjectssaaaPK10MethodInfo
fTj:dynCall_iiiiiiiiiiii
Xld:_ASCIIEncoding_GetBytes_m3617160053
KKh:_InternalEnumerator_1_MoveNext_m2289229080_AdjustorThunk
tsf:_CipherSuiteCollection_System_Collections_IList_RemoveAt_m143866082
QC:__ZN26AnimatorControllerPlayable26ParameterControlledByCurveEi
pta:__ZN22VertexDeclarationCacheD0Ev
_Wb:__ZL26KeywordSetToStringDontSortRKNSt3__26vectorIN4core12basic_stringIcNS1_20StringStorageDefaultIcEEEENS_9allocatorIS5_EEEERS5_
L4c:__Z54Register_UnityEngine_Analytics_CustomEventData_AddCharv
yka:__ZN6prcoreL17RemapGenericFloatI16TexFormatRGFloat17TexFormatRGBAHalfEEvPKNS_9InnerInfoE
Vfb:__ZNK21AssetBundleFileSystem8PositionERK13FileEntryData
SG:__ZN12AudioManager22CreateFMODSoundFromWWWEP10IWWWStream15FMOD_SOUND_TYPE17FMOD_SOUND_FORMATjjbbP10SampleClip
H2b:__ZNK32RendererMaterialAnimationBinding15GenerateBindingERKN4core12basic_stringIcNS0_20StringStorageDefaultIcEEEEbRN11UnityEngine9Animation14GenericBindingE
Kkj:__ZN24dense_hashtable_iteratorINSt3__24pairIK10KeyWrapperINS1_IPK11Il2CppImageP11Il2CppClassEEEjEES9_17ReflectionMapHashIS8_EN14dense_hash_mapIS9_jSD_NS9_14EqualsComparerINS0_8equal_toIS8_EEEENS0_9allocatorISB_EEE9SelectKeyESI_SK_E30advance_past_empty_and_deletedEv
Bqi:_UnityEventBase_UnityEngine_ISerializationCallbackReceiver_OnBeforeSerialize_m1773826808
enh:_DefaultComparer_GetHashCode_m361278435_gshared
R2:__ZN8Remapper23GetOrGenerateInstanceIDERK26SerializedObjectIdentifier
z6e:_StreamWriter_Flush_m3426120024
zMa:__ZN17FileSystemHandler10AtomicMoveER13FileEntryDataS1_
Ya:invoke_iiiiiifffiiifii
d4e:_MemoryStream__ctor_m1489366847
Vgd:_SecurityElement_IsValidTag_m64902195
Dfh:_Enumerator_System_Collections_IEnumerator_get_Current_m229223308_AdjustorThunk
vPg:_PropertyInfo_SetValue_m2961483868
S1g:_GUILayoutEntry_set_style_m70917293
Lwe:_List_1_System_Collections_IList_Contains_m4193366963_gshared
uWi:_UnityEvent_3_FindMethod_Impl_m1889846153_gshared
otg:_DictionaryEnumerator_get_Value_m1915638953
bFg:_ConstructorInfo_Invoke_m2144827141
S9f:__ZL82Object_t1021602117_CustomAttributesCacheGenerator_Object_get_hideFlags_m4158950869P21CustomAttributesCache
qsb:__ZN6Sprite8TransferI24GenerateTypeTreeTransferEEvRT_
hkc:__Z48Register_UnityEngine_Transform_SetAsFirstSiblingv
c0g:_Font_get_fontSize_m1732593415
ssb:__ZN7SubMesh8TransferI24GenerateTypeTreeTransferEEvRT_
Bmj:__ZN14dense_hash_mapI10KeyWrapperIPK14Il2CppAssemblyEPK16MonoAssemblyNameN6il2cpp5utils11PointerHashIS2_EENS4_14EqualsComparerINSt3__28equal_toIS3_EEEENSD_9allocatorINSD_4pairIKS4_S7_EEEEE13set_empty_keyERSJ_
zOg:_MonoProperty_get_CanWrite_m2124922514
zrf:_CipherSuite_get_HashAlgorithmType_m3902365773
t9h:__Z36RuntimeInvoker_Enumerator_t132208513PK10MethodInfoPvPS2_
Wai:__Z112RuntimeInvoker_Int32_t2071877448_Il2CppObject_Int32_t2071877448_Int32_t2071877448_Int32_t2071877448_Il2CppObjectPK10MethodInfoPvPS2_
dQj:_poll
R3e:_Stream_BeginRead_m1985960185
F4g:_GUIStyle_GetFontInternalDuringLoadingThread_m229734483
u0b:__ZN13ProduceHelperI14Texture2DArrayLb0EE7ProduceE18MemLabelIdentifier18ObjectCreationMode
Jpf:_MD4Managed_GG_m1462438360
Dgc:__Z46Mesh_CUSTOM_PrintErrorCantAccessMeshForIndicesP12Il2CppObject
Wbc:__ZN9Transform23SetSiblingIndexInternalEib
exh:_ScrollRect_get_minWidth_m3151814267
F1e:_BinaryReader_CheckBuffer_m1059275266
Fua:__ZN13GfxDeviceGLES17DestroySubProgramEPN9ShaderLab10SubProgramE
Dx:__ZN7mecanim5human12HumanPoseSubERNS0_9HumanPoseERKS1_S4_
vpf:_MD4_Create_m2582504069
PZi:_HashSet_1_System_Collections_IEnumerable_GetEnumerator_m2498631708_gshared
Qvj:__ZN6il2cpp8metadata15GenericMetadata15GetGenericClassEiPK17Il2CppGenericInst
trd:_Boolean_System_IConvertible_ToInt16_m977801621
QFb:__Z18Transfer_BlittableI14SafeBinaryReadLb0E10Matrix4x4fEvRK29SerializationCommandArgumentsR31RuntimeSerializationCommandInfo
mOa:__Z24GetFixedBehaviourManagerv
vUa:__ZN12FlareManager9UpdateJobEP25FlareManagerUpdateJobData
Dbj:__ZN6il2cpp2vm10ThreadPool4WaitEP17Il2CppAsyncResultPPv
oOj:_vfprintf
hvg:_SerializationException__ctor_m1019897788
fii:_Debug_get_logger_m4173808038
Bia:__ZL13SortTexByNameRKNSt3__24pairIN9ShaderLab16FastPropertyNameEN18UnityPropertySheet11UnityTexEnvEEES7_
iVa:__ZN20DynamicPropertySheetD0Ev
m8a:__ZN14SafeBinaryRead17RegisterConverterEPKcS1_PFbPvRS_E
oZ:__ZN35RegisterRuntimeInitializeAndCleanup8RegisterEPFvPvES2_iS0_
Ipj:__ZNSt3__26vectorIN6il2cpp8metadata18GenericArrayMethodENS_9allocatorIS3_EEE7reserveEj
kqd:_AsyncCallback__ctor_m3071689932
lTe:_ReadOnlyCollection_1_System_Collections_IList_Clear_m2600246370_gshared
tCc:__ZN4PPtrI17PhysicsMaterial2DE8TransferI18StreamedBinaryReadILb0EEEEvRT_
E4h:__Z74RuntimeInvoker_Void_t1841601450_PlayableHandleU26_t3483893774_Il2CppObjectPK10MethodInfoPvPS2_
C3h:__Z135RuntimeInvoker_RaycastHit2D_t4063908774_Vector2_t2243707579_Vector2_t2243707579_Single_t2076509932_Int32_t2071877448_Single_t2076509932PK10MethodInfoPvPS2_
q5h:__Z41RuntimeInvoker_EventModifiers_t2690251474PK10MethodInfoPvPS2_
Sgf:_DSAManaged_NormalizeArray_m2287089393
qkc:__Z21Object_CUSTOM_DestroyP12Il2CppObjectf
tLh:_InternalEnumerator_1_System_Collections_IEnumerator_get_Current_m2389982234_AdjustorThunk
qOa:__ZN8Material26ResetAllCachedMaterialDataEP6Shader
Cxh:_Selectable_get_interactable_m1725029500
YYc:_UNITY_TT_Get_MM_Var
RWi:__ZN6il2cpp6icalls8mscorlib6System7Decimal13decimal2Int64EP19il2cpp_decimal_reprPx
ba:invoke_diddi
WSd:_ExecuteEvents__cctor_m288775360
o_c:__ZNK2UI6Canvas13GetRenderModeEv
rEd:_Double_TryParseStringConstant_m2585405703
oFb:__Z18Transfer_BlittableI14SafeBinaryReadLb0EiEvRK29SerializationCommandArgumentsR31RuntimeSerializationCommandInfo
raj:__ZN6il2cpp2vm13MetadataCache30GetPropertyDefinitionFromIndexEi
Eui:_ResourceEnumerator__ctor_m1679839941
xbd:_RijndaelTransform_Clear_m1652144089
fle:_BaseInvokableCall_ThrowOnInvalidArg_TisIl2CppObject_m1349548392_gshared
x7c:__ZN22BaseUnityConnectClient17InitializeSessionERKN4core12basic_stringIcNS0_20StringStorageDefaultIcEEEES6_N19CloudServiceHandler13InitModeFlagsE
MPh:__Z57RuntimeInvoker_Void_t1841601450_Il2CppObject_Il2CppObjectPK10MethodInfoPvPS2_
ibf:_NumberFormatter_get_IsZero_m1325357749
CNd:_Enum_ToObject_m322320225
VOh:_Enumerator_get_Current_m2754383612_gshared
phc:__ZN13MonoBehaviour34StopCoroutineFromEnumeratorManagedE18ScriptingObjectPtr
gfd:_X509Certificate__ctor_m3860837120
sQc:_gray_raster_reset
CF:__Z100Register_UnityEngine_Experimental_Director_AnimatorControllerPlayable_INTERNAL_CALL_SetTriggerStringv
i0g:_GameObject_Internal_CreateGameObject_m3428198595
fli:_Camera_RaycastTry2D_m755036866
gTe:_ReadOnlyCollection_1_System_Collections_Generic_IListU3CTU3E_set_Item_m3663361643_gshared
dC:__ZN7mecanim9animation14AvatarConstant15InitializeClassEv
$wc:__ZN11UnityEngine9Analytics18SceneLoadTimeEvent12SetSceneLoadERKN4core12basic_stringIcNS2_20StringStorageDefaultIcEEEEiyyyy
Nsi:_AnimatorControllerPlayable_GetCurrentAnimatorStateInfo_m689786022
TAb:__ZN30RuntimeInitializeOnLoadManager8TransferI18StreamedBinaryReadILb0EEEEvRT_
Mlh:_Dictionary_2__ctor_m1206668798_gshared
FHg:_TypeBuilder_not_supported_m3178173643
bRc:_UNITY_tt_face_load_pclt
SBb:__ZN21ArchiveStorageCreator14StoreDirectoryEv
Nac:__ZL34GetComponentsImplementationRecurseILb1ELi0ELi2EEbR10GameObjectbRK17CompareParametersRK39GetComponentsImplementation_ReturnValue
tDc:__ZN10ClipperLib7Clipper24InsertLocalMinimaIntoAELEx
_Kj:__ZN6il2cpp6icalls8mscorlib6System9Threading5Mutex20CreateMutex_internalEbP12Il2CppStringPb
Pwc:__ZNK27PerformanceReportingManager26GetTypeInfoVirtualInternalEv
BZh:__Z50RuntimeInvoker_Int16_t4041245914_Int16_t4041245914PK10MethodInfoPvPS2_
Wvd:_ArrayListWrapper_Remove_m1105489978
wUa:__ZNK6Camera18WorldToScreenPointERK8Vector3fPb
s3c:__ZN14UnityAnalyticsD0Ev
Srd:_Boolean_CompareTo_m3691698947_AdjustorThunk
Xlg:__ZL109PointerEventData_t1599784723_CustomAttributesCacheGenerator_PointerEventData_get_eligibleForClick_m2497780621P21CustomAttributesCache
Ozd:_HashKeys_CopyTo_m3566668422
YGh:_InternalEnumerator_1_Dispose_m549215360_AdjustorThunk
Qtd:_Convert_ToSByte_m2665932200
e2:__ZNSt3__227__insertion_sort_incompleteIRPFbRKN18AwakeFromLoadQueue4ItemES4_EPS2_EEbT0_S9_T_
jJi:_PKCS12_Encrypt_m2154408631
AGg:_ILGenerator_label_fixup_m1325994348
uBg:_Base64Constants__cctor_m1807522504
sbe:_Array_InternalArray__IEnumerable_GetEnumerator_TisContactPoint2D_t3659330976_m478005999_gshared
qth:_Navigation_Equals_m4214630671_AdjustorThunk
sQe:_ReadOnlyCollection_1_System_Collections_Generic_IListU3CTU3E_set_Item_m257196015_gshared
NLg:_FieldInfo_GetPseudoCustomAttributes_m2500972355
Cpb:__ZN26EnlightenSystemInformation8TransferI14SafeBinaryReadEEvRT_
Tle:_Array_InternalArray__get_Item_TisLink_t2723257478_m2281261655_gshared
zvb:__ZN12MeshRendererD0Ev
TFi:_ExpressionAssertion_IsComplex_m783019628
Pyd:_Hashtable__ctor_m2702360557
Fh:_utime
YWe:_DateTimeFormatInfo_get_RawAbbreviatedDayNames_m3998113647
koh:_DefaultComparer_GetHashCode_m2596628120_gshared
hof:_PrimalityTest_Invoke_m4058801829
kwg:_RemotingConfiguration_SetCustomErrorsMode_m1844153208
yn:FUNCTION_TABLE_viiiiii
gbi:__Z84RuntimeInvoker_Int32_t2071877448_Il2CppObject_CustomAttributeNamedArgument_t94157543PK10MethodInfoPvPS2_
ybg:__ZL98Physics2D_t2540166467_CustomAttributesCacheGenerator_Physics2D_GetColliderFromInstanceID_m95920619P21CustomAttributesCache
YPd:_CultureInfo_GetFormat_m3560116485
QA:__ZN7mecanim9animation22DestroyAvatarWorkspaceEPNS0_15AvatarWorkspaceERNS_6memory9AllocatorE
pLi:_ScriptableObject_CreateInstance_m3271154163
Qud:__ZN21InterfaceFuncInvoker0IiE6InvokeEjP11Il2CppClassP12Il2CppObject
ZIf:_FactoryCache__ctor_m254400436
VEi:_AnchorInfo_get_IsPosition_m3791659233
sde:_Array_InternalArray__IndexOf_TisResourceCacheItem_t333236149_m761772858_gshared
Qlc:__ZNSt3__210__list_impIN10GUIManager12SortedScriptE11memory_poolIS2_EE5clearEv
v$f:__ZL76Convert_t2607082565_CustomAttributesCacheGenerator_Convert_ToInt64_m44696721P21CustomAttributesCache
Omb:__ZN14PlayableOutput17SetSourcePlayableEP8Playable
Gwg:_TrackingServices__cctor_m3639412334
ZTi:_InvokableCall_1_add_Delegate_m3068046591_gshared
woc:__Z32GUIStyle_Set_Custom_PropRichTextP12Il2CppObjecth
Fu:__ZN7mecanim9animation29MotionOutputGetDeltaTransformEPKNS0_12MotionOutputE
q_b:__Z13RegisterClassI16GraphicsSettingsEvv
fjh:_ValueCollection_System_Collections_IEnumerable_GetEnumerator_m1773104428_gshared
_wc:__ZN27PerformanceReportingManager21OnSceneTimingCallbackERK15SceneLoadTimingRKN4core12basic_stringIcNS3_20StringStorageDefaultIcEEEE
AC:__ZN8Animator14OnAddComponentEPN5Unity9ComponentE
QCe:_List_1_CheckMatch_m1184924052_gshared
Fjc:__Z43Transform_CUSTOM_INTERNAL_get_localRotationP12Il2CppObjectP11Quaternionf
UNi:_Touch_get_fingerId_m4109475843_AdjustorThunk
qXj:_glGetShaderInfoLog__wrapper
gi:_emscripten_glGetTexParameteriv
xwe:_List_1_ToArray_m3752387798_gshared
Pvh:_ScrollRect_get_elasticity_m3987376518
Eqf:_RSAManaged_ImportParameters_m3060955884
Gkf:_DeriveBytes__ctor_m3089550878
Zwi:_ChannelData_CopyFrom_m4049054607
w_b:__Z13RegisterClassI4MeshEvv
qlg:__ZL94AxisEventData_t1524870173_CustomAttributesCacheGenerator_AxisEventData_get_moveDir_m3968662359P21CustomAttributesCache
yce:_Array_FindLastIndex_TisIl2CppObject_m869210470_gshared
smb:__ZN8PlayableD0Ev
hI:__ZN12AudioManager8TransferI19StreamedBinaryWriteILb0EEEEvRT_
w4e:_WriteDelegate_Invoke_m2103848735
wxe:_List_1_get_Capacity_m4262042666_gshared
KKi:_X509Crl_get_IssuerName_m756409840
POb:__ZN18StreamedBinaryReadILb1EE21TransferSTLStyleArrayI13dynamic_arrayI11ColorRGBA32Lj4EEEEvRT_17TransferMetaFlags
nhh:_Transform_1_EndInvoke_m687617772_gshared
YAa:__ZN18AsyncUploadManager19AsyncResourceUploadER9GfxDeviceii9TextureID
_ci:__Z66RuntimeInvoker_Void_t1841601450_Int32_t2071877448_Mark_t2724874473PK10MethodInfoPvPS2_
mRi:_Locale_GetText_m512920887
G2b:__ZNK32RendererMaterialAnimationBinding12GetPPtrValueERKN11UnityEngine9Animation10BoundCurveE
CPb:__Z18Transfer_BlittableI18StreamedBinaryReadILb0EELb0E8Vector2fEvRK29SerializationCommandArgumentsR31RuntimeSerializationCommandInfo
Uvg:_RemotingConfiguration_get_ProcessId_m3870172209
V0c:__ZN2UI11CanvasGroup12CleanupClassEv
Weh:_SceneManager_LoadScene_m1386820036
yYe:_SortKey_ToString_m2406913228
jX:__ZN22LocalFileSystemHandler9MakeLocalER13FileEntryDatab
KEj:__ZN6il2cpp2vm8Profiler10AllocationEP12Il2CppObjectP11Il2CppClass
xDd:_Convert_ToDateTime_m1020507389
c5b:__ZNK9HPlayable7IsValidEv
VNc:__ZNSt3__23mapIN20TextRenderingPrivate7FontRefENS1_6OSFontENS_4lessIS2_EENS_9allocatorINS_4pairIKS2_S3_EEEEEixERS8_
r2e:_Path_IsPathRooted_m1347207448
Sxg:_ObjectManager_RegisterObjectInternal_m879109503
$7d:_Array_get_swapper_TisVector4_t2243707581_m97441823_gshared
tra:__ZNSt3__26__sortIRNS_4lessIiEEPiEEvT0_S5_T_
cLc:__ZN14SafeBinaryRead21TransferSTLStyleArrayI10vector_mapINSt3__24pairIttEEfN20TextRenderingPrivate8FontImpl14KerningCompareENS2_9allocatorINS3_IS4_fEEEEEEEvRT_17TransferMetaFlags
T_b:__Z13RegisterClassI15QualitySettingsEvv
WDj:__ZN6il2cpp2vm6String21InitializeEmptyStringEP11Il2CppClass
P$a:__ZN25DeferredRenderLoopScratchD0Ev
Jy:__ZN27AnimationLayerMixerPlayable14SetInputWeightEif
zx:__ZN7mecanim9animation17EvaluateHumanPoseERKNS0_18ClipMuscleConstantERKNS0_15ClipMuscleInputEPKfRKNS0_12MotionOutputERNS_5human9HumanPoseE
wZf:__ZL90UTF7Encoding_t741406939_CustomAttributesCacheGenerator_UTF7Encoding_GetHashCode_m359766848P21CustomAttributesCache
KSh:__Z52RuntimeInvoker_Decimal_t724701077_Single_t2076509932PK10MethodInfoPvPS2_
gJc:__ZN14dense_hash_mapINSt3__24pairIPK10Collider2DS4_EE11Collision2DNS2_23ColliderPairHashFunctorENS0_8equal_toIS5_EE13stl_allocatorINS1_IKS5_S6_EEL18MemLabelIdentifier65ELi16EEE15set_deleted_keyERSB_
BSb:__ZN15dense_hashtableINSt3__24pairIKiN4core17string_with_labelILi1EEEEEi18SInt32HashFunctionN14dense_hash_mapIiS5_S7_NS0_8equal_toIiEE13stl_allocatorIS6_L18MemLabelIdentifier1ELi16EEE9SelectKeyESA_SD_E9copy_fromERKSG_j
Cea:__ZN6Camera11ResetAspectEv
N2f:__ZL62SecurityProtocolType_t155967584_CustomAttributesCacheGeneratorP21CustomAttributesCache
vTa:__ZNSt3__227__insertion_sort_incompleteIRPFbP10GUIElementS2_EPS2_EEbT0_S7_T_
DFf:_X509BasicConstraintsExtension_get_HasPathLengthConstraint_m3788532759
qlb:__ZNK17InstancedPropInfo22FillInstancePropertiesER19ShaderPropertySheetjPK17BatchInstanceDatajRK15RenderNodeQueue
$fa:__ZN22CreateGpuProgramOutputD2Ev
QLb:__Z18Transfer_BlittableI19StreamedBinaryWriteILb0EELb1EsEvRK29SerializationCommandArgumentsR31RuntimeSerializationCommandInfo
Icd:_RSACryptoServiceProvider_EncryptValue_m802714447
Ttj:__ZN6il2cpp6icalls8mscorlib6System2IO6MonoIO9SetLengthE12Il2CppIntPtrxPi
SLj:__ZN6il2cpp8metadata22Il2CppSignatureCompare6EqualsERK13dynamic_arrayIPK10Il2CppTypeLj4EES8_
U_f:__ZL76Convert_t2607082565_CustomAttributesCacheGenerator_Convert_ToByte_m932798552P21CustomAttributesCache
xO:__ZN13ProduceHelperI13AudioListenerLb0EE7ProduceE18MemLabelIdentifier18ObjectCreationMode
fse:_List_1_System_Collections_ICollection_get_SyncRoot_m1594235606_gshared
DVe:_DateTimeFormatInfo_GetInstance_m3133223810
Bnf:_ModulusRing_BarrettReduction_m2802101099
nUh:__Z57RuntimeInvoker_ExtenderType_t1556892101_Int32_t2071877448PK10MethodInfoPvPS2_
eLa:__ZN12HandlerChain4OpenER13FileEntryData14FilePermission16FileAutoBehavior
qgi:__Z76RuntimeInvoker_Il2CppObject_UILineInfo_t3621277874_Il2CppObject_Il2CppObjectPK10MethodInfoPvPS2_
Gqh:_EqualityComparer_1_get_Default_m2134906921_gshared
GMg:_MonoMethodInfo_GetParametersInfo_m3456861922
Nei:__Z37RuntimeInvoker_UILineInfo_t3621277874PK10MethodInfoPvPS2_
hxc:__ZN27PerformanceReportingManager29OnSceneLoadedAfterAwakeStaticEPS_iR18AwakeFromLoadQueueN19RuntimeSceneManager11LoadingModeE
S4:__ZN14FileCacherReadD2Ev
xqa:__ZN13RendererScene23UpdatePreviousFrameDataEii
add:_RSAPKCS1SignatureDeformatter_VerifySignature_m1825067195
J2i:__ZL25UnresolvedVirtualCall_123P12Il2CppObjectffPK10MethodInfo
jec:__Z50Register_UnityEngine_CullingGroup_FinalizerFailurev
koe:_KeyValuePair_2_ToString_m2613351884_gshared
fma:__ZN27UnloadUnusedAssetsOperationD0Ev
zjb:__ZN6Camera15ThreadedCleanupEv
kz:__ZN26AnimatorControllerPlayable6MemoryD2Ev
png:__ZL69ColorBlock_t2652774230_CustomAttributesCacheGenerator_m_DisabledColorP21CustomAttributesCache
Crf:_CipherSuite_get_Code_m3902213587
suh:_Scrollbar__ctor_m2244981801
Ptj:__ZN6il2cpp6icalls8mscorlib6System2IO6MonoIO9GetLengthE12Il2CppIntPtrPi
Vyg:_ObjectRecord_get_HasPendingFixups_m670959802
Fdd:_SHA256Managed_HashCore_m4111458495
OPd:_CultureInfo_get_CompareInfo_m3085280862
TPf:__ZL55Dictionary_2_t2276497324_CustomAttributesCacheGeneratorP21CustomAttributesCache
Tyg:_ObjectManager_RecordDelayedFixup_m1895730844
_uj:__ZNK15dense_hashtableINSt3__24pairIK10KeyWrapperIP14Il2CppIUnknownEjEES5_N6il2cpp5utils11PointerHashIS3_EEN14dense_hash_mapIS5_jSB_NS5_14EqualsComparerINS0_8equal_toIS4_EEEENS0_9allocatorIS7_EEE9SelectKeyESG_SI_E12test_deletedERK24dense_hashtable_iteratorIS7_S5_SB_SK_SG_SI_E
opd:_ArrayTypeMismatchException__ctor_m1898555879
Mye:_List_1_System_Collections_IList_get_IsFixedSize_m3522184224_gshared
hG:__ZN9AudioClip23VirtualRedirectTransferER18StreamedBinaryReadILb0EE
Vtf:_ClientSessionInfo_CheckDisposed_m1394638186
VAg:_SByte_Parse_m2544167007
Mid:_Single_CompareTo_m2081476257
CLd:_StackFrame_GetILOffset_m115192054
k6h:__Z61RuntimeInvoker_Boolean_t3825574718_Int32_t2071877448_IntPtr_tPK10MethodInfoPvPS2_
Rdb:__ZN24GenerateTypeTreeTransfer8TransferIN11AssetBundle9AssetInfoEEEvRT_PKc17TransferMetaFlags
iAg:_RuntimeTypeHandle_GetHashCode_m3697629454_AdjustorThunk
fef:_BigInteger__ctor_m2945783161
Fvf:_TlsClientHello_Update_m1723542631
$Vf:__ZL96ProxyAttribute_t4031752430_CustomAttributesCacheGenerator_ProxyAttribute_IsContextOK_m2391079277P21CustomAttributesCache
DZe:_IndexOutOfRangeException__ctor_m3497760912
QRe:_ReadOnlyCollection_1_CopyTo_m1652036789_gshared
Fj:_glCopyTexSubImage2D
fgg:__ZL61GUISkin_t1436893342_CustomAttributesCacheGenerator_m_textAreaP21CustomAttributesCache
P2b:__ZNK24RendererAnimationBinding13GetFloatValueERKN11UnityEngine9Animation10BoundCurveE
wFe:_Collection_1_Insert_m3594407958_gshared
dQa:_UNITY_png_write_zTXt
eW:__ZN18ScreenManagerWebGL13SetShowCursorEb
HEj:__ZN6il2cpp6icalls8mscorlib6System7Convert24InternalFromBase64StringEP12Il2CppStringb
ANa:__ZZ23InitPlayerLoopCallbacksvEN37EarlyUpdateProcessMouseInWindowstruct7ForwardEv
fAh:_Text_get_preferredWidth_m3352156860
cEg:_AssemblyCompanyAttribute__ctor_m1217508649
Y0c:__ZN2UI13CanvasManager14GetRenderOrderEPKNS_6CanvasE
OFb:__Z18Transfer_BlittableI14SafeBinaryReadLb0E5RectTIfEEvRK29SerializationCommandArgumentsR31RuntimeSerializationCommandInfo
ggi:__Z93RuntimeInvoker_Il2CppObject_Vector2_t2243707579_Vector2_t2243707579_Il2CppObject_Il2CppObjectPK10MethodInfoPvPS2_
wRe:_ReadOnlyCollection_1_System_Collections_Generic_IListU3CTU3E_RemoveAt_m878653284_gshared
JVe:_DateTimeFormatInfo_GetFormat_m3676195179
fAa:__ZN14GfxContextGLES14GetFramebufferEv
BZj:_emscripten_glGenVertexArrays__wrapper
l3h:__Z36RuntimeInvoker_HideFlags_t1434274199PK10MethodInfoPvPS2_
nja:__ZN6prcoreL21CreateRemapAnyBlitterE13TextureFormatS0_
IMj:__ZN6il2cpp2os5Event4WaitEjb
i9b:__ZN17AnimationCurveTplIfE16StripInvalidKeysEv
mee:_Array_InternalArray__ICollection_Add_TisKeyValuePair_2_t3716250094_m2381539361_gshared
qlf:_X509Extension_WriteLine_m2850991173
Q$c:__ZNK2UI6Canvas17GetSortingLayerIDEv
VMf:__ZL40UIntPtr_t_CustomAttributesCacheGeneratorP21CustomAttributesCache
UFc:__ZN14Raycast2DQuery8RunQueryEb
D4b:__Z13RegisterClassI17GlobalGameManagerEvv
l2a:__ZN8Renderer24SetupNewRendererForSceneEv
prg:__ZL70GridLayoutGroup_t1515633077_CustomAttributesCacheGenerator_m_StartAxisP21CustomAttributesCache
v9d:_Array_InternalArray__ICollection_Remove_TisInt64_t909078037_m2653583130_gshared
cve:_List_1_AddCollection_m2628217188_gshared
JSg:_Thread_get_ExecutionContext_m922067206
tS:__ZN11UnityEngine15CloudWebService13WWWRestClient18GetEditableHeadersEv
Ftf:_RecordProtocol_get_Context_m2688493529
mha:__ZN4PPtrI7TextureE8TransferI14SafeBinaryReadEEvRT_
y5b:__ZN14PlayableOutput6HandleEv
HJj:__ZN6il2cpp5utils10MemoryPool9AddRegionEj
Xvh:_ScrollRect_get_viewport_m3177057249
tn:FUNCTION_TABLE_iiiiiiiiiiiiii
poi:_CustomYieldInstruction_get_Current_m1743233962
C7c:__ZN19UnityConnectService18OnPlayerQuitStaticEPS_
I8h:__Z35RuntimeInvoker_ScaleMode_t987318053PK10MethodInfoPvPS2_
TRc:_UNITY_tt_get_cmap_info
vmd:_DecoderExceptionFallback_GetHashCode_m2972426052
e6a:__ZN16ReflectionProbes8ScheduleEN18ReflectionProbeJob7JobTypeEP15ReflectionProbei
LKe:_Collection_1_IsFixedSize_m3675221982_gshared
E$f:__ZL77Convert_t2607082565_CustomAttributesCacheGenerator_Convert_ToSByte_m883113940P21CustomAttributesCache
L5:__ZN16MessageForwarder13HandleMessageEPviR11MessageData
Wqe:_Enumerator_MoveNext_m3293920409_AdjustorThunk
zX:__Z18IsDirectoryCreatedRKN4core12basic_stringIcNS_20StringStorageDefaultIcEEEE
jJg:_GenericTypeParameterBuilder_get_DeclaringType_m1652924692
JNh:_Comparer_1__cctor_m3112251759_gshared
bqg:__ZL73ScrollRect_t1199013257_CustomAttributesCacheGenerator_m_VerticalScrollbarP21CustomAttributesCache
NEf:_X509KeyUsageExtension_ToString_m1992050580
ANc:_UNITY_FT_GlyphLoader_Done
K7b:__ZN9Polygon2D16CheckConsistencyEv
Iwi:_ConstructionCall__ctor_m1143766850
I6g:_GUIStyleState_Init_m2434147050
KNh:_Comparer_1_System_Collections_IComparer_Compare_m3203078743_gshared
Luf:_Context_get_RandomSC_m1687420621
AGc:__ZN19OverlapPointQuery2D14InitializeAABBER6b2AABB
jgg:__ZL67GUISkin_t1436893342_CustomAttributesCacheGenerator_m_verticalSliderP21CustomAttributesCache
Afi:__Z56RuntimeInvoker_Int32_t2071877448_SpriteState_t1353336012PK10MethodInfoPvPS2_
S5i:__ZNK15dense_hashtableINSt3__24pairIK10KeyWrapperIPKcEP11Il2CppClassEES5_N6il2cpp5utils11StringUtils12StringHasherIS4_EEN14dense_hash_mapIS5_S8_SE_NS5_14EqualsComparerINSC_21CaseSensitiveComparerEEENS0_9allocatorIS9_EEE9SelectKeyESI_SK_E10test_emptyERK30dense_hashtable_const_iteratorIS9_S5_SE_SM_SI_SK_E
HSc:_tt_cmap14_char_var_index
E$h:__Z77RuntimeInvoker_TimeSpan_t3430258949_TimeSpan_t3430258949_TimeSpan_t3430258949PK10MethodInfoPvPS2_
eUc:_psh_globals_new
k4e:_FileStream_Seek_m950719389
PUd:_StandaloneInputModule_set_allowActivationOnMobileDevice_m2631121618
JDd:_Decimal_stripStyles_m294582157
CSg:_UTF8Decoder_GetChars_m3819660582
Nta:__ZN9GfxDevice20SetMaxBufferedFramesEi
pxe:_List_1_RemoveAll_m4125997475_gshared
QBc:__ZN10Collider2D19WakeAllBodyContactsEv
ZK:__ZN24AudioScriptBufferManagerD2Ev
wTj:dynCall_vdd
t0c:__ZN2UIL17UnloadAllCanvasesEv
H9a:__Z23ConvertIntegerToTypePtrIsEbPvR14SafeBinaryRead
Kzc:__ZN12b2MouseJoint11ShiftOriginERK6b2Vec2
Cqh:_EqualityComparer_1__ctor_m99476293_gshared
Nnf:_BigInteger_Incr2_m505983313
Oji:_PCMReaderCallback_BeginInvoke_m3119095492
Xud:_ArrayList_get_Count_m523955479
ebi:__Z85RuntimeInvoker_Int32_t2071877448_Vector3_t2243707580_Vector3_t2243707580_Il2CppObjectPK10MethodInfoPvPS2_
rwd:_FixedSizeArrayListWrapper_Remove_m1359458911
vja:__ZN6prcoreL29inner_stretch_rgb565_bilinearEPKNS_9InnerInfoE
CGi:_Uri__ctor_m3927533881
Uhj:__ZNK15dense_hashtableINSt3__24pairIK10KeyWrapperINS1_IPK14Il2CppAssemblyP11Il2CppClassEEEjEES9_17ReflectionMapHashIS8_EN14dense_hash_mapIS9_jSD_NS9_14EqualsComparerINS0_8equal_toIS8_EEEENS0_9allocatorISB_EEE9SelectKeyESI_SK_E12test_deletedEj
zph:_EqualityComparer_1_System_Collections_IEqualityComparer_Equals_m3724603646_gshared
sRd:_EventSystem_get_current_m319019811
tzh:_Text_get_mainTexture_m813502234
E0h:__Z47RuntimeInvoker_SecurityProtocolType_t3099771628PK10MethodInfoPvPS2_
X_a:__ZNK14RenderSettings19GetFlatAmbientColorEv
a6a:__ZN6prcoreL10inner_flipILj4EEEvPhS1_j
Byb:__ZN18StreamedBinaryReadILb0EE21TransferSTLStyleArrayI10vector_mapIPKN5Unity4TypeE7Hash128NSt3__24lessIS6_EENS8_9allocatorINS8_4pairIS6_S7_EEEEEEEvRT_17TransferMetaFlags
Wu:__ZNK27StateMachineBehaviourPlayer15IsSenderEnabledEv
shi:_CustomEventData_Add_m1028036439
GOh:_Enumerator_VerifyState_m2118679243_gshared
y3d:_InputField_get_shouldHideMobileInput_m3694613599
ckc:__Z40Register_UnityEngine_Transform_SetParentv
Vji:_AudioConfigurationChangeHandler_Invoke_m635374412
vyf:_SslClientStream_get_HaveRemoteValidation2Callback_m3555576758
gtb:__ZN14Texture2DArray17UploadToGfxDeviceEv
SQe:_ReadOnlyCollection_1_System_Collections_Generic_IListU3CTU3E_Insert_m4216310986_gshared
aNe:_ReadOnlyCollection_1_System_Collections_Generic_IListU3CTU3E_set_Item_m1532495847_gshared
UJ:__Z14FMODMemoryFreePvjPKc
QCh:_InternalEnumerator_1_System_Collections_IEnumerator_Reset_m3731327620_AdjustorThunk
Dfb:__ZN15dense_hashtableINSt3__24pairIKN4core12basic_stringIcNS2_20StringStorageDefaultIcEEEES6_EES6_20StringHash32FunctionIS6_EN14dense_hash_mapIS6_S6_SA_NS0_8equal_toIS6_EE13stl_allocatorIS8_L18MemLabelIdentifier54ELi16EEE9SelectKeyESD_SG_EC2ERKSJ_j
hmg:__ZL104PointerEventData_t1599784723_CustomAttributesCacheGenerator_PointerEventData_get_worldNormal_m1704987468P21CustomAttributesCache
aRi:_YieldInstruction_t3462875981_marshal_pinvoke_cleanup
$2d:_Image_AddQuad_m1600600902
xVc:_cf2_glyphpath_moveTo
OLi:_SharedBetweenAnimatorsAttribute__ctor_m1221241062
$Vd:_AnimationTriggers_set_disabledTrigger_m609579531
tRf:__ZL47File_t1930543328_CustomAttributesCacheGeneratorP21CustomAttributesCache
wId:_DateTimeOffset__ctor_m1796624924
G2g:_GUILayoutUtility_get_spaceStyle_m1918520192
pRd:_BaseRaycaster_OnDisable_m1716508791
l9d:_Array_InternalArray__ICollection_Remove_TisKeyValuePair_2_t3716250094_m2566517826_gshared
RIh:_InternalEnumerator_1_MoveNext_m1741571735_gshared
mmc:__ZN5IMGUI14GUIWindowStateD2Ev
fNf:__ZL82Enum_t2459695545_CustomAttributesCacheGenerator_Enum_GetUnderlyingType_m3513899012P21CustomAttributesCache
yIj:_GC_is_heap_ptr
Brj:__GLOBAL__sub_I_Assembly_cpp
ewf:_TlsServerSettings_set_CertificateRequest_m3419519893
Ut:__ZN7mecanim5human10RetargetToEPKNS0_5HumanEPKNS0_9HumanPoseES6_RKN4math4trsXEPS4_PNS_8skeleton13SkeletonPoseTIS8_EESF_
Wx:__ZN7mecanim9animation8SeekClipERKNS0_12StreamedClipERNS0_18StreamedClipMemoryEf
sXg:_Type_get_IsGenericParameter_m161434704
OJg:_MethodBuilder_get_Attributes_m3678061338
jm:_emscripten_glIsTexture
G8g:_Mathf_Clamp_m3542052159
Zvd:_ArrayListWrapper_CopyTo_m793444109
S$f:__ZL79Convert_t2607082565_CustomAttributesCacheGenerator_Convert_ToUInt16_m3265369225P21CustomAttributesCache
Qk:_emscripten_glHint
LYc:_ft_var_readpackeddeltas
PHd:_DateTime_AddMilliseconds_m1813199744_AdjustorThunk
BAg:_SByte_System_IConvertible_ToSByte_m108774324_AdjustorThunk
SJg:_MethodBuilder_GetParameterCount_m467267889
hLg:_TypeBuilder_IsValueTypeImpl_m1499671481
Uhi:_AnimationEvent_set_intParameter_m1174062029
bIf:_X509ChainStatus_t4278378721_marshal_pinvoke
uqf:_RSAManaged__ctor_m1680944437
mm:_SDL_UpperBlit
M5g:_GUIStyle_op_Implicit_m781448948
C$a:__Z35GetTextureDecodeValuesWithIntensity16TextureUsageMode17TextureColorSpace10ColorSpacef
atd:_Byte_GetHashCode_m2885528842_AdjustorThunk
Xnj:__ZN15dense_hashtableINSt3__24pairIK10KeyWrapperINS1_IPK9EventInfoP11Il2CppClassEEEjEES9_17ReflectionMapHashIS8_EN14dense_hash_mapIS9_jSD_NS9_14EqualsComparerINS0_8equal_toIS8_EEEENS0_9allocatorISB_EEE9SelectKeyESI_SK_E15set_deleted_keyERKSB_
Vjh:_Dictionary_2_OnDeserialization_m2092139626_gshared
Fzc:__ZNK12b2MouseJoint10GetAnchorAEv
mxj:__ZNK6il2cpp2os6Socket12GetLastErrorEv
HDb:__ZN14SafeBinaryRead20OverrideRootTypeNameEPKc
l_i:__ZNK10KeyWrapperIPK22Il2CppGenericParameterE14EqualsComparerINSt3__28equal_toIS2_EEEclERKS3_SA_
W4:__ZN14FileCacherRead16UnlockCacheBlockEj
ukf:_X509Certificate_GetUnsignedBigInteger_m3491353542
qLc:__ZNSt3__26vectorIN4core12basic_stringIcNS1_20StringStorageDefaultIcEEEE13stl_allocatorIS5_L18MemLabelIdentifier34ELi16EEE6assignINS_11__wrap_iterIPS5_EEEENS_9enable_ifIXaasr21__is_forward_iteratorIT_EE5valuesr16is_constructibleIS5_NS_15iterator_traitsISF_E9referenceEEE5valueEvE4typeESF_SF_
Bfg:__ZL90Event_t3028476042_CustomAttributesCacheGenerator_Event_Internal_GetMousePosition_m38523489P21CustomAttributesCache
zIb:__Z18Transfer_BlittableI17RemapPPtrTransferLb1E8Vector3fEvRK29SerializationCommandArgumentsR31RuntimeSerializationCommandInfo
d2a:__ZN6Camera6RenderER11CullResultsR17ShaderPassContextPK21CameraRenderingParamsNS_10RenderFlagE
pSf:__ZL57StackBehaviour_t1390406961_CustomAttributesCacheGeneratorP21CustomAttributesCache
Qc:_emscripten_glUniform1f
FZb:__ZN13dynamic_arrayIS_I8Vector2fLj4EELj4EE18resize_initializedEjRKS1_12ResizePolicy
Uyf:_SslStreamBase_get_MightNeedHandshake_m3432170694
$Nc:__Z20ParseImageParametersR11UTF16StringRiRN20TextRenderingPrivate16TextFormatChangeE
Vc:_emscripten_glUniform1i
mHh:_InternalEnumerator_1_System_Collections_IEnumerator_Reset_m651165750_AdjustorThunk
yDb:__ZN13MonoBehaviour9CallAwakeEv
N2g:__Z14bankers_roundff
RUh:__Z66RuntimeInvoker_Void_t1841601450_Int32_t2071877448_SByte_t454417549PK10MethodInfoPvPS2_
XTb:__ZN9ShaderLab16SerializedTagMapaSERKS0_
eVh:__Z75RuntimeInvoker_Void_t1841601450_Il2CppObject_Int32_t2071877448_Il2CppObjectPK10MethodInfoPvPS2_
rae:_SetPropertyUtility_SetStruct_TisFillMethod_t1640962579_m1867757822_gshared
eR:__ZN11UnityEngine15CloudWebService16SessionContainer20RestoreSessionHeaderERKN4core12basic_stringIcNS2_20StringStorageDefaultIcEEEES8_RNS0_13SessionHeaderE
kId:_DateTime_ToString_m1117481977
Mbc:__ZN8Material28ApplyMaterialPropertyDrawersEv
nJg:_GenericTypeParameterBuilder_GetGenericArguments_m277381309
R_i:__ZN24dense_hashtable_iteratorINSt3__24pairIK10KeyWrapperIPK22Il2CppGenericParameterEP11Il2CppClassEES6_N6il2cpp5utils11PointerHashIS4_EEN14dense_hash_mapIS6_S9_SE_NS6_14EqualsComparerINS0_8equal_toIS5_EEEENS0_9allocatorISA_EEE9SelectKeyESJ_SL_E30advance_past_empty_and_deletedEv
EA:__ZN11UnityEngine9Animation27CreateAvatarBindingConstantER9TransformPKN7mecanim9animation14AvatarConstantERNS3_6memory9AllocatorE
qAb:__ZN14SafeBinaryRead21TransferSTLStyleArrayINSt3__26vectorIN30RuntimeInitializeOnLoadManager9ClassInfoE13stl_allocatorIS4_L18MemLabelIdentifier12ELi16EEEEEEvRT_17TransferMetaFlags
a$g:_UnitySerializationHolder_GetObjectData_m2280028722
pCi:_PatternCompiler_EmitFalse_m1188949782
CZg:_UInt64_System_IConvertible_ToDateTime_m2412118561
zbc:__ZN9BlobWriteC2ER13dynamic_arrayIhLj16EE24TransferInstructionFlags19BuildTargetPlatform
p3:__ZN14MessageHandler3GetEv
d4g:_GUISkin_set_verticalScrollbarThumb_m2647835739
GAa:__ZN10DynamicVBO9DrawChunkERK21DynamicVBOChunkHandle17ShaderChannelMaskS3_P17VertexDeclarationPKNS_10DrawParamsEi
hd:_emscripten_glAttachShader
gYb:__Z16tesedgeIntersectP10TESSvertexS0_S0_S0_S0_
JPe:_ReadOnlyCollection_1__ctor_m1539890895_gshared
Mta:__ZN9GfxDevice13SetActiveTierE12GraphicsTier
Gpe:_Enumerator_System_Collections_IEnumerator_get_Current_m3079057684_AdjustorThunk
FAe:_List_1_System_Collections_ICollection_get_SyncRoot_m1804424478_gshared
ixb:__ZNSt3__26vectorIN4core12basic_stringIcNS1_20StringStorageDefaultIcEEEENS_9allocatorIS5_EEE6assignIPS5_EENS_9enable_ifIXaasr21__is_forward_iteratorIT_EE5valuesr16is_constructibleIS5_NS_15iterator_traitsISC_E9referenceEEE5valueEvE4typeESC_SC_
khf:_KeyPairPersistence_get_UserPath_m3433052783
AHe:_Collection_1_ClearItems_m1410275009_gshared
tMf:__ZL58Decimal_t724701077_CustomAttributesCacheGenerator_MinusOneP21CustomAttributesCache
ube:_Array_InternalArray__IEnumerable_GetEnumerator_TisKeyframe_t1449471340_m3949799719_gshared
AFb:__Z18Transfer_BlittableI14SafeBinaryReadLb0E11QuaternionfEvRK29SerializationCommandArgumentsR31RuntimeSerializationCommandInfo
O0h:__Z45RuntimeInvoker_X509RevocationMode_t2065307963PK10MethodInfoPvPS2_
$Pb:__Z18Transfer_BlittableI18StreamedBinaryReadILb0EELb1E12PropertyNameEvRK29SerializationCommandArgumentsR31RuntimeSerializationCommandInfo
N8f:__ZL99MonoBehaviour_t1158329972_CustomAttributesCacheGenerator_MonoBehaviour_set_useGUILayout_m2666356651P21CustomAttributesCache
u4d:_InputField_get_inputType_m2187991661
rV:_tlsf_walk_heap
Ujf:_PKCS12_Decode_m731190390
iqj:__ZNK15dense_hashtableINSt3__24pairIK10KeyWrapperIP11Il2CppClassES4_EES5_N6il2cpp8metadata16SZArrayClassHashEN14dense_hash_mapIS5_S4_SA_NS5_14EqualsComparerINS9_19SZArrayClassCompareEEENS0_9allocatorIS7_EEE9SelectKeyESE_SG_E10test_emptyERK24dense_hashtable_iteratorIS7_S5_SA_SI_SE_SG_E
uIh:_InternalEnumerator_1_get_Current_m1550231132_gshared
fFi:_Reference_get_IgnoreCase_m2810892634
n$g:_Version_CheckedSet_m76493673
mb:invoke_vif
Yig:__ZL99SendMouseEvents_t3505065032_CustomAttributesCacheGenerator_SendMouseEvents_SetMouseMoved_m532965689P21CustomAttributesCache
nb:invoke_vid
sRj:__ZNSt3__212basic_stringIcNS_11char_traitsIcEENS_9allocatorIcEEE6insertEjPKc
WYf:__ZL67UnverifiableCodeAttribute_t765455733_CustomAttributesCacheGeneratorP21CustomAttributesCache
pb:invoke_vii
W5f:__ZL86Component_t3819376471_CustomAttributesCacheGenerator_Component_SendMessage_m3615678587P21CustomAttributesCache
eqg:__ZL82ScrollRect_t1199013257_CustomAttributesCacheGenerator_m_HorizontalScrollbarSpacingP21CustomAttributesCache
N1d:_LayoutGroup_get_padding_m1653511445
EOi:_Transform_get_localRotation_m4001487205
Fbb:__ZN12TLSAllocatorI14StackAllocatorE16ThreadInitializeEP13BaseAllocator
vvd:_ArrayList_Sort_m2778059513
kjg:__ZL107StackTraceUtility_t1881293839_CustomAttributesCacheGenerator_StackTraceUtility_SetProjectFolder_m2154926761P21CustomAttributesCache
S1d:_LayoutGroup_SetChildAlongAxis_m2732017156
P1c:__Z41CanvasRenderer_CUSTOM_DisableRectClippingP12Il2CppObject
lpf:_MD2_Create_m539024737
BAd:_SortedList_get_SyncRoot_m3299704254
Yre:_List_1_System_Collections_ICollection_CopyTo_m2020941110_gshared
bBd:_Slot_t2267560602_marshal_pinvoke
ZZh:__Z51RuntimeInvoker_UInt16_t986882611_Single_t2076509932PK10MethodInfoPvPS2_
kug:_SoapAttribute_get_XmlNamespace_m1436066016
TKa:__ZN25SingleBlockMemoryFileDataD0Ev
Jdb:__ZNSt3__26vectorI14ConstantStringNS_9allocatorIS1_EEE6assignINS_11__wrap_iterIPS1_EEEENS_9enable_ifIXaasr21__is_forward_iteratorIT_EE5valuesr16is_constructibleIS1_NS_15iterator_traitsISA_E9referenceEEE5valueEvE4typeESA_SA_
$Q:__ZN11UnityEngine15CloudWebService16SessionContainer21ConvertFromFolderTimeERKN4core12basic_stringIcNS2_20StringStorageDefaultIcEEEEPjPt
PGb:__ZNSt3__26vectorI8GUIStyle13stl_allocatorIS1_L18MemLabelIdentifier1ELi16EEE7reserveEj
xrj:__ZN6il2cpp6icalls8mscorlib6System9Threading6Thread27GetSerializedCurrentCultureEP12Il2CppThread
Bde:_Array_InternalArray__IndexOf_TisUInt32_t2149682021_m3231515987_gshared
gYi:_ListPool_1__cctor_m709904475_gshared
J2h:__Z83RuntimeInvoker_Void_t1841601450_QuaternionU26_t4187826802_QuaternionU26_t4187826802PK10MethodInfoPvPS2_
n0b:__Z31CalculateHierarchyTransformType23TransformAccessReadOnly
K7i:__ZN15dense_hashtableINSt3__24pairIK10KeyWrapperI13dynamic_arrayIPK10Il2CppTypeLj4EEEPFvvEEES8_N6il2cpp8metadata19Il2CppSignatureHashEN14dense_hash_mapIS8_SB_SF_NS8_14EqualsComparerINSE_22Il2CppSignatureCompareEEENS0_9allocatorISC_EEE9SelectKeyESJ_SL_E12resize_deltaEjj
M_b:__Z13RegisterClassI11TimeManagerEvv
KJ:__ZN4FMOD8ChannelI11setPositionEjj
oCc:__ZN10Collider2D12SetPolygon2DEP9Polygon2D
Fni:_Component_SendMessage_m913946877
Vqg:__ZL75ToggleGroup_t1030026315_CustomAttributesCacheGenerator_U3CU3Ef__amU24cache1P21CustomAttributesCache
Ezi:_SynchronizedClientContextSink__ctor_m978504596
l9:__ZN17BaseObjectManager13StaticDestroyEPv
TMi:_TextGenerationSettings_CompareVector2_m592645251
ydg:__ZL137AnimatorControllerPlayable_t4078305555_CustomAttributesCacheGenerator_AnimatorControllerPlayable_INTERNAL_CALL_GetFloatString_m4205749063P21CustomAttributesCache
ljg:__ZL108StackTraceUtility_t1881293839_CustomAttributesCacheGenerator_StackTraceUtility_ExtractStackTrace_m1593581205P21CustomAttributesCache
ZId:_DBNull_System_IConvertible_ToChar_m3344298044
flf:_X509Certificate_GetObjectData_m3888130484
Uzb:__ZNSt3__26vectorIN15ResourceManager10DependencyE13stl_allocatorIS2_L18MemLabelIdentifier51ELi16EEEC2INS_11__wrap_iterIPS2_EEEET_SB_RKS5_PNS_9enable_ifIXaasr21__is_forward_iteratorISB_EE5valuesr16is_constructibleIS2_NS_15iterator_traitsISB_E9referenceEEE5valueEvE4typeE
w2h:__Z45RuntimeInvoker_IMECompositionMode_t1898275508PK10MethodInfoPvPS2_
roi:_CustomYieldInstruction_Reset_m3409422382
EBi:_LinkStack_Push_m2660199875
EI:__ZN4FMOD6Reverb13setPropertiesEPK22FMOD_REVERB_PROPERTIES
Pgi:_CustomEventData_AddChar_m1103619816
SVa:__ZN9DepthPass13PrepareSubsetEjRK10RenderNodeifRK17ShaderReplaceData
u7g:_Input_get_compositionString_m636835668
KIi:_X509CertificateCollection_Add_m4008705157
ztg:_MonoMethodMessage_set_Uri_m3218581120
Y7b:__Z35SetMeshComponentFromArrayFromScriptR4Mesh30InternalScriptingShaderChannel34InternalScriptingVertexChannelTypei17ScriptingArrayPtri
B9b:__Z18ExtractTagThrowingR11ICallString
_ha:__ZN4PPtrI6ShaderE8TransferI19StreamedBinaryWriteILb0EEEEvRT_
THe:_Collection_1_IsFixedSize_m1816795498_gshared
HNa:__ZZ23InitPlayerLoopCallbacksvEN40EarlyUpdatePlayerCleanupCachedDatastruct7ForwardEv
vq:__ZN4core20StringStorageDefaultIcE6assignEPKcj
s3g:_GUIStyleState_GetBackgroundInternal_m439046630
Qwj:__ZN15dense_hashtableINSt3__24pairIK10KeyWrapperIP12Il2CppObjectEN6il2cpp2gc9CachedCCWEEES5_NS7_5utils11PointerHashIS3_EEN14dense_hash_mapIS5_S9_SD_NS5_14EqualsComparerINS0_8equal_toIS4_EEEENS0_9allocatorISA_EEE9SelectKeyESI_SK_E3endEv
tAb:__Z14resize_trimmedINSt3__26vectorIi13stl_allocatorIiL18MemLabelIdentifier12ELi16EEEEEvRT_j
zUd:_MouseButtonEventData_ReleasedThisFrame_m482758300
Poj:__ZN15dense_hashtableINSt3__24pairIK10KeyWrapperINS1_IP11Il2CppClassjEEES4_EES6_N6il2cpp8metadata14ArrayClassHashEN14dense_hash_mapIS6_S4_SB_NS6_14EqualsComparerINSA_17ArrayClassCompareEEENS0_9allocatorIS8_EEE9SelectKeyESF_SH_E9copy_fromERKSK_j
wwd:_ReadOnlyArrayListWrapper_set_Item_m2199017141
L3a:__ZN6Camera6SetFarEf
FIi:_DeriveBytes_DeriveIV_m3343375195
yPc:_UNITY_FT_Init_Class_ft_bitmap_glyph_class
ncd:_RNGCryptoServiceProvider_GetBytes_m167497991
aka:__ZN6prcoreL12RemapGenericI17TexFormatABGR888817TexFormatARGB8888EEvPKNS_9InnerInfoE
yhb:__ZN11GameManager17MainThreadCleanupEv
vri:_AnimatorControllerPlayable_INTERNAL_CALL_GetAnimatorControllerInternal_m239716681
D4i:__ZL25UnresolvedVirtualCall_225P12Il2CppObjecti22UICharInfo_t3056636800PK10MethodInfo
Wcj:__ZN6il2cpp6icalls8mscorlib6System18CollectTypeMethodsINS_5utils10functional6FilterINSt3__212basic_stringIcNS7_11char_traitsIcEENS7_9allocatorIcEEEENS4_11StringUtils23CaseInsensitiveComparerEEEEEvP11Il2CppClassPKSH_jRKT_RNS7_6vectorIPK10MethodInfoNSB_ISR_EEEERA65535_b
nHg:_TypeBuilder_get_Assembly_m492491492
s3i:__ZL25UnresolvedVirtualCall_160P12Il2CppObject23RaycastResult_t21186376PK10MethodInfo
NJe:_Collection_1_InsertItem_m1225429801_gshared
_Bc:__ZN10Collider2D12AddToManagerEv
yXc:_UNITY_tt_slot_init
_9c:_HMACSHA512__cctor_m1167457383
mRb:__Z25scripting_array_class_get17ScriptingClassPtrj
nsc:__ZL22Transfer_ManagedObjectI9JSONWriteLb1EEvRK29SerializationCommandArgumentsR31RuntimeSerializationCommandInfo
gva:__ZN9GfxDevice20DestroyRenderSurfaceER12ObjectHandleI17RenderSurface_TagP17RenderSurfaceBaseE
P0b:__ZL24PrepareSpriteRenderNodesILb1EEvR35RenderNodeQueuePrepareThreadContext
HIa:__ZN9GfxDevice22UpdateComputeResourcesEjPK9TextureIDPK16TextureDimensionPKijPKjjPK15ComputeBufferIDS7_PK20ComputeBufferCounterjSC_S2_S5_S9_SF_
l4b:__ZN12_GLOBAL__N_15qAsinEff
Fke:_Dictionary_2_Do_ICollectionCopyTo_TisKeyValuePair_2_t3749587448_m2536766696_gshared
Gbb:__ZN12TLSAllocatorI14StackAllocatorE13ThreadCleanupEv
kO:__Z18GetAudioManagerPtrv
xse:_List_1_GetEnumerator_m2837081829_gshared
G1h:__Z67RuntimeInvoker_Void_t1841601450_Int16_t4041245914_Int16_t4041245914PK10MethodInfoPvPS2_
xEj:__ZThn4_N6il2cpp2vm13ComObjectBase16MarshalInterfaceEP13Il2CppIStreamRK10Il2CppGuidPvjS7_j
$tb:__ZN4Mesh27SwizzleVertexColorsIfNeededEb
mcb:__Z27FindActiveTransformWithPathPKc
dVh:__Z63RuntimeInvoker_DSAParameters_t1872138834_BooleanU26_t3168250738PK10MethodInfoPvPS2_
Jcg:__ZL151AnimatorControllerPlayable_t4078305555_CustomAttributesCacheGenerator_AnimatorControllerPlayable_INTERNAL_CALL_CrossFadeInFixedTimeInternal_m3528719771P21CustomAttributesCache
Mli:_CanvasGroup_get_alpha_m1304564441
Cib:__ZN12BaseRendererD0Ev
y9a:__Z29StdTemplateConversionFunctionIbyEbPvR14SafeBinaryRead
Bmh:_DefaultComparer__ctor_m899694595_gshared
vji:_AsyncOperation_Finalize_m67522446
y$h:__Z56RuntimeInvoker_TimeSpan_t3430258949_TimeSpan_t3430258949PK10MethodInfoPvPS2_
jPa:_UNITY_png_write_info
YXa:__ZNK6Camera7GetNearEv
Pza:__ZN7ApiGLES11UnmapBufferEjN2gl12BufferTargetE
iAj:__ZN6il2cpp5utilsL24Utf32CharToSurrogatePairEjRA2_Ds
uob:__Z25GetNextAllowedTextureSizeib13TextureFormat
gX:__ZN20LocalFileSystemWebGL4CopyER13FileEntryDataS1_
iye:_List_1_CheckIndex_m4231572822_gshared
$S:__ZN19CloudServiceHandler6RetainEv
nMj:__ZN6il2cpp2os9Semaphore4WaitEb
jzc:__ZN15b2FrictionJointD0Ev
ahd:_StrongName_Equals_m67226644
Kib:__ZN12BaseRenderer20FlattenToRenderQueueER15RenderNodeQueueRK20DeprecatedSourceData
pIg:_FieldBuilder_get_Attributes_m2174064290
W7e:_UnmanagedMemoryStream_get_Length_m587008850
Gma:__Z34scripting_liveness_calculation_endPv
KAj:__ZN6il2cpp2os6ThreadC2Ev
Rhd:_SecurityFrame_InitFromRuntimeFrame_m45195821
ORf:__ZL53TextReader_t1561828458_CustomAttributesCacheGeneratorP21CustomAttributesCache
RGf:_X509Chain_IsSignedWith_m292245392
BAj:__ZNK6il2cpp2os10SocketImpl12GetLastErrorEv
q9d:_Array_InternalArray__ICollection_Remove_TisDateTime_t693205669_m1275668216_gshared
ekh:_Dictionary_2__ctor_m871840915_gshared
NPe:_ReadOnlyCollection_1_System_Collections_Generic_ICollectionU3CTU3E_Remove_m3751131234_gshared
Htc:__Z18Transfer_BlittableI8JSONReadLb0E8Vector3fEvRK29SerializationCommandArgumentsR31RuntimeSerializationCommandInfo
bxi:_ChannelServices__cctor_m3534779830
qqj:__ZN6il2cpp2vm6Thread6DetachEP12Il2CppThread
oTc:_Render_Single_Pass
BEd:_Convert_ToInt16_m416789348
Tmd:_EncoderExceptionFallback_Equals_m762170768
z1i:__ZL24UnresolvedVirtualCall_59P12Il2CppObjectS0_aPK10MethodInfo
Erh:_EqualityComparer_1__cctor_m2666196678_gshared
q1g:_GUIStyle_Init_m3872198731
KA:__ZN7mecanim8skeleton30SkeletonBuildReverseIndexArrayEPiPKiPKNS0_8SkeletonES6_
llc:__Z19GetGUIBlendMaterialv
wBj:__ZN6il2cpp2os10ThreadImpl5SleepEjb
cLi:_X509ExtensionCollection_System_Collections_IEnumerable_GetEnumerator_m2600902401
r4c:__ZN11UnityEngine9Analytics15UserCustomEvent3AddEPKcb
JBb:__ZN15FileSystemEntry4MoveERS_23FileSystemCopyMoveFlags
JAf:_ListDictionary_FindEntry_m432748847
aZj:_glBindSampler__wrapper
JUi:_UnityAction_1_Invoke_m3523417209_gshared
Of:_emscripten_set_mouseup_callback
uIa:__ZN9GfxDevice27SetRandomWriteTargetTextureEi9TextureID
GZh:__Z48RuntimeInvoker_Int64_t909078037_SByte_t454417549PK10MethodInfoPvPS2_
odg:__ZL123AnimatorControllerPlayable_t4078305555_CustomAttributesCacheGenerator_AnimatorControllerPlayable_Play_m2286317581____layer1P21CustomAttributesCache
XLi:_SpaceAttribute__ctor_m1444406696
pW:__ZNK18ScreenManagerWebGL8GetWidthEv
HTj:dynCall_iiifii
maj:__ZN6il2cpp2vm13MetadataCache33GetFieldDefaultValueDataFromIndexEi
z1d:_GridLayoutGroup_set_startAxis_m1635162426
OF:__ZN10SampleClipD2Ev
Jzi:_SynchronizationAttribute_EnterContext_m2984912761
qNf:__ZL73Enum_t2459695545_CustomAttributesCacheGenerator_Enum_ToObject_m2601523252P21CustomAttributesCache
_Pd:_CultureInfo_construct_internal_locale_from_name_m971766383
vBj:__ZN6il2cpp2os10ThreadImpl13SetWaitObjectEPNS0_5posix15PosixWaitObjectE
ctd:_Byte_Equals_m368616327_AdjustorThunk
g7b:__ZN19SpriteMeshGenerator7contourERNSt3__26vectorINS_6vertexENS0_9allocatorIS2_EEEERiRf
afe:_Array_InternalArray__ICollection_Add_TisUIVertex_t1204258818_m3869382594_gshared
RD:__Z56AnimationOffsetPlayable_CUSTOM_INTERNAL_CALL_GetPositionR9HPlayableR8Vector3f
UWc:_cff_cmap_unicode_init
PSa:__ZNSt3__224__buffered_inplace_mergeIRN10vector_mapIiN17InstancedPropInfo12PropertyTypeENS_4lessIiEE13stl_allocatorINS_4pairIiS3_EEL18MemLabelIdentifier1ELi16EEE13value_compareENS_11__wrap_iterIPS8_EEEEvT0_SH_SH_T_NS_15iterator_traitsISH_E15difference_typeESL_PNSK_10value_typeE
iig:__ZL95CustomEventData_t1269126727_CustomAttributesCacheGenerator_CustomEventData_AddInt64_m1803231272P21CustomAttributesCache
rNd:_Enum_ToObject_m2460371738
cff:_PrimalityTests_Test_m1088386156
Z4:__ZN14FileCacherRead13GetFileLengthEv
knc:__Z36Event_CUSTOM_Internal_SetNativeEvent13Il2Cpp_IntPtr
TPj:_readlink
zlj:__ZN15dense_hashtableINSt3__24pairIK10KeyWrapperINS1_IPK9EventInfoP11Il2CppClassEEEjEES9_17ReflectionMapHashIS8_EN14dense_hash_mapIS9_jSD_NS9_14EqualsComparerINS0_8equal_toIS8_EEEENS0_9allocatorISB_EEE9SelectKeyESI_SK_E12resize_deltaEjj
dje:_Array_Resize_TisVector3_t2243707580_m893658391_gshared
LEh:_InternalEnumerator_1_System_Collections_IEnumerator_get_Current_m4259662004_AdjustorThunk
yme:_Array_InternalArray__get_Item_TisKeyframe_t1449471340_m1003508933_gshared
tKj:__ZN6il2cpp8metadata14Il2CppTypeHash4HashEPK10Il2CppType
Ojf:_StrongName_get_PublicKeyToken_m1968460885
_wb:__ZNK6Sprite9GetBoundsE8Vector2fbb
vRa:__ZNK19RenderEventsContext21CleanupCommandBuffersEv
pya:__ZN11ContextGLES6CreateEi
B1e:_BinaryReader_Dispose_m4249456877
tFf:_X500DistinguishedName_Decode_m3070515374
GDd:_Double_ToString_m1085043609
NQb:__Z19TransferField_ArrayI18StreamedBinaryReadILb0EE27Converter_SimpleNativeClassI17AnimationCurveTplIfEEEvRK23StaticTransferFieldInfoR31RuntimeSerializationCommandInfoRT0_
Prf:_CipherSuite_createEncryptionCipher_m1926075645
rbb:__ZN14StackAllocator16FrameMaintenanceEb
R0d:_Graphic_Raycast_m3582517890
cfb:__Z18ReadStringFromFilePN4core17string_with_labelILi1EEERKNS_12basic_stringIcNS_20StringStorageDefaultIcEEEE
v0:__ZNK10GameObject20QueryComponentByTypeEPKN5Unity4TypeE
Lqe:_Enumerator_MoveNext_m1367380970_AdjustorThunk
DKg:_OpCode_GetHashCode_m2974727122
Qrf:_CipherSuite_createDecryptionCipher_m1118350455
JCi:_PatternCompiler_EmitReference_m1381860071
UE:__Z78AnimatorControllerPlayable_CUSTOM_INTERNAL_CALL_IsParameterControlledByCurveIDR9HPlayablei
hMd:_Double_System_IConvertible_ToInt16_m4200640326
sfc:__Z53Register_UnityEngine_GameObject_get_activeInHierarchyv
rJg:_GenericTypeParameterBuilder_get_IsGenericType_m1883522222
S2h:__Z90RuntimeInvoker_Single_t2076509932_Single_t2076509932_Single_t2076509932_Single_t2076509932PK10MethodInfoPvPS2_
x_:__ZL30InitializeCoreScriptingClassesv
JKe:_Collection_1_CheckWritable_m3938993573_gshared
Jg:_glBlitFramebuffer
DMa:__ZN17ArchiveFileSystem5TouchER13FileEntryData
owf:_SecurityParameters_set_Cipher_m3888132335
kff:_BigInteger_GeneratePseudoPrime_m2606361440
gXe:_DateTimeFormatInfo_get_ShortTimePattern_m20923983
nIb:__Z35Transfer_Blittable_SingleValueFieldI14SafeBinaryReadhEvRT_R17GeneralMonoObjectRK23StaticTransferFieldInfo
lpg:__ZL140U3CMouseDragOutsideRectU3Ec__Iterator1_t2599668326_CustomAttributesCacheGenerator_U3CMouseDragOutsideRectU3Ec__Iterator1_Dispose_m2134284531P21CustomAttributesCache
Gfg:__ZL90Event_t3028476042_CustomAttributesCacheGenerator_Event_Internal_SetNativeEvent_m1899228752P21CustomAttributesCache
K8c:__ZN22BaseUnityConnectClientC2ERN11UnityEngine7Connect20BasePersistentValuesE
HVh:__Z129RuntimeInvoker_Int32_t2071877448_Il2CppObject_Int32_t2071877448_Int32_t2071877448_Il2CppObject_Int32_t2071877448_SByte_t454417549PK10MethodInfoPvPS2_
Bif:_EncryptedPrivateKeyInfo_get_Algorithm_m2779196942
fug:_RemotingServices_GetRealProxy_m620317996
sWa:__ZN13dynamic_arrayI11CulledLightLj4EE6insertEPS0_PKS0_S4_
sCh:_ArrayReadOnlyList_1_RemoveAt_m2270349795_gshared
b7i:__ZNK15dense_hashtableI10KeyWrapperIPK19Il2CppGenericMethodES4_N6il2cpp8metadata23Il2CppGenericMethodHashEN14dense_hash_setIS4_S7_NS4_14EqualsComparerINS6_26Il2CppGenericMethodCompareEEENSt3__29allocatorIS4_EEE8IdentityESB_SE_E3endEv
QSi:_Predicate_1_Invoke_m2060780095_gshared
iaj:__ZN6il2cpp2vm13MetadataCache23GetInterfaceOffsetIndexEi
Rn:FUNCTION_TABLE_vif
Sn:FUNCTION_TABLE_vid
Un:FUNCTION_TABLE_vii
Sma:__Z40scripting_liveness_calculation_from_root18ScriptingObjectPtrPv
aPa:_UNITY_png_create_write_struct
FUh:__Z149RuntimeInvoker_Boolean_t3825574718_Int32_t2071877448_Il2CppObject_Int32_t2071877448_Int32_t2071877448_Il2CppObject_Int32_t2071877448_SByte_t454417549PK10MethodInfoPvPS2_
hfa:__ZN7Texture23VirtualRedirectTransferER24GenerateTypeTreeTransfer
FMc:_UNITY_FT_Set_Transform
F2b:__ZNK32RendererMaterialAnimationBinding12SetPPtrValueERKN11UnityEngine9Animation10BoundCurveEi
IBh:_ArrayReadOnlyList_1_Contains_m1266627404_gshared
HYj:_glDeleteFramebuffers__wrapper
r2d:_Image_get_overrideSprite_m706080347
IYd:_ColorTween_t3438117476_marshal_pinvoke_cleanup
onf:_BigInteger_ModInverse_m1881894572
Tbj:__ZN6il2cpp2vm7Runtime17GetDelegateInvokeEP11Il2CppClass
Aqg:__ZL59Slider_t297367283_CustomAttributesCacheGenerator_m_FillRectP21CustomAttributesCache
eve:_List_1_AddEnumerable_m3541747636_gshared
onj:__ZN30dense_hashtable_const_iteratorINSt3__24pairIK10KeyWrapperIPK22Il2CppGenericParameterEPK24MonoGenericParameterInfoEES6_N6il2cpp5utils11PointerHashIS4_EEN14dense_hash_mapIS6_SA_SF_NS6_14EqualsComparerINS0_8equal_toIS5_EEEENS0_9allocatorISB_EEE9SelectKeyESK_SM_E30advance_past_empty_and_deletedEv
Epb:__ZN28EnlightenRendererInformation8TransferI14SafeBinaryReadEEvRT_
TTf:__ZL69DefaultDependencyAttribute_t3858269114_CustomAttributesCacheGeneratorP21CustomAttributesCache
zJa:__ZNK15Lz4Decompressor16DecompressMemoryEPKvPjPvS2_
KRc:_UNITY_tt_face_build_cmaps
hch:_Ray_ToString_m2019179238
vIc:__ZN11Rigidbody2D8TransferI24GenerateTypeTreeTransferEEvRT_
Lab:__ZNSt3__26__treeINS_12__value_typeIN4core12basic_stringIcNS2_20StringStorageDefaultIcEEEEPN16MemoryFileSystem4NodeEEENS_19__map_value_compareIS6_SA_NS_4lessIS6_EELb1EEE13stl_allocatorISA_L18MemLabelIdentifier54ELi16EEE4findIS6_EENS_15__tree_iteratorISA_PNS_11__tree_nodeISA_PvEEiEERKT_
yJd:_Decimal_System_IConvertible_ToType_m3828527724_AdjustorThunk
H4d:_InputField_get_caretPositionInternal_m3011712053
XQc:_UNITY_tt_face_load_os2
ZHc:__ZN17PolygonCollider2D8TransferI24GenerateTypeTreeTransferEEvRT_
dpf:_HMAC_get_Key_m2528863640
vLe:_Collection_1_IsSynchronized_m1366278230_gshared
nZf:__ZL93StringBuilder_t1221177846_CustomAttributesCacheGenerator_StringBuilder_AppendLine_m1686706871P21CustomAttributesCache
QHb:__Z29Transfer_Blittable_ArrayFieldI14SafeBinaryRead8Vector4fEvRT_R9ArrayInfoRK23StaticTransferFieldInfo
P7d:_Array_get_swapper_TisInt32_t2071877448_m2837069166_gshared
Djj:__ZN6il2cpp2gc19AppendOnlyGCHashMapINSt3__24pairIPK10MethodInfoP11Il2CppClassEEP22Il2CppReflectionMethod17ReflectionMapHashIS9_ENS2_8equal_toIS9_EEE3AddERKS9_SB_
Ddh:_RectTransform_INTERNAL_get_rect_m1177342209
OGe:_Collection_1_Clear_m268154422_gshared
TTd:_PointerEventData_IsScrolling_m1971908975
UCj:__ZN6il2cpp2os26LibraryNamePrefixAndSuffixD2Ev
weg:__ZL53UILineInfo_t3621277874_CustomAttributesCacheGeneratorP21CustomAttributesCache
KJd:_Decimal_System_IConvertible_ToInt16_m3159038792
vx:__ZN7mecanim9animation12EvaluateClipEPKNS0_4ClipEPKNS0_9ClipInputEPNS0_10ClipMemoryEPNS0_10ClipOutputE
Qpb:__ZN4PPtrI11LightProbesE8TransferI18StreamedBinaryReadILb0EEEEvRT_
Evi:_ComVisibleAttribute__ctor_m1789587486
RNg:_MonoMethodInfo_GetReturnType_m2864247130
i0a:__ZN13RenderManager29SetCurrentCameraAndStackStateEP6CameraP25CameraStackRenderingState
cqj:__ZN15dense_hashtableINSt3__24pairIK10KeyWrapperINS1_IP11Il2CppClassjEEES4_EES6_N6il2cpp8metadata14ArrayClassHashEN14dense_hash_mapIS6_S4_SB_NS6_14EqualsComparerINSA_17ArrayClassCompareEEENS0_9allocatorIS8_EEE9SelectKeyESF_SH_E12resize_deltaEjj
Yh:_JS_WebRequest_Release
O2e:_DirectoryNotFoundException__ctor_m2242202556
zR:__ZN11UnityEngine15CloudWebService14DataErrorEventD0Ev
Cld:_String_CreateString_m2448464375
wIf:_X509SubjectKeyIdentifierExtension__ctor_m2959112706
GLg:_FieldInfo_get_IsNotSerialized_m2322769148
c1f:__ZL68Math_t2022911894_CustomAttributesCacheGenerator_Math_Max_m2671311541P21CustomAttributesCache
_vj:__ZN6il2cpp8metadata15GenericMetadata7InflateEPK19Il2CppGenericMethodPK20Il2CppGenericContext
jSa:__ZN19ShaderPropertySheet16SetArrayPropertyEN9ShaderLab16FastPropertyNameENS_12PropertyTypeEPKvj
KNg:_MonoGenericCMethod_get_ReflectedType_m2689239043
wLe:_Collection_1_IsFixedSize_m499196375_gshared
KYd:_ColorTween_set_startColor_m3546206870_AdjustorThunk
wwj:__ZN15dense_hashtableINSt3__24pairIK10KeyWrapperIP12Il2CppObjectEN6il2cpp2gc9CachedCCWEEES5_NS7_5utils11PointerHashIS3_EEN14dense_hash_mapIS5_S9_SD_NS5_14EqualsComparerINS0_8equal_toIS4_EEEENS0_9allocatorISA_EEE9SelectKeyESI_SK_E16reset_thresholdsEv
aMf:__ZL63String_t_CustomAttributesCacheGenerator_String_Split_m394273024P21CustomAttributesCache
O_c:__ZN2UI11CanvasGroup23VirtualRedirectTransferER19StreamedBinaryWriteILb0EE
yHh:_InternalEnumerator_1_get_Current_m4083613828_gshared
vmc:__ZN8GUIState8EndOnGUIEv
bRg:_UnicodeEncoding_GetString_m542738941
FXc:_UNITY_TT_Get_VMetrics
n2e:_Path_InsecureGetFullPath_m2635272425
tBd:_Enumerator_Clone_m1124749523
uHd:_DateTime_System_IConvertible_ToUInt32_m1363211018
Rzg:_RuntimeMethodHandle__ctor_m1162528746
Jmj:__ZN15dense_hashtableINSt3__24pairIK10KeyWrapperIPK14Il2CppAssemblyEPK16MonoAssemblyNameEES6_N6il2cpp5utils11PointerHashIS4_EEN14dense_hash_mapIS6_SA_SF_NS6_14EqualsComparerINS0_8equal_toIS5_EEEENS0_9allocatorISB_EEE9SelectKeyESK_SM_E16reset_thresholdsEv
RAe:_List_1_AsReadOnly_m4108578222_gshared
jCg:_DSA__ctor_m613430209
mae:_SetPropertyUtility_SetStruct_TisSingle_t2076509932_m3849235084_gshared
aBa:__ZN7Texture21GetMasterTextureLimitEv
T4a:__Z12CanAddScriptR10GameObject17ScriptingClassPtrPS1_S2_
yoj:__ZN6il2cpp2vm10Reflection12HasAttributeEP12Il2CppObjectP11Il2CppClass
yQa:_UNITY_png_write_sRGB
Mvc:__ZN8JSONRead21TransferSTLStyleArrayI13dynamic_arrayI4AABBLj4EEEEvRT_18MemLabelIdentifier17TransferMetaFlags
iUi:_InvokableCall_1__ctor_m121193486_gshared
F0:__ZN9ShaderLabL25StaticInitializeShaderLabEPv
Glh:_Dictionary_2_ContainsKeyValuePair_m3818021458_gshared
U:Math_max
FLe:_Collection_1_System_Collections_IList_Insert_m1511106741_gshared
e2i:__ZL24UnresolvedVirtualCall_92P12Il2CppObjectPK10MethodInfo
Hej:_il2cpp_class_get_methods
q2e:_Path_CanonicalizePath_m383914732
EOh:_Enumerator_System_Collections_IEnumerator_get_Current_m1631145297_gshared
Avd:_ArrayList_Synchronized_m2395071980
SAj:__ZN6il2cpp2os6Thread16GetCurrentThreadEv
G4b:__ZN10GameObject13ComponentPair15SetComponentPtrEPN5Unity9ComponentE
Q7e:_UnexceptionalStreamWriter_Write_m3206913035
x_b:__Z13RegisterClassI10MeshFilterEvv
$C:__ZNK26AnimatorControllerPlayable24GetAnimatorClipInfoCountEib
wib:__ZN10TagManager8TransferI19StreamedBinaryWriteILb0EEEEvRT_
JEb:__ZN11PreloadData23VirtualRedirectTransferER18StreamedBinaryReadILb0EE
eEj:__ZN6il2cpp6icalls8mscorlib6System10ReflectionL40il2cpp_class_get_generic_type_definitionEP11Il2CppClass
hCg:_DESTransform_ProcessBlock_m2826669227
n1h:__Z115RuntimeInvoker_Void_t1841601450_Il2CppObject_Int32_t2071877448_Int32_t2071877448_SByte_t454417549_Int32_t2071877448PK10MethodInfoPvPS2_
i_e:_Int16_CompareTo_m3493496879
x8h:__Z36RuntimeInvoker_Direction_t1525323322PK10MethodInfoPvPS2_
s9f:__ZL56RenderTexture_t2666733923_CustomAttributesCacheGeneratorP21CustomAttributesCache
Xig:__ZL56ColorWriteMask_t926634530_CustomAttributesCacheGeneratorP21CustomAttributesCache
Srb:__ZN6Sprite17MainThreadCleanupEv
K3f:__ZL56OidCollection_t3790243618_CustomAttributesCacheGeneratorP21CustomAttributesCache
jYf:__ZL61SignatureDescription_t89145500_CustomAttributesCacheGeneratorP21CustomAttributesCache
_Gh:_InternalEnumerator_1_MoveNext_m3389738333_AdjustorThunk
aL:__ZN10AudioMixer14UpdateMuteSoloEv
iRa:__Z17GetMonoManagerPtrv
uni:_Component_GetComponents_m637589504
vDe:_Stack_1_System_Collections_ICollection_get_SyncRoot_m3151629354_gshared
Tsh:_MaskableGraphic_UnityEngine_UI_IClippable_get_gameObject_m954171032
Vfa:__ZN9ShaderLab10SubProgram7CompileEv
dAa:__ZN7ApiGLES16SetPatchVerticesEi
m5e:_MonoIOStat_t1621921065_marshal_pinvoke
hKa:__ZN10MemoryFileC2E18MemLabelIdentifierP14MemoryFileData14FilePermission
nvg:_TrackingServices_NotifyUnmarshaledObject_m1794048369
H_i:__ZN6il2cpp2vm5Class20FromGenericParameterEPK22Il2CppGenericParameter
rWf:__ZL59RemotingServices_t2399536837_CustomAttributesCacheGeneratorP21CustomAttributesCache
BT:__ZN19CloudServiceHandler11FlushEventsEv
Ysi:_AnimatorControllerPlayable_INTERNAL_CALL_GetAnimatorClipInfoInternal_m3180917212
L8:__ZN15GlobalCallbacksC2Ev
qdb:__ZN11AssetBundle8TransferI14SafeBinaryReadEEvRT_
nQh:__Z76RuntimeInvoker_Int32_t2071877448_Il2CppObject_Int32_t2071877448_Il2CppObjectPK10MethodInfoPvPS2_
Fhe:_Array_InternalArray__set_Item_TisLabelFixup_t4090909514_m565370771_gshared
jFc:__ZN7b2World10CreateBodyEPK9b2BodyDef
eOc:_UNITY_FT_New_Memory_Face
B2f:__ZL74X509Crl_t1699034837_CustomAttributesCacheGenerator_U3CU3Ef__switchU24map13P21CustomAttributesCache
fzg:_SerializationEntry__ctor_m1619256036_AdjustorThunk
oE:__Z81AnimatorControllerPlayable_CUSTOM_INTERNAL_CALL_GetAnimatorTransitionInfoInternalR9HPlayablei
UNa:__ZZ23InitPlayerLoopCallbacksvEN43PostLateUpdatePlayerSendFrameCompletestruct7ForwardEv
kta:__ZN26VertexDeclarationCacheGLES24DestroyVertexDeclarationEP17VertexDeclaration
Ugd:__Z15CastclassSealedP12Il2CppObjectP11Il2CppClass
TZb:__ZN15ApplicationInfo14GetSandboxTypeEv
n8g:_Material_HasProperty_m3175512802
tIb:__Z18Transfer_BlittableI17RemapPPtrTransferLb1EhEvRK29SerializationCommandArgumentsR31RuntimeSerializationCommandInfo
dDj:__ZNSt3__26vectorIjNS_9allocatorIjEEE26__swap_out_circular_bufferERNS_14__split_bufferIjRS2_EE
g3a:__ZN16ReflectionProbes40UpdateRealtimeReflectionProbesTimeslicedEv
UXi:_ListPool_1_Get_m529219189_gshared
Jyj:__ZNSt3__26__treeINS_12__value_typeIP24Il2CppReflectionAssemblyPvEENS_19__map_value_compareIS3_S5_NS_4lessIS3_EELb1EEENS_9allocatorIS5_EEE16__insert_node_atEPNS_16__tree_node_baseIS4_EERSF_SF_
QJg:_MethodBuilder_GetBaseDefinition_m774166361
oxg:_FormatterConverter__ctor_m3958982477
l2b:__ZN16ReflectionProbes15InitializeClassEv
NJj:__ZN6il2cpp5utils5MatchENSt3__212basic_stringIcNS1_11char_traitsIcEENS1_9allocatorIcEEEEjRKS7_j
YOc:_UNITY_FT_Destroy_Class_psnames_module_class
OAc:__ZNK12b2WheelJoint17GetReactionTorqueEf
Z8i:__ZNK15dense_hashtableINSt3__24pairIK10KeyWrapperIPK11Il2CppClassEPKcEES6_N6il2cpp5utils11PointerHashIS3_EEN14dense_hash_mapIS6_S9_SE_NS6_14EqualsComparerINS0_8equal_toIS5_EEEENS0_9allocatorISA_EEE9SelectKeyESJ_SL_E12test_deletedEj
lCi:_MRUList_Evict_m2430323183
pQe:_ReadOnlyCollection_1_System_Collections_Generic_ICollectionU3CTU3E_Remove_m1060547576_gshared
Jxj:__ZN6il2cpp2vm5Image9GetCorlibEv
D7e:_NullTextWriter_Write_m2306984725
wA:__ZN8Animator13BatchedFKPassERK13dynamic_arrayIP14PlayableOutputLj4EE
Ywf:_RecordProtocol_ProcessChangeCipherSpec_m3233959862
kni:_Component_GetComponent_m4225719715
a0d:_Graphic_set_raycastTarget_m1229173591
$je:_Array_Sort_TisVector4_t2243707581_m474199742_gshared
rve:_List_1_CheckIndex_m2247532995_gshared
Hhg:__ZL93GUIUtility_t3275770671_CustomAttributesCacheGenerator_GUIUtility_set_guiIsExiting_m2362636745P21CustomAttributesCache
y7e:_TextWriter_Write_m576684782
kQi:_Vector3_Max_m2105825185
Uj:_glIsVertexArray
yF:__Z100Register_UnityEngine_Experimental_Director_AnimatorControllerPlayable_INTERNAL_CALL_SetIntegerStringv
MAb:__ZNSt3__26vectorIN4core12basic_stringIcNS1_20StringStorageDefaultIcEEEE13stl_allocatorIS5_L18MemLabelIdentifier12ELi16EEEC2INS_11__wrap_iterIPS5_EEEET_SE_RKS8_PNS_9enable_ifIXaasr21__is_forward_iteratorISE_EE5valuesr16is_constructibleIS5_NS_15iterator_traitsISE_E9referenceEEE5valueEvE4typeE
gKa:__ZN25SingleBlockMemoryFileDataC2E18MemLabelIdentifierPvjb
Gcb:__ZN5Unity9Component8TransferI18StreamedBinaryReadILb0EEEEvRT_
fa:invoke_fff
Lzh:_Text_get_fontSize_m3105730761
MVj:b14
nwf:_TlsServerHello_Update_m1740270635
ZZc:__ZN2UI6Canvas17MainThreadCleanupEv
rwh:_ScrollRect_Rebuild_m3423824761
VAe:_List_1_Find_m3862454845_gshared
pDc:__ZTv0_n12_N10ClipperLib7ClipperD1Ev
aCi:_MatchCollection_get_Item_m2609281578
WGa:__ZN7ApiGLES13CreateProgramEv
nkb:__ZN11HaloManager7AddHaloEv
$Rg:_UTF8Encoding__ctor_m100325490
nBa:__ZN4crnd12crn_unpackerD2Ev
ozh:_StencilMaterial_ClearAll_m1372779118
ek:_emscripten_glTexImage2D
Ftg:_ObjRefSurrogate_SetObjectData_m1873902916
qXc:_tt_driver_class_pic_init
p_:__ZN18ScriptingArguments9AddStringEPKc
CHj:_setup_header
SNe:_ReadOnlyCollection_1_System_Collections_IList_get_IsReadOnly_m1367736517_gshared
K5f:__ZL116Component_t3819376471_CustomAttributesCacheGenerator_Component_GetComponentsInParent_m1920178904____includeInactive1P21CustomAttributesCache
tSj:runPostSets
rlg:__ZL93AxisEventData_t1524870173_CustomAttributesCacheGenerator_AxisEventData_set_moveDir_m254243794P21CustomAttributesCache
spa:__ZL23stbir__resize_arbitraryPvPKviiiS_iiiffffPfiij14stbir_datatype12stbir_filterS4_10stbir_edgeS5_16stbir_colorspace
Nwe:_List_1_System_Collections_IList_Insert_m848656350_gshared
f7b:__ZN19SpriteMeshGenerator4maskC2EP11ColorRGBA32iihj
jKb:__Z18Transfer_BlittableI24GenerateTypeTreeTransferLb1E8Vector4fEvRK29SerializationCommandArgumentsR31RuntimeSerializationCommandInfo
I_e:_Int16_ToString_m3971652088_AdjustorThunk
B2i:__ZL25UnresolvedVirtualCall_115P12Il2CppObjecttaaPK10MethodInfo
pk:_pthread_detach
Paj:__ZN6il2cpp2vm19SocketPollingThread7RunLoopEv
doe:_KeyValuePair_2__ctor_m1640124561_AdjustorThunk
rBi:_MethodDictionary_AllocInternalProperties_m3261295876
Ohc:__ZN15DirectorManager20ScheduleGraphDestroyERK14HPlayableGraph
$ra:__ZNSt3__213__stable_sortIRN10vector_mapI17ScriptingClassPtrPKN5Unity4TypeENS_4lessIS2_EENS_9allocatorINS_4pairIS2_S6_EEEEE13value_compareENS_11__wrap_iterIPSB_EEEEvT0_SJ_T_NS_15iterator_traitsISJ_E15difference_typeEPNSM_10value_typeEi
_3f:__ZL77U3CPrivateImplementationDetailsU3E_t1486305139_CustomAttributesCacheGeneratorP21CustomAttributesCache
IUb:__ZN9ShaderLab25SerializedTextureProperty8TransferI24GenerateTypeTreeTransferEEvRT_
teb:__ZN15dense_hashtableINSt3__24pairIKN4core12basic_stringIcNS2_20StringStorageDefaultIcEEEEP11AssetBundleEES6_20StringHash32FunctionIS6_EN14dense_hash_mapIS6_S9_SC_NS0_8equal_toIS6_EENS0_9allocatorISA_EEE9SelectKeyESF_SH_E12resize_deltaEjj
r1j:_emscripten_glIsShader__wrapper
qmj:__ZN6il2cpp2gc19AppendOnlyGCHashMapINSt3__24pairIPK14Il2CppAssemblyP11Il2CppClassEEP24Il2CppReflectionAssembly17ReflectionMapHashIS9_ENS2_8equal_toIS9_EEEC2Ev
GSc:_tt_cmap14_char_next
RSf:__ZL69AssemblyTrademarkAttribute_t3740556705_CustomAttributesCacheGeneratorP21CustomAttributesCache
Uwa:__ZN13GfxDeviceGLES28GetNativeVertexBufferPointerEP9GfxBuffer
fea:__ZN11NamedObject8TransferI18StreamedBinaryReadILb0EEEEvRT_
UFa:__ZNK17GPUSkinPoseBuffer12GetBoneCountEv
roc:__Z32GUIStyle_Get_Custom_PropFontSizeP12Il2CppObject
Yyg:_DelegatePInvokeWrapper_CallbackHandler_t362827733
y1f:__ZL59ResolveEventArgs_t1859808873_CustomAttributesCacheGeneratorP21CustomAttributesCache
SUi:_UnityAction_1_BeginInvoke_m3462722079_gshared
Luj:__ZNK15dense_hashtableINSt3__24pairIK10KeyWrapperIP14Il2CppIUnknownEjEES5_N6il2cpp5utils11PointerHashIS3_EEN14dense_hash_mapIS5_jSB_NS5_14EqualsComparerINS0_8equal_toIS4_EEEENS0_9allocatorIS7_EEE9SelectKeyESG_SI_E12test_deletedEj
yLg:_EventInfo_get_MemberType_m3337516651
suc:__Z18Transfer_BlittableI8JSONReadLb1EyEvRK29SerializationCommandArgumentsR31RuntimeSerializationCommandInfo
Mk:_emscripten_glMatrixMode
Rr:__ZN8Animator23VirtualRedirectTransferER18StreamedBinaryReadILb0EE
uSf:__ZL93TypeBuilder_t3308873219_CustomAttributesCacheGenerator_TypeBuilder_GetConstructors_m774120094P21CustomAttributesCache
C3e:_NotSupportedException__ctor_m836173213
ptg:_MethodReturnDictionary__ctor_m756139344
VQ:__ZN11UnityEngine15CloudWebService14DataDispatcher16PrepareDataBlockERNS0_16SessionContainerE
lHa:__ZN18GfxFramebufferGLES5ClearE13GfxClearFlagsRK10ColorRGBAffib
UBe:_List_1_GetIndex_m2513359832_gshared
UDh:_InternalEnumerator_1__ctor_m967618647_gshared
Xdi:__Z62RuntimeInvoker_ParameterModifier_t1820634920_Int32_t2071877448PK10MethodInfoPvPS2_
eQb:__ZL26Transfer_SimpleNativeClassI18StreamedBinaryReadILb0EE10RectOffsetLb0EEvRK29SerializationCommandArgumentsR31RuntimeSerializationCommandInfo
VOc:_UNITY_ft_destroy_default_module_classes
ste:_List_1_CheckMatch_m1772343151_gshared
BVa:__ZL12DepthPassJobPN21GfxDeviceAsyncCommand10ArgScratchEPKNS_3ArgE
lTb:__ZNSt3__26vectorIN9ShaderLab20SerializedSubProgram16TextureParameterENS_9allocatorIS3_EEE6assignINS_11__wrap_iterIPS3_EEEENS_9enable_ifIXaasr21__is_forward_iteratorIT_EE5valuesr16is_constructibleIS3_NS_15iterator_traitsISC_E9referenceEEE5valueEvE4typeESC_SC_
a1e:_IntPtr_Equals_m1214967011_AdjustorThunk
Nze:_List_1_Add_m3591975577_gshared
L1c:__Z55Register_UnityEngine_CanvasGroup_get_ignoreParentGroupsv
Z_b:__Z13RegisterClassI19LowerResBlitTextureEvv
xlg:__ZL100PointerEventData_t1599784723_CustomAttributesCacheGenerator_U3CpointerPressRaycastU3Ek__BackingFieldP21CustomAttributesCache
Qm:FUNCTION_TABLE_iiiiiiiiiiii
Qjb:__ZN16GraphicsSettingsD0Ev
d9a:__Z29StdTemplateConversionFunctionIshEbPvR14SafeBinaryRead
z_j:_pthread_mutex_init__wrapper
I1a:__ZN15LODGroupManager21CalculateLODDataArrayERK13LODParametersPK6Cameraf
n:cttz_i8
jVc:_UNITY_FT_GlyphLoader_Add
ZDh:_InternalEnumerator_1_System_Collections_IEnumerator_get_Current_m1004764375_AdjustorThunk
sbg:__ZL108Physics2D_t2540166467_CustomAttributesCacheGenerator_Physics2D_GetRayIntersectionAll_m253330691____distance1P21CustomAttributesCache
kXe:_DateTimeFormatInfo_get_FullDateTimePattern_m2607507656
Nwf:_HttpsClientStream_RaiseServerCertificateValidation_m3356770426
zOf:__ZL73Il2CppArray_CustomAttributesCacheGenerator_Array_BinarySearch_m3052238307P21CustomAttributesCache
lLd:_DelegateSerializationHolder__ctor_m3915060553
PAb:__ZN15SerializeTraitsINSt3__26vectorIN30RuntimeInitializeOnLoadManager9ClassInfoE13stl_allocatorIS3_L18MemLabelIdentifier12ELi16EEEEE8TransferI24GenerateTypeTreeTransferEEvRS7_RT_
tke:_Array_swap_TisUIVertex_t1204258818_TisUIVertex_t1204258818_m1163375424_gshared
Il:_emscripten_glViewport
AZb:__Z21GenerateTilingAreaJobP22GenerateTilingAreaInfoj
kEj:__ZN6il2cpp6icalls8mscorlib6System15MonoCustomAttrs17IsDefinedInternalEP12Il2CppObjectP20Il2CppReflectionType
Ltb:__ZN4Mesh21UnswizzleVertexColorsEb
S9:__ZN30dense_hashtable_const_iteratorINSt3__24pairIKN4core12basic_stringIcNS2_20StringStorageDefaultIcEEEEP11AssetBundleEES6_20StringHash32FunctionIS6_EN14dense_hash_mapIS6_S9_SC_NS0_8equal_toIS6_EENS0_9allocatorISA_EEE9SelectKeyESF_SH_EppEv
cwf:_TlsServerSettings_set_CertificateTypes_m264196087
iFh:_InternalEnumerator_1__ctor_m4150855019_gshared
nId:_DateTime_ToString_m2276663647_AdjustorThunk
nXc:_cff_parse_font_bbox
scc:__Z35Application_Get_Custom_PropIsEditorv
vB:__GLOBAL__sub_I_runtime_animation2_lump_cpp
Myb:__ZN14PlayerSettings23VirtualRedirectTransferER18StreamedBinaryReadILb0EE
Bne:_KeyValuePair_2__ctor_m3201181706_AdjustorThunk
GMj:__ZN6il2cpp2os5Event5ResetEv
iNe:_ReadOnlyCollection_1_System_Collections_IList_Insert_m1130110335_gshared
bti:_AnimatorControllerPlayable_GetCurrentAnimatorClipInfoCount_m335090574
Mvj:__ZN6il2cpp8metadata15GenericMetadata17InflateParametersEPK13ParameterInfohPK20Il2CppGenericContextb
l0e:_Int64_System_IConvertible_ToUInt32_m850395426_AdjustorThunk
$1:__ZN18AwakeFromLoadQueue28InvokePersistentManagerAwakeEPNS_4ItemEj17AwakeFromLoadMode
C8f:__ZL93MonoBehaviour_t1158329972_CustomAttributesCacheGenerator_MonoBehaviour_IsInvoking_m1469271462P21CustomAttributesCache
Jji:_PCMReaderCallback_Invoke_m3610389815
X9c:_HMACSHA512__ctor_m2390736870
Ru:__ZNK17AnimationPlayable27GetNextCompatibleDescendantEi
ps:__ZN8Animator20ProcessAnimationsJobEPNS_11AnimatorJobEj
Kwb:__ZN4PPtrI6SpriteE8TransferI18StreamedBinaryReadILb0EEEEvRT_
ZHg:_TypeBuilder_GetInterfaces_m1818658502
qyf:_TlsException_get_Alert_m4022765752
cnf:_BigInteger_op_Equality_m2683055762
ANj:_GameController_GetLifePoints_m4174834142
Oaa:__Z25SetNeedToPerformRenderingb
dOg:_MonoMethod_GetPseudoCustomAttributes_m466965107
FEi:__ZN21InterfaceFuncInvoker0IP19LinkRef_t2090853131E6InvokeEjP11Il2CppClassP12Il2CppObject
tZa:__ZNSt3__227__insertion_sort_incompleteIR23CompareReflectionProbesP31RuntimeReflectionProbeBlendInfoEEbT0_S5_T_
QVa:__ZN14qsort_internal30FindAndMovePivotToLastPositionIP15RODataDepthPassi17ROSorterDepthPassEEvT_S4_T0_T1_
Keh:_ResourceRequest_t2560315377_marshal_pinvoke
nfh:_Enumerator_System_Collections_IDictionaryEnumerator_get_Value_m3005608231_gshared
U0i:__ZL24UnresolvedVirtualCall_26P12Il2CppObjectS0_iiPK10MethodInfo
ish:_MaskUtilities_NotifyStencilStateChanged_m1527407683
P1a:__ZN12CullingGroup10SendEventsEPK17CullingGroupEventj
Mgf:_DSAManaged_GenerateKeyPair_m2711647034
P7a:__ZN13sorted_vectorINSt3__24pairIN4core12basic_stringIcNS2_20StringStorageDefaultIcEEEES6_EEN10vector_mapIS6_S6_27compare_tstring_insensitiveIS6_E13stl_allocatorIS7_L18MemLabelIdentifier37ELi16EEE13value_compareESD_E9erase_oneIS6_EEjRKT_
wqb:__ZThn32_NK8Renderer8GetLayerEv
Fee:_Array_InternalArray__ICollection_Add_TisResourceCacheItem_t333236149_m1151081240_gshared
XQe:_ReadOnlyCollection_1_System_Collections_Generic_ICollectionU3CTU3E_get_IsReadOnly_m2197226755_gshared
REd:_Convert_ToInt32_m2209788057
myj:__ZN30dense_hashtable_const_iteratorINSt3__24pairIK10KeyWrapperINS1_IPKcS4_EEEiEES6_24NamespaceAndNamePairHashN14dense_hash_mapIS6_iS9_NS6_14EqualsComparerI26NamespaceAndNamePairEqualsEENS0_9allocatorIS8_EEE9SelectKeyESD_SF_E30advance_past_empty_and_deletedEv
Kwg:_SoapServices_GetXmlTypeForInteropType_m3821579913
Grh:_EqualityComparer_1_System_Collections_IEqualityComparer_Equals_m3601790950_gshared
whg:__ZL117GUIStyle_t1799908754_CustomAttributesCacheGenerator_GUIStyle_INTERNAL_CALL_Internal_GetCursorPixelPosition_m562482816P21CustomAttributesCache
q$j:_emscripten_glTexParameterfv__wrapper
rFi:_CaptureAssertion_IsComplex_m1433259302
nbh:_Physics2D_INTERNAL_CALL_Internal_Raycast_m489831109
yfj:_il2cpp_method_get_param_count
mZb:__ZN10systeminfo19ISOToSystemLanguageERN4core12basic_stringIcNS0_20StringStorageDefaultIcEEEE
hFc:__ZN18StreamedBinaryReadILb0EE21TransferSTLStyleArrayI13dynamic_arrayIS2_I8Vector2fLj4EELj4EEEEvRT_17TransferMetaFlags
jlj:__ZNK15dense_hashtableINSt3__24pairIK10KeyWrapperINS1_IPK12PropertyInfoP11Il2CppClassEEEjEES9_17ReflectionMapHashIS8_EN14dense_hash_mapIS9_jSD_NS9_14EqualsComparerINS0_8equal_toIS8_EEEENS0_9allocatorISB_EEE9SelectKeyESI_SK_E3endEv
xIc:__ZN11Rigidbody2D8TransferI19StreamedBinaryWriteILb0EEEEvRT_
ZMj:__ZN6il2cpp8metadata26Il2CppGenericMethodCompare6EqualsEPK19Il2CppGenericMethodS4_
Lca:__ZNSt3__26vectorIP10MemoryPool13stl_allocatorIS2_L18MemLabelIdentifier72ELi16EEE21__push_back_slow_pathIKS2_EEvRT_
fOi:_TouchScreenKeyboard_get_active_m1442597648
U3f:__ZL68Uri_t19570940_CustomAttributesCacheGenerator_U3CU3Ef__switchU24map15P21CustomAttributesCache
FTc:_ps_dimension_done
mWd:_LayoutRebuilder_MarkLayoutForRebuild_m640589351
PZc:__Z46Register_UnityEngine_TextGenerator_Dispose_cppv
VTd:_PointerEventData_get_pressEventCamera_m724559964
hgd:_String_IndexOfUnchecked_m3356721554
jpb:__ZN16LightmapSettings8TransferI14SafeBinaryReadEEvRT_
zCa:__ZN17BufferManagerGLES13ReleaseBufferEP14DataBufferGLES
xTh:__Z94RuntimeInvoker_Int32_t2071877448_Il2CppObject_Int32_t2071877448_Int32_t2071877448_Il2CppObjectPK10MethodInfoPvPS2_
quc:__Z18Transfer_BlittableI8JSONReadLb1EjEvRK29SerializationCommandArgumentsR31RuntimeSerializationCommandInfo
Ypg:__ZL63ScrollRect_t1199013257_CustomAttributesCacheGenerator_m_InertiaP21CustomAttributesCache
zIi:_PKCS12_Decrypt_m1557069392
bAh:_VertexHelper_AddUIVertexQuad_m280792808
TDf:_WebHeaderCollection_ToString_m1246460752
xFh:_InternalEnumerator_1_System_Collections_IEnumerator_get_Current_m2842514953_AdjustorThunk
Kai:__Z56RuntimeInvoker_Boolean_t3825574718_UriScheme_t1876590943PK10MethodInfoPvPS2_
ip:stackSave
UKi:_X509CrlEntry_get_Extensions_m79989256
$Tc:_ps_dimension_end
Ogc:__Z41Register_UnityEngine_Mesh_Internal_Createv
Hab:__ZN16MemoryFileSystem5TouchER13FileEntryData
iwb:__ZN14SpriteRenderer23VirtualRedirectTransferER24GenerateTypeTreeTransfer
Kvj:__ZNK15dense_hashtableI10KeyWrapperIP18Il2CppGenericClassES3_N6il2cpp8metadata22Il2CppGenericClassHashEN14dense_hash_setIS3_S6_NS3_14EqualsComparerINS5_25Il2CppGenericClassCompareEEENSt3__29allocatorIS3_EEE8IdentityESA_SD_E12test_deletedERK30dense_hashtable_const_iteratorIS3_S3_S6_SF_SA_SD_E
J$i:__ZN6il2cpp2vm5Class14GetNestedTypesEP11Il2CppClassPPv
yad:_MACTripleDES_Initialize_m1318099802
Rpf:_MD5SHA1_VerifySignature_m507888141
psd:_Byte_System_IConvertible_ToChar_m4188836679
UWe:_NumberFormatter_InitDecHexDigits_m2036076025
Sfh:_Enumerator_get_CurrentKey_m3839846791_AdjustorThunk
bvc:__ZN8JSONRead21TransferSTLStyleArrayI13dynamic_arrayIaLj1EEEEvRT_18MemLabelIdentifier17TransferMetaFlags
R3a:__ZN6Camera9SetAspectEf
TYd:_ColorTween_get_ignoreTimeScale_m641454126_AdjustorThunk
xa:invoke_viiffiii
rNe:_ReadOnlyCollection_1_Contains_m1800950533_gshared
Lmg:__ZL79TouchInputModule_t2561058385_CustomAttributesCacheGenerator_m_ForceModuleActiveP21CustomAttributesCache
I0j:_emscripten_glBindVertexArray__wrapper
tpf:_MD4__ctor_m2366413460
Joi:_Display__ctor_m563295973
Chg:__ZL97GUIStyle_t1799908754_CustomAttributesCacheGenerator_GUIStyle_Internal_CalcMinMaxWidth_m3660306863P21CustomAttributesCache
plh:_Dictionary_2_InitArrays_m435313205_gshared
LF:__ZN10ObjectPoolIN4FMOD3DSPENS0_4DSPIEE7GetFreeEi
M4a:__ZN9Transform37InitializeTransformHierarchyRecursiveER18TransformHierarchyRii
m0b:__Z34DefaultPrepareDispatchBoundsUpdateR13RendererScene18MemLabelIdentifier
b0d:_Graphic_get_useLegacyMeshGeneration_m1366444625
Hog:__ZL65InputField_t1631627530_CustomAttributesCacheGenerator_m_InputTypeP21CustomAttributesCache
S1i:__ZL24UnresolvedVirtualCall_78P12Il2CppObjectPK10MethodInfo
$ef:_ModulusRing_Pow_m1137250399
QLh:_InternalEnumerator_1_MoveNext_m2410670600_AdjustorThunk
Pyf:_SslStreamBase_resetBuffer_m3028042362
NRa:__ZN17MeshRenderingData4InitEP4MeshS1_iP15SharedGfxBufferS3_
BUi:_InvokableCall_2_Find_m1763382885_gshared
aQe:_ReadOnlyCollection_1_System_Collections_ICollection_get_SyncRoot_m2779904122_gshared
Tph:_EqualityComparer_1_System_Collections_IEqualityComparer_Equals_m1682986002_gshared
Yyd:_Hashtable__cctor_m2952659675
eIf:_X509ChainStatus__ctor_m3628359961_AdjustorThunk
bie:_Array_InternalArray__set_Item_TisUICharInfo_t3056636800_m1953167516_gshared
xgd:_Evidence_get_HostEvidenceList_m2095478124
Wjc:__Z57Register_UnityEngine_Transform_INTERNAL_set_localPositionv
Wsf:_Context_Clear_m4000337070
fxa:__ZN13GfxDeviceGLES26SetRandomWriteTargetBufferEi15ComputeBufferID
QKf:_IntervalCollection_Normalize_m538796191
yBd:_Console_SetEncodings_m342145566
pOi:_TrackedReference_op_Equality_m3491334086
U$d:_FontUpdateTracker_UntrackText_m3827316510
qeb:__ZN18AssetBundleManager19RegisterAssetBundleEP11AssetBundle
lkj:__ZN6il2cpp2gc19AppendOnlyGCHashMapINSt3__24pairIPK11Il2CppImageP11Il2CppClassEEP22Il2CppReflectionModule17ReflectionMapHashIS9_ENS2_8equal_toIS9_EEE10CopyValuesEPv
nme:_Array_InternalArray__get_Item_TisSingle_t2076509932_m1495809753_gshared
Uhe:_Array_InternalArray__set_Item_TisAnimatorClipInfo_t3905751349_m978873279_gshared
D9b:__ZNK11ICallString6ToUTF8Ev
pFi:_CaptureAssertion_get_Alternate_m2729005740
HFj:_GC_number_stack_black_listed
Yuj:__ZN24dense_hashtable_iteratorINSt3__24pairIK10KeyWrapperIP14Il2CppIUnknownEjEES5_N6il2cpp5utils11PointerHashIS3_EEN14dense_hash_mapIS5_jSB_NS5_14EqualsComparerINS0_8equal_toIS4_EEEENS0_9allocatorIS7_EEE9SelectKeyESG_SI_E30advance_past_empty_and_deletedEv
RVa:__ZNSt3__211__sift_downIR17ROSorterDepthPassP15RODataDepthPassEEvT0_S5_T_NS_15iterator_traitsIS5_E15difference_typeES5_
MEg:_Default_SelectMethod_m3081239996
qha:__ZN18UnityPropertySheet11UnityTexEnvC2Ev
Dbc:__ZNSt3__214__split_bufferIPN9BlobWrite11TypeContextENS_9allocatorIS3_EEE10push_frontERKS3_
Bs:__ZN8Animator17ApplyOnAnimatorIKEiRNS_11AnimatorJobE
e5:__ZN12FileAccessor4ReadEyyPvPy
Sfa:__ZN13dynamic_arrayI16ShaderKeywordSetLj4EE6insertEPS0_PKS0_S4_
eRb:__Z29Transfer_Blittable_ArrayFieldI18StreamedBinaryReadILb0EE11QuaternionfEvRT_R9ArrayInfoRK23StaticTransferFieldInfo
sBi:_MethodDictionary_IsOverridenKey_m3922224650
lAd:_SyncHashtable_Contains_m3042906549
DCe:_List_1_System_Collections_IList_set_Item_m4016273526_gshared
vIf:_X509KeyUsageExtension_CopyFrom_m931530012
q3a:__ZN13RenderTexture9SetHeightEi
Glb:__ZN16LevelGameManager8TransferI24GenerateTypeTreeTransferEEvRT_
fni:_Color32__ctor_m1932627809_AdjustorThunk
Bzf:_SslStreamBase_Read_m1036897444
Yth:_RectMask2D_PerformClipping_m1232012832
Ltj:__ZN6il2cpp6icalls8mscorlib6System2IO6MonoIO17GetFileAttributesEP12Il2CppStringPi
zgh:_Transform_1_Invoke_m4020530914_gshared
lSc:_tt_cmap8_char_index
jYb:__Z14tessMeshDeleteP8TESSmeshP12TESShalfEdge
L_:__Z24scripting_class_get_name17ScriptingClassPtr
Z6:__ZN13RuntimeStaticI15GUIEventManagerLb0EE13StaticDestroyEPv
pEa:__ZN7ApiGLES14TextureSamplerEjj17TextureFilterMode15TextureWrapModeifb18ShadowSamplingModeN2gl17TextureSrgbDecodeE
o5b:__ZN15DirectorManager18ScheduleGraphStartERK14HPlayableGraph
Tgi:_CustomEventData_AddUInt16_m3349298376
_Gb:__Z29Transfer_Blittable_ArrayFieldI14SafeBinaryReadjEvRT_R9ArrayInfoRK23StaticTransferFieldInfo
cli:_Camera_FireOnPostRender_m94860165
tBb:__ZN23PreloadManagerOperationD0Ev
le:_emscripten_set_keydown_callback
Izd:_Enumerator_get_Value_m3684748062
xib:__ZN19StreamedBinaryWriteILb0EE21TransferSTLStyleArrayINSt3__26vectorI17SortingLayerEntryNS2_9allocatorIS4_EEEEEEvRT_17TransferMetaFlags
qYg:_UInt32_Parse_m3371984903
m5:__ZN12FileAccessorC2Ev
z5h:__Z52RuntimeInvoker_Void_t1841601450_ColorU26_t3402129837PK10MethodInfoPvPS2_
cKi:_X509CertificateCollection_Compare_m1014334435
L5a:__ZN9Transform35SetLocalPositionWithoutNotificationERKN4math7_float3E
dDi:_PatternLinkStack_GetCurrent_m2994645935
mjb:__ZN6Camera8TransferI19StreamedBinaryWriteILb0EEEEvRT_
MIc:__ZN23ColliderTilingExtensionC2Ev
Tti:_AnimatorControllerPlayable_PlayInFixedTime_m2629510873
Xzi:_AsyncResult__ctor_m1183194429
sB:__ZN4PPtrI13MonoBehaviourE8TransferI18StreamedBinaryReadILb0EEEEvRT_
uBi:_MethodDictionary_set_Item_m3475146889
nci:__Z54RuntimeInvoker_Void_t1841601450_LabelFixup_t4090909514PK10MethodInfoPvPS2_
xWf:__ZL62WellKnownObjectMode_t2630225581_CustomAttributesCacheGeneratorP21CustomAttributesCache
rAh:_Toggle_PlayEffect_m3950629415
pae:_SetPropertyUtility_SetStruct_TisColorBlock_t2652774230_m2085520896_gshared
kai:__Z69RuntimeInvoker_Void_t1841601450_Int32_t2071877448_Vector3_t2243707580PK10MethodInfoPvPS2_
rEb:__Z39WriteQueueForTransferSignatureIntoCacheRK31TransferFunctionScriptingTraitsRK24TransferRequestSignature17ScriptingClassPtrR23CachedSerializationDataRb
Qna:__ZN13RenderManager18UpdateAllRenderersEv
k5c:__ZN22BaseUnityConnectClient30OnEnteringStatePausedOrStoppedEv
NDc:__ZN10ClipperLib7Clipper18SwapPositionsInAELEPNS_5TEdgeES2_
kKe:_Collection_1_System_Collections_ICollection_get_SyncRoot_m2157752542_gshared
l8i:__ZN13dynamic_arrayIPK10Il2CppTypeLj4EE6assignEPKS2_S5_
Ukj:__ZN15dense_hashtableINSt3__24pairIK10KeyWrapperINS1_IPK12PropertyInfoP11Il2CppClassEEEjEES9_17ReflectionMapHashIS8_EN14dense_hash_mapIS9_jSD_NS9_14EqualsComparerINS0_8equal_toIS8_EEEENS0_9allocatorISB_EEE9SelectKeyESI_SK_E12resize_deltaEjj
Qx:__ZN7mecanim5human12HumanPoseAddERNS0_9HumanPoseERKS1_S4_
Ici:__Z76RuntimeInvoker_Void_t1841601450_Int32_t2071877448_KeyValuePair_2_t3716250094PK10MethodInfoPvPS2_
QUi:_UnityAction_1__ctor_m2836997866_gshared
lii:_Animator_ResetTrigger_m865269317
J_f:__ZL64AssemblyLoadEventArgs_t4233815743_CustomAttributesCacheGeneratorP21CustomAttributesCache
oJe:_Collection_1_IsFixedSize_m218241296_gshared
G5a:__Z24MergeTransformComponentsR9TransformS0_b
Wji:_DelegatePInvokeWrapper_AudioConfigurationChangeHandler_t3743753033
l5e:_MonoIO_get_PathSeparator_m2635828107
Vwg:_TypeInfo_get_TypeName_m1722081275
Fyc:__ZN15b2CircleContactD0Ev
taf:_MonoType_get_Name_m865859211
BPd:_CultureInfo__cctor_m2290268677
RBh:_ArrayReadOnlyList_1_System_Collections_IEnumerable_GetEnumerator_m3039869667_gshared
Ujd:_String_Trim_m3982520224
Svg:_RemotingConfiguration__cctor_m2129988840
FHe:_Collection_1_Insert_m44548038_gshared
iMh:_InternalEnumerator_1_MoveNext_m4175772187_AdjustorThunk
tNf:__ZL42Il2CppArray_CustomAttributesCacheGeneratorP21CustomAttributesCache
mEj:__ZN6il2cpp2vm13ComObjectBase19GetRuntimeClassNameEPP15Il2CppHString__
Sj:_emscripten_glVertexAttribPointer
Yla:__ZN14PreloadManager26UpdatePreloadingSingleStepENS_21UpdatePreloadingFlagsEi
g8g:_Material__ctor_m1440882780
ced:_SHA512Managed_Initialize_m891287980
U4h:__Z82RuntimeInvoker_Boolean_t3825574718_Il2CppObject_TextGenerationSettings_t2543476768PK10MethodInfoPvPS2_
Lgd:_SecurityException__ctor_m1484114982
Bxi:_SinkProviderData_get_Children_m100594762
JKi:_X509Crl_GetHashName_m183504634
cpd:_Array_GetValue_m1507415734
cic:__Z57Register_UnityEngine_RectTransform_INTERNAL_set_anchorMinv
IVe:_Object_MemberwiseClone_m2655589444
vOe:_ReadOnlyCollection_1_System_Collections_IList_get_Item_m375043207_gshared
uja:__ZN6prcoreL25inner_stretch_i8_bilinearEPKNS_9InnerInfoE
rS:__ZN11UnityEngine15CloudWebService13WWWRestClient17GetResponseStatusEv
N2e:_DirectoryInfo_ToString_m4208086799
mOg:_MonoMethod_get_IsGenericMethod_m4276550811
Mgh:_Transform_1_BeginInvoke_m3826027984_gshared
_hi:_AnimationEvent_set_time_m2162176572
pR:__ZN11UnityEngine15CloudWebService16SessionContainer24GetSessionHeaderJsonDataERKN4core12basic_stringIcNS2_20StringStorageDefaultIcEEEERNS2_13StringBuilderE
TDd:_Decimal_op_Implicit_m2149927308
M6:__ZN13RuntimeStaticI21AssetReferenceStorageLb0EE13StaticDestroyEPv
dYg:_UInt16_System_IConvertible_ToUInt32_m1864968312
wAj:__ZN6il2cpp6icalls8mscorlib6System9AppDomain22InternalGetProcessGuidEP12Il2CppString
WUc:_cf2_builder_moveTo
ihf:_KeyPairPersistence_get_UseMachineKeyStore_m560802076
YDe:_Collection_1_CopyTo_m1840908033_gshared
MOh:_Enumerator_System_Collections_IDictionaryEnumerator_get_Entry_m345330700_AdjustorThunk
DYj:_glBindRenderbuffer__wrapper
Kcj:__ZNSt3__214__split_bufferIP9FieldInfoRNS_9allocatorIS2_EEEC2EjjS5_
bQd:_AbstractEventData__ctor_m3586111519
DKb:__Z18Transfer_BlittableI24GenerateTypeTreeTransferLb1EjEvRK29SerializationCommandArgumentsR31RuntimeSerializationCommandInfo
opf:_MD2Managed_Padding_m410163267
Hkj:__ZNK15dense_hashtableINSt3__24pairIK10KeyWrapperINS1_IPK11Il2CppImageP11Il2CppClassEEEjEES9_17ReflectionMapHashIS8_EN14dense_hash_mapIS9_jSD_NS9_14EqualsComparerINS0_8equal_toIS8_EEEENS0_9allocatorISB_EEE9SelectKeyESI_SK_E10test_emptyERK30dense_hashtable_const_iteratorISB_S9_SD_SM_SI_SK_E
MAh:_Toggle_UnityEngine_UI_ICanvasElement_get_transform_m4177274032
alb:__ZN11ColorRGBA328TransferI14SafeBinaryReadEEvRT_
hCb:__ZN24RingBufferMemoryFileData4LockEPPv
yfh:_Enumerator_Dispose_m401572848_AdjustorThunk
hki:_Bounds__ctor_m1202659404_AdjustorThunk
Qf:_emscripten_glClearDepth
xmb:__ZN8Playable12SetPlayStateE9PlayState
mfi:__Z70RuntimeInvoker_Boolean_t3825574718_Il2CppObject_BooleanU26_t3168250738PK10MethodInfoPvPS2_
urb:__ZN14SafeBinaryRead21TransferSTLStyleArrayINSt3__26vectorIN15QualitySettings14QualitySettingENS1_9allocatorIS4_EEEEEEvRT_17TransferMetaFlags
wke:_Array_swap_TisVector2_t2243707579_m3359959735_gshared
a3e:_File_OpenText_m4058508963
Yya:__ZN7ApiGLES13CreateTextureEjN2gl9TexFormatEiiiii
t1h:__Z54RuntimeInvoker_Double_t4078015681_Interval_t2354235237PK10MethodInfoPvPS2_
xyb:__ZNSt3__26vectorINS_4pairIPKN5Unity4TypeE7Hash128EENS_9allocatorIS7_EEE8__appendEj
Wwg:_WellKnownClientTypeEntry__ctor_m670594074
Ung:__ZL61FontData_t2614388407_CustomAttributesCacheGenerator_m_MinSizeP21CustomAttributesCache
lpj:__ZN15dense_hashtableINSt3__24pairIK10KeyWrapperIP11Il2CppClassES4_EES5_N6il2cpp8metadata16SZArrayClassHashEN14dense_hash_mapIS5_S4_SA_NS5_14EqualsComparerINS9_19SZArrayClassCompareEEENS0_9allocatorIS7_EEE9SelectKeyESE_SG_EC2ERKSJ_j
jHd:_DateTime_System_IConvertible_ToSingle_m3927769066_AdjustorThunk
zWc:_cff_font_load
ePi:_Enumerator_Reset_m950879083
Vwf:_RecordProtocol_SendRecord_m2977889250
jcc:__Z13IsPathCreatedRKN4core12basic_stringIcNS_20StringStorageDefaultIcEEEE
ypa:__ZL22stbir__encode_scanlineP11stbir__infoiPvPfiii
NKc:__ZN20QuadTreeNodeRenderer13StaticDestroyEPv
DN:__ZN14AudioBehaviourD2Ev
_$b:__ZN9Transform12CleanupClassEv
gJj:__ZN6il2cpp6icalls8mscorlib6System9Threading16NativeEventCalls19CloseEvent_internalE12Il2CppIntPtr
Nt:__ZN11UnityEngine9Animation33SetGenericTransformPropertyValuesERKNS0_30AnimatorGenericBindingConstantERKN7mecanim10ValueArrayEP9Transformb
Usf:_ClientContext_set_ClientHelloProtocol_m2246603449
iOc:_UNITY_FT_Set_Pixel_Sizes
q6d:_U3CMouseDragOutsideRectU3Ec__Iterator1_MoveNext_m2845491958
ZTb:__ZNSt3__26vectorIN9ShaderLab19SerializedSubShaderENS_9allocatorIS2_EEE26__swap_out_circular_bufferERNS_14__split_bufferIS2_RS4_EE
M4h:__Z87RuntimeInvoker_Void_t1841601450_PlayableHandleU26_t3483893774_QuaternionU26_t4187826802PK10MethodInfoPvPS2_
ike:_Array_swap_TisAnimatorClipInfo_t3905751349_TisAnimatorClipInfo_t3905751349_m1375833338_gshared
Ndj:_AnalyticsTracker_TriggerEvent_m1494303835
dVd:_StandaloneInputModule_IsModuleSupported_m623598506
pqj:__ZN6il2cpp2vmL24thread_cleanup_on_cancelEPv
jVh:__Z31RuntimeInvoker_Byte_t3683104436PK10MethodInfoPvPS2_
bQg:_ResourceReader_Close_m3256966401
_Ag:_SByte_ToString_m4105923225_AdjustorThunk
_gb:_LZ4_compress_generic
_yg:_StreamingContext_t1417235061_marshal_pinvoke_cleanup
FPd:_CultureInfo_ConstructCurrentUICulture_m3363349599
nsb:__ZN13dynamic_arrayI7SubMeshLj4EE18resize_initializedEjRKS0_12ResizePolicy
hrg:__ZL75CanvasScaler_t2574720772_CustomAttributesCacheGenerator_m_FallbackScreenDPIP21CustomAttributesCache
S9e:_MonoType_GetEvent_m4160342003
Ith:_RawImage_set_texture_m2400157626
IZi:_PrimeHelper_ToPrime_m1606935350_gshared
nlb:__Z30ProcessDynamicBatchGeometryJobP25DynamicVBOGeometryJobDataj
Qph:_EqualityComparer_1__ctor_m81618677_gshared
zWa:__ZNSt3__27__sort4IRNS_6__lessI11CulledLightS2_EEPS2_EEjT0_S6_S6_S6_T_
ugj:__ZN6il2cpp2vm14TypeNameParser26ParseArrayModifierOptionalEv
vcf:_MSCompatUnicodeTable_Level3_m260824928
S6d:_LayoutElement_OnEnable_m3478706401
a_:__Z26scripting_object_get_class18ScriptingObjectPtr
dfi:__Z72RuntimeInvoker_DictionaryEntry_t3048875398_Il2CppObject_SByte_t454417549PK10MethodInfoPvPS2_
C$b:__ZNK28MonoBehaviourPropertyBinding15GenerateBindingERKN4core12basic_stringIcNS0_20StringStorageDefaultIcEEEEbRN11UnityEngine9Animation14GenericBindingE
e6g:_GUIStyle_CalcMinMaxWidth_m2027503105
C_e:_Int32_FindExponent_m3187554672
uhf:_KeyPairPersistence_Load_m1355205585
dwh:_ScrollRect_get_horizontalScrollbarVisibility_m4152068235
E$e:_Int32_ToString_m2960866144_AdjustorThunk
eTi:_Predicate_1_Invoke_m3539717340_gshared
$Zi:_HashSet_1_Contains_m3626542335_gshared
Qid:_Single_CompareTo_m2081476257_AdjustorThunk
Vbi:__Z57RuntimeInvoker_Int32_t2071877448_RaycastHit2D_t4063908774PK10MethodInfoPvPS2_
KCj:__ZN6il2cpp6icalls8mscorlib6System11Environment15internalGetHomeEv
ucb:__ZNK5Unity9Component7GetNameEv
Rdi:__Z49RuntimeInvoker_Slot_t2267560602_Int32_t2071877448PK10MethodInfoPvPS2_
ndj:__ZNSt3__214__split_bufferIN6il2cpp6icalls8mscorlib6System12PropertyPairERNS_9allocatorIS5_EEEC2EjjS8_
Fy:__ZN34AnimationStateMachineMixerPlayable7GetTypeEv
Hyg:__ZN21InterfaceFuncInvoker4IP12Il2CppObjectS1_P28SerializationInfo_t22898743028StreamingContext_t1417235061S1_E6InvokeEjP11Il2CppClassS1_S1_S3_S4_S1_
V0f:__ZL58IFormatProvider_t2849799027_CustomAttributesCacheGeneratorP21CustomAttributesCache
vYi:_ObjectPool_1_Get_m3724675538_gshared
j7a:__ZN13ScreenManagerD0Ev
NQa:_UNITY_png_set_error_fn
tAc:__ZNK11b2RopeJoint16GetReactionForceEf
yt:__ZN7mecanim8skeleton26SkeletonPoseComputeGlobalQEPKNS0_8SkeletonEPKNS0_13SkeletonPoseTIN4math4trsXEEEPS7_ii
awc:__ZN8JSONRead21TransferSTLStyleArrayI13dynamic_arrayIfLj4EEEEvRT_18MemLabelIdentifier17TransferMetaFlags
ixe:_List_1_GetEnumerator_m2672519407_gshared
Zs:__ZN9BlobWrite8TransferI22OffsetPtrArrayTransferIiEEEvRT_PKc17TransferMetaFlags
gcf:_ContractionComparer_Compare_m314873025
mFj:__ZN6il2cpp6icalls8mscorlib6System7Runtime15InteropServices8GCHandle15GetTargetHandleEP12Il2CppObjectii
hJb:__Z18Transfer_BlittableI17RemapPPtrTransferLb1EjEvRK29SerializationCommandArgumentsR31RuntimeSerializationCommandInfo
S6g:_GUIUtility_EndGUIFromException_m2091524531
W$e:_Int64_System_IConvertible_ToDouble_m638786774
iK:__ZN4FMOD6System7releaseEv
Mzd:_HashKeys_get_IsSynchronized_m4207641174
cMb:__Z18Transfer_BlittableI19StreamedBinaryWriteILb0EELb1E8BitFieldEvRK29SerializationCommandArgumentsR31RuntimeSerializationCommandInfo
Q4:__Z18PathToAbsolutePathRKN4core12basic_stringIcNS_20StringStorageDefaultIcEEEE
woe:_Enumerator_MoveNext_m3078170540_AdjustorThunk
Ged:_SymmetricAlgorithm_get_Padding_m718051685
Fqb:__ZNK8Renderer26GetTypeInfoVirtualInternalEv
PHc:__ZThn160_N17PolygonCollider2D5ResetEv
$mi:_Color_Lerp_m3323752807
Igc:__Z22Mesh_CUSTOM_HasChannelP12Il2CppObject30InternalScriptingShaderChannel
z5b:__ZN15DirectorManager17AcquireOutputNodeEv
ACb:__ZN10MonoScript23VirtualRedirectTransferER17RemapPPtrTransfer
Sw:__ZN8Playable11SetDurationEd
W_f:__ZL76Convert_t2607082565_CustomAttributesCacheGenerator_Convert_ToChar_m541258017P21CustomAttributesCache
oGa:__ZN16GeometryJobTasks20ScheduleGeometryJobsER9GfxDevicePFvP15GeometryJobDataEPK22GeometryJobInstructionjb
K5g:_GUIUtility_Internal_GetHotControl_m2510727642
jI:__ZN12AudioManager29ShutdownReinitializeAndReloadEv
jIi:_NetscapeCertTypeExtension_Decode_m2210025005
aeh:_RectTransform_GetLocalCorners_m1836626405
dxg:_BaseFixupRecord_DoFixup_m1821597450
K_i:__ZN15dense_hashtableINSt3__24pairIK10KeyWrapperIPK22Il2CppGenericParameterEP11Il2CppClassEES6_N6il2cpp5utils11PointerHashIS4_EEN14dense_hash_mapIS6_S9_SE_NS6_14EqualsComparerINS0_8equal_toIS5_EEEENS0_9allocatorISA_EEE9SelectKeyESJ_SL_E6insertERKSA_
e3e:_FileLoadException__ctor_m1356374414
Zrf:_TlsStream_Reset_m1504601050
rre:__ZN23InterfaceActionInvoker2IP23Int32U5BU5D_t3030399641iE6InvokeEjP11Il2CppClassP12Il2CppObjectS1_i
Hza:__ZN14DataBufferGLES16RecreateWithDataEjPKv
Ibc:__Z29GetGlobalAllowNameConversionsv
E6a:__ZN8Material8SetColorEN9ShaderLab16FastPropertyNameERK10ColorRGBAf
wMg:_Module_GetCustomAttributes_m3581287913
OOf:__ZL67Type_t_CustomAttributesCacheGenerator_Type_IsSubclassOf_m2450899481P21CustomAttributesCache
bM:__ZN11AudioSource23VirtualRedirectTransferER18StreamedBinaryReadILb0EE
vd:___syscall91
R6:__ZN21AssetReferenceStorageC2Ev
FMb:__ZN10RectOffset8TransferI19StreamedBinaryWriteILb0EEEEvRT_
sLc:__ZNSt3__26vectorIN4core12basic_stringIcNS1_20StringStorageDefaultIcEEEE13stl_allocatorIS5_L18MemLabelIdentifier34ELi16EEEC2INS_11__wrap_iterIPS5_EEEET_SE_RKS8_PNS_9enable_ifIXaasr21__is_forward_iteratorISE_EE5valuesr16is_constructibleIS5_NS_15iterator_traitsISE_E9referenceEEE5valueEvE4typeE
P_:__ZL41AssemblyNameMatchesWithOrWithoutExtensionPKcS0_
HEc:__ZN23ColliderTilingExtension5ResetEv
gji:_AssemblyIsEditorAssembly__ctor_m2639706522
YDa:__ZN14GfxContextGLES43AddRenderSurfaceToDeferredFBOInvalidateListEPK17RenderSurfaceGLES
nrj:__ZN6il2cpp6icalls8mscorlib6System9Threading6Thread15Thread_internalEP12Il2CppThreadP14Il2CppDelegate
afa:__ZN11NamedObject23VirtualRedirectTransferER14SafeBinaryRead
YNc:__ZNSt3__26vectorIN20TextRenderingPrivate8FontImpl13CharacterInfoE13stl_allocatorIS3_L18MemLabelIdentifier1ELi16EEE6insertENS_11__wrap_iterIPKS3_EERS9_
gma:__ZN23PreloadManagerOperation6IsDoneEv
i9f:__ZL102DataUtility_t4181890362_CustomAttributesCacheGenerator_DataUtility_INTERNAL_CALL_GetOuterUV_m121019172P21CustomAttributesCache
Zbj:__ZN6il2cpp2vm7Runtime15InvokeWithThrowEPK10MethodInfoPvPS5_
$kf:_X509Certificate_get_RawData_m3000055075
o$i:__ZNSt3__26vectorIPK10Il2CppTypeNS_9allocatorIS3_EEE21__push_back_slow_pathIRKS3_EEvOT_
g6b:__Z33GetHasChangedDeprecatedSystemMaskv
Ozj:__ZN6il2cpp5utils11StringUtils11Utf16ToUtf8ERKNSt3__212basic_stringIDsNS2_11char_traitsIDsEENS2_9allocatorIDsEEEE
t2e:_MonoIO_GetException_m2577367044
APh:_Enumerator_VerifyState_m1165543189_AdjustorThunk
RHd:_DateTime_AddSeconds_m722082155_AdjustorThunk
Zwd:_SynchronizedArrayListWrapper_CopyTo_m956887031
R8i:__ZNSt3__213__lower_boundIRN6il2cpp5utils11collections13ArrayValueMapIPK10Il2CppType17Il2CppInteropData26InteropDataToTypeConverterNS1_8metadata14Il2CppTypeLessENSA_26Il2CppTypeEqualityComparerEE22LowerBoundFindComparerEPKS8_S7_EET0_SI_SI_RKT1_T_
oNh:_Comparer_1__ctor_m1202126643_gshared
Eag:__ZL92Transform_t3275118058_CustomAttributesCacheGenerator_Transform_get_parentInternal_m927919099P21CustomAttributesCache
vqa:__ZN21LightProbeProxyVolume18HasHardwareSupportEv
HFc:__ZNK20b2SeparationFunction17FindMinSeparationEPiS0_f
pja:__ZN6prcoreL31inner_stretch_argb8888_bilinearEPKNS_9InnerInfoE
KNb:__Z18Transfer_BlittableI18StreamedBinaryReadILb1EELb1E8BitFieldEvRK29SerializationCommandArgumentsR31RuntimeSerializationCommandInfo
BQc:_UNITY_FT_Outline_Decompose
evf:_TlsClientCertificate_get_ClientCertificate_m3062440489
ngd:_StrongNamePublicKeyBlob_ToString_m3721281223
Ljg:__ZL80UnityEvent_t408735097_CustomAttributesCacheGenerator_UnityEvent__ctor_m588741179P21CustomAttributesCache
PEh:_InternalEnumerator_1_get_Current_m198513457_AdjustorThunk
LIh:_InternalEnumerator_1__ctor_m1240086835_AdjustorThunk
lUa:__Z20scripting_object_new17ScriptingClassPtr
fS:__ZN11UnityEngine15CloudWebService10RestClientINS0_16WWWRestHeaderMapEED2Ev
qec:__Z31Display_CUSTOM_GetSystemExtImpl13Il2Cpp_IntPtrPiS0_
Ekc:__Z58Register_UnityEngine_Object_Internal_CloneSingleWithParentv
Uij:__ZN24dense_hashtable_iteratorINSt3__24pairIK10KeyWrapperINS1_IPK9FieldInfoP11Il2CppClassEEEjEES9_17ReflectionMapHashIS8_EN14dense_hash_mapIS9_jSD_NS9_14EqualsComparerINS0_8equal_toIS8_EEEENS0_9allocatorISB_EEE9SelectKeyESI_SK_E30advance_past_empty_and_deletedEv
qE:__Z75AnimatorControllerPlayable_CUSTOM_INTERNAL_CALL_GetAnimatorClipInfoInternalP12Il2CppObjectR9HPlayableihS0_
Ysc:__ZN9JSONWrite8TransferI13dynamic_arrayI8BitFieldLj4EEEEvRT_PKc17TransferMetaFlags
P_a:__ZN18ShadowMapJobHeaderD0Ev
h0d:_Graphic_OnRectTransformDimensionsChange_m1610753363
QFd:_Convert_ToUInt16_m3265369225
P:Math_exp
x9e:_MonoEnumInfo_get_Cache_m3551569711
Ko:FUNCTION_TABLE_iiifi
Hzj:__ZN6il2cpp2os5posix13PosixAutoLockD2Ev
a9d:_Array_InternalArray__ICollection_Contains_TisVector3_t2243707580_m3625701788_gshared
Esa:__ZNSt3__26vectorINS_4pairIyP17VertexDeclarationEENS_9allocatorIS4_EEE6insertENS_11__wrap_iterIPKS4_EERS9_
qzi:__ZN21InterfaceFuncInvoker0IP6Type_tE6InvokeEjP11Il2CppClassP12Il2CppObject
JUc:_cff_get_advances
t4a:__ZN13MonoBehaviour9SetScriptERK4PPtrI10MonoScriptE18ScriptingObjectPtr
hQc:_UNITY_FT_Create_Class_sfnt_module_class
cAh:_Text_CalculateLayoutInputHorizontal_m1578553982
V9f:__ZL87Object_t1021602117_CustomAttributesCacheGenerator_Object_DestroyObject_m282495858____t1P21CustomAttributesCache
Duj:__ZNSt3__218uninitialized_copyIPNS_4pairIK10KeyWrapperIP14Il2CppIUnknownEjEES8_EET0_T_SA_S9_
Eri:_AnimatorControllerPlayable_SetFloatString_m3937146789
jKd:_Decimal_IsZero_m3557909184_AdjustorThunk
Dud:_Char_ToString_m1401375624
Had:_MD5CryptoServiceProvider__cctor_m3309191799
MX:__ZNK10FileSystem16LastErrorMessageEv
rFj:__ZNK6il2cpp8metadata14Il2CppTypeLessclEPK10Il2CppTypeS4_
b_h:__Z51RuntimeInvoker_UInt32_t2149682021_Int16_t4041245914PK10MethodInfoPvPS2_
mKf:_InterpreterFactory_get_NamesMapping_m3186583301
Sxi:_ConfigHandler_ReadCustomProviderData_m784203316
M7f:__ZL87Input_t1785128008_CustomAttributesCacheGenerator_Input_get_compositionString_m636835668P21CustomAttributesCache
hqe:_Enumerator_System_Collections_IEnumerator_Reset_m3052395060_gshared
m9c:__ZN22UnityWebRequestManager10InitializeEv
HGe:_Collection_1_System_Collections_ICollection_get_SyncRoot_m1997144145_gshared
xnf:_Kernel_DwordDivMod_m3728402123
$Cb:__ZN13MonoBehaviour13AwakeFromLoadE17AwakeFromLoadMode
p1c:__ZZN2UI14CanvasRenderer15InitializeClassEvEN38FunctorImpl_810kCanvasHierarchyChanged4CallEPviR11MessageData
bJb:__ZL26Transfer_SimpleNativeClassI17RemapPPtrTransfer8GradientLb1EEvRK29SerializationCommandArgumentsR31RuntimeSerializationCommandInfo
u6b:__ZN12CachedWriter9InitWriteER15CacheWriterBase
a5b:__Z21UnsignedInt64ToStringy
URg:_UTF7Decoder__ctor_m549434986
Wbh:_Quaternion_ToString_m2638853272
dLh:_InternalEnumerator_1_get_Current_m1025321669_AdjustorThunk
zah:_Object_t1021602117_marshal_pinvoke
ehc:__Z36MonoBehaviour_CUSTOM_InvokeRepeatingP12Il2CppObjectP12Il2CppStringff
fkc:__Z66Register_UnityEngine_Transform_INTERNAL_CALL_InverseTransformPointv
lGh:_InternalEnumerator_1_MoveNext_m2720582493_gshared
TKi:_X509CrlEntry_get_RevocationDate_m1257876856
SKi:_X509Crl_VerifySignature_m1390212587
gJf:_Group__ctor_m4103922028
cRa:__ZN6Camera26ClearIntermediateRenderersEj
sbj:__ZNSt3__214__split_bufferI6pollfdRNS_9allocatorIS1_EEEC2EjjS4_
oQa:_UNITY_png_write_pCAL
r0j:_glLinkProgram__wrapper
Wja:__ZN6prcoreL12RemapGenericI17TexFormatARGB888815TexFormatBGR888EEvPKNS_9InnerInfoE
Nad:_MD5CryptoServiceProvider_ProcessFinalBlock_m1052610785
sE:__Z79AnimatorControllerPlayable_CUSTOM_INTERNAL_CALL_GetNextAnimatorClipInfoInternalR9HPlayablei
nxd:_BitArray_Set_m2878881714
f4i:__ZL25UnresolvedVirtualCall_201P12Il2CppObjectPK10MethodInfo
EKe:_Collection_1_get_Item_m4215988522_gshared
kZe:_Guid_CompareTo_m2203922782_AdjustorThunk
uxh:_Selectable_get_colors_m3501193396
kvj:__ZN6il2cpp6icalls8mscorlib6System13Globalization11CultureInfo35construct_internal_locale_from_nameEP17Il2CppCultureInfoP12Il2CppString
LRh:__Z58RuntimeInvoker_Il2CppObject_Int32_t2071877448_Il2CppObjectPK10MethodInfoPvPS2_
PKb:__ZL22Transfer_ManagedObjectI24GenerateTypeTreeTransferLb1EEvRK29SerializationCommandArgumentsR31RuntimeSerializationCommandInfo
oag:__ZL72SceneManager_t90660965_CustomAttributesCacheGenerator_activeSceneChangedP21CustomAttributesCache
$Tf:__ZL55COMException_t1790481504_CustomAttributesCacheGeneratorP21CustomAttributesCache
Rff:_ASN1_get_Count_m404940548
lzi:_ContextAttribute_Equals_m53324298
Hli:_Canvas_ForceUpdateCanvases_m2446828475
$j:_emscripten_set_main_loop_timing
rec:__Z34Display_CUSTOM_GetRenderingExtImpl13Il2Cpp_IntPtrPiS0_
J$g:_WeakReference_AllocateHandle_m1783929473
Cza:__ZN14DataBufferGLES12RecordRenderEv
Y5a:__ZN14ImageReference10FlipImageYEv
Foi:_DebugLogHandler_LogFormat_m177245518
gjb:__Z32TransferEnumWithNameForceIntSizeI14SafeBinaryRead13TargetEyeMaskEvRT_RT0_PKc17TransferMetaFlags
Nmc:__Z14GetDefaultSkini
HPd:_CultureInfo_get_Name_m3316229893
HHd:_DateTime_get_Ticks_m310281298_AdjustorThunk
IF:__ZN4FMOD3DSP9setBypassEb
LLe:_Collection_1_System_Collections_IList_get_Item_m287847793_gshared
Xab:__Z19NormalizeWheelInputf
UIf:_CaptureCollection_CopyTo_m1982767892
e9a:__Z29StdTemplateConversionFunctionIsaEbPvR14SafeBinaryRead
i9d:_Array_InternalArray__ICollection_Remove_TisLink_t865133271_m1984184141_gshared
bwc:__Z29Transfer_Blittable_ArrayFieldI8JSONReadhEvRT_R9ArrayInfoRK23StaticTransferFieldInfo
z7d:_LayoutRebuilder_IsDestroyed_m3442208294
G9b:__ZN11MonoManager25GetImageFromAssemblyIndexEi
qMj:__ZN6il2cpp2os20ThreadLocalValueImpl8SetValueEPv
ARa:__ZN22RenderingCommandBuffer20CleanupCommandBufferEv
YNa:__ZZ23InitPlayerLoopCallbacksvEN43PostLateUpdateClearImmediateRenderersstruct7ForwardEv
Hrc:__Z18Transfer_BlittableI9JSONWriteLb1EtEvRK29SerializationCommandArgumentsR31RuntimeSerializationCommandInfo
f3e:_FileLoadException__ctor_m918124939
rk:___syscall85
sTa:__ZNSt3__26__sortIRPFbP10GUIElementS2_EPS2_EEvT0_S7_T_
eof:_SequentialSearchPrimeGeneratorBase_GenerateSearchBase_m2930465198
N3b:__ZN16GraphicsSettings12CleanupClassEv
$L:__ZNK11AudioSource26GetTypeInfoVirtualInternalEv
d$i:__ZN6il2cpp2vmL21SetupInterfacesLockedEP11Il2CppClassRKNS_2os12FastAutoLockE
VEb:__ZN11MonoManager23VirtualRedirectTransferER24GenerateTypeTreeTransfer
rA:__ZN23AnimationPlayableOutput17SetSourcePlayableEP8Playable
IIf:_Capture__ctor_m885749277
h5g:_GUIStyle_set_clipOffset_m3871613343
r3d:_SubmitEvent__ctor_m222860306
Yi:_emscripten_glUniformMatrix4fv
lR:__ZN11UnityEngine15CloudWebService14DataDispatcher15SetupWebRequestEv
zYh:__Z94RuntimeInvoker_Int32_t2071877448_Il2CppObject_Int32_t2071877448_Il2CppObject_Int32_t2071877448PK10MethodInfoPvPS2_
p7e:_TextWriter__cctor_m4047845042
qxf:_ReceiveRecordAsyncResult_get_Record_m1336421357
i6c:__ZN11UnityEngine15PlatformWrapper13GetShaderCapsEv
U$a:__ZNSt3__211__sift_downIR26RenderDeferredObjectSorterP16RenderObjectDataEEvT0_S5_T_NS_15iterator_traitsIS5_E15difference_typeES5_
T_f:__ZL76Convert_t2607082565_CustomAttributesCacheGenerator_Convert_ToByte_m509311047P21CustomAttributesCache
L3d:_InputField_CaretBlink_m3960486606
bk:_emscripten_glGetProgramiv
Uhf:_SmallXmlParser_ReadCharacters_m1966365555
$yf:_InternalAsyncResult_get_CompletedWithError_m3993955322
w4b:__ZN21FixedBehaviourManager6UpdateEv
Xbc:__ZN9Transform9SetParentEPS_NS_15SetParentOptionE
OOe:_ReadOnlyCollection_1_System_Collections_IList_Add_m527174473_gshared
f0:__ZN19ShaderPropertySheet8SetFloatEN9ShaderLab16FastPropertyNameEfNS_8SetFlagsE
Iog:__ZL68InputField_t1631627530_CustomAttributesCacheGenerator_m_AsteriskCharP21CustomAttributesCache
sna:__ZN19RuntimeSceneManager24BeginIntegrateMainThreadEP10UnityScene
Q1h:__Z42RuntimeInvoker_RuntimePlatform_t1869584967PK10MethodInfoPvPS2_
_$h:__Z80RuntimeInvoker_Void_t1841601450_Il2CppObject_Int32_t2071877448_Int16_t4041245914PK10MethodInfoPvPS2_
dCj:__ZNSt3__2plIcNS_11char_traitsIcEENS_9allocatorIcEEEENS_12basic_stringIT_T0_T1_EERKS9_S6_
TWh:__Z53RuntimeInvoker_MonoEventInfo_t2190036573_Il2CppObjectPK10MethodInfoPvPS2_
g8e:_LocalDataStoreSlot__cctor_m1192669356
FTb:__ZN9ShaderLab20SerializedSubProgramaSERKS0_
OSj:_roundf
Eld:_String_CreateString_m2556700934
vib:__ZN18StreamedBinaryReadILb0EE21TransferSTLStyleArrayINSt3__26vectorI17SortingLayerEntryNS2_9allocatorIS4_EEEEEEvRT_17TransferMetaFlags
Axh:_Selectable_get_targetGraphic_m137842753
_r:__ZN8Animator15SetPrepareStageEv
Pyh:_Slider_get_axis_m162140813
lNg:_MonoEventInfo_t2190036573_marshal_pinvoke
e$i:__ZN6il2cpp2vmL24SetupTypeHierarchyLockedEP11Il2CppClassRKNS_2os12FastAutoLockE
cbb:__ZL11TextHandleriPK23EmscriptenKeyboardEventPv
dZa:__Z20CalculateLightMatrixRK15SharedLightDataP10Matrix4x4f
lxh:_ScrollRect_SetLayoutHorizontal_m3486408020
wNc:_destroy_face
qZi:_GenericEqualityComparer_1_GetHashCode_m116190842_gshared
hri:_AnimationOffsetPlayable_INTERNAL_CALL_GetPosition_m602003518
MRf:__ZL55StreamWriter_t3858580635_CustomAttributesCacheGeneratorP21CustomAttributesCache
jKc:__ZN5physx19PxAllocatorCallbackD2Ev
eNa:__ZN24dense_hashtable_iteratorINSt3__24pairIKN4core12basic_stringIcNS2_20StringStorageDefaultIcEEEEP20ArchiveStorageReaderEES6_20StringHash32FunctionIS6_EN14dense_hash_mapIS6_S9_SC_NS0_8equal_toIS6_EE13stl_allocatorISA_L18MemLabelIdentifier54ELi16EEE9SelectKeyESF_SI_EC2EPK15dense_hashtableISA_S6_SC_SK_SF_SI_EPSA_SQ_b
zJj:__ZN6il2cpp6icalls8mscorlib6System8Security12Cryptography24RNGCryptoServiceProvider13RngInitializeEP11Il2CppArray
EAe:_List_1_System_Collections_ICollection_get_IsSynchronized_m227393674_gshared
KCf:_IPAddress__cctor_m3624830012
kM:__ZN20SoundChannelInstance7setMuteEb
jmb:__ZN4PPtrI5LightE8TransferI19StreamedBinaryWriteILb0EEEEvRT_
Vbg:__ZL115AnimatorStateInfo_t2577870592_CustomAttributesCacheGenerator_AnimatorStateInfo_t2577870592____nameHash_PropertyInfoP21CustomAttributesCache
CEf:_AsnEncodedData_EnhancedKeyUsageExtension_m1452131166
FOb:__Z19TransferField_ArrayI18StreamedBinaryReadILb1EE27Converter_SimpleNativeClassI17AnimationCurveTplIfEEEvRK23StaticTransferFieldInfoR31RuntimeSerializationCommandInfoRT0_
KIc:__ZN7b2World18SetContactListenerEP17b2ContactListener
nJf:_GroupCollection_get_IsSynchronized_m1100663675
kAa:__ZN18GfxFramebufferGLES22MakeCurrentFramebufferENS_7BuiltinE
rJj:__ZN6il2cpp2vm12MarshalAlloc4FreeEPv
OJf:_Interpreter_Close_m1500459069
I2i:__ZL25UnresolvedVirtualCall_122P12Il2CppObject32ScriptableRenderContext_t4271526S0_PK10MethodInfo
vk:_JS_SystemInfo_GetWidth
Spa:__ZN12CachedReader4ReadEPvj
idg:__ZL113AnimatorControllerPlayable_t4078305555_CustomAttributesCacheGenerator_AnimatorControllerPlayable_Play_m3114724599P21CustomAttributesCache
dVc:_cf2_blues_init
TEh:_InternalEnumerator_1_System_Collections_IEnumerator_get_Current_m3600601141_gshared
sdd:_SHA1Internal_HashFinal_m3188468925
uQi:_Vector3_op_Inequality_m799191452
iud:_Char_GetHashCode_m2343577184
vYa:__Z24CalculateLightShadowFadeRK6CamerafffR8Vector4f
E1:__ZN19RuntimeSceneManagerD2Ev
U1f:__ZL55HeaderHandler_t324204131_CustomAttributesCacheGeneratorP21CustomAttributesCache
Ywi:_ChannelData_get_CustomProperties_m1470957369
oja:__ZN6prcore17GetIntegerBlitterE13TextureFormatS0_N14ImageReference8BlitModeE
Xki:_Camera_INTERNAL_CALL_ScreenPointToRay_m2752248646
hkj:__ZN6il2cpp2gc19AppendOnlyGCHashMapINSt3__24pairIPK11Il2CppImageP11Il2CppClassEEP22Il2CppReflectionModule17ReflectionMapHashIS9_ENS2_8equal_toIS9_EEE11TryGetValueERKS9_PSB_
wfh:_Enumerator_VerifyState_m3173176371_AdjustorThunk
OBf:_TypeConverterAttribute__cctor_m506796812
snd:_Encoding_get_IsReadOnly_m3729101432
Hbc:__ZN9BlobWrite14ReduceCopyImplERK14ReduceCopyDataj
d$g:_ValueType_t3507792607_marshal_pinvoke_back
uNh:_Comparer_1_System_Collections_IComparer_Compare_m1790257529_gshared
Ofi:__Z37RuntimeInvoker_Enumerator_t3220004478PK10MethodInfoPvPS2_
pMg:_MethodInfo_get_ContainsGenericParameters_m572340060
LAc:__ZNK12b2WheelJoint10GetAnchorAEv
uXj:_glShaderSource__wrapper
EKa:__ZN25MultiBlocksMemoryFileData17AdjustBlocksCountEj
Trj:__ZNSt3__214__split_bufferIN6il2cpp2vm22EmbeddedResourceRecordERNS_9allocatorIS3_EEED2Ev
$sf:_TlsClientHello__ctor_m1699671541
d3b:__ZZN12MeshRenderer15InitializeClassEvEN29FunctorImpl_134kDidModifyMesh4CallEPviR11MessageData
BLc:__ZN13TextRendering4Font8TransferI24GenerateTypeTreeTransferEEvRT_
Gyi:_Context_NotifyGlobalDynamicSinks_m2916447645
lNa:__ZN23ManagedAttributeManager15InitializeClassEv
gec:__Z27CullingGroup_CUSTOM_DisposeP12Il2CppObject
Ybh:_Random_Range_m2884721203
grj:__ZN6il2cpp6icalls8mscorlib6SystemL23CheckWideningConversionEjjj
XRa:__ZN13ComputeShader15SetTextureParamEjRKN9ShaderLab16FastPropertyNameE9TextureID16TextureDimension
eyh:_Shadow_set_effectDistance_m1951993364
e2g:_GUILayoutEntry_ApplyStyleSettings_m371609721
xlh:_Dictionary_2_ContainsKey_m416495915_gshared
dJe:_Collection_1_Remove_m1798559666_gshared
Bm:_glStencilMask
yBj:__ZN6il2cpp2os10ThreadImpl16GetCurrentThreadEv
Ntf:_TlsServerHelloDone__ctor_m2125611008
Uyd:_Hashtable__ctor_m2337481811
bfh:_Enumerator_System_Collections_IEnumerator_get_Current_m2010873149_gshared
c_d:_Resources_t2975512894_marshal_pinvoke_cleanup
$hi:_AnimationEvent_get_messageOptions_m3547411650
TOf:__ZL88Type_t_CustomAttributesCacheGenerator_Type_MakeGenericType_m2765875033____typeArguments0P21CustomAttributesCache
Iqg:__ZL74SpriteState_t1353336012_CustomAttributesCacheGenerator_m_HighlightedSpriteP21CustomAttributesCache
zvg:_RealProxy__ctor_m2505535530
UGj:_GC_push_conditional_with_exclusions
aZg:_UInt32_System_IConvertible_ToUInt16_m2798641702_AdjustorThunk
Axg:_BinaryFormatter_get_DefaultSurrogateSelector_m219714691
Yx:__ZN21AnimationPosePlayableD0Ev
v9f:__ZL76Time_t31991979_CustomAttributesCacheGenerator_Time_get_deltaTime_m2233168104P21CustomAttributesCache
F7:__ZN15dense_hashtableINSt3__24pairIKiiEEi21InstanceIDHashFunctorN14dense_hash_mapIiiS4_NS0_8equal_toIiEE13stl_allocatorIS3_L18MemLabelIdentifier65ELi16EEE9SelectKeyES7_SA_E9copy_fromERKSD_j
JLe:_Collection_1_System_Collections_IList_get_IsFixedSize_m3252091801_gshared
Cai:__Z57RuntimeInvoker_Boolean_t3825574718_LabelFixup_t4090909514PK10MethodInfoPvPS2_
nZd:_FloatTween_get_ignoreTimeScale_m4161298485_AdjustorThunk
ROg:_MonoProperty_GetOptionalCustomModifiers_m3827844355
Vih:_ValueCollection_System_Collections_ICollection_get_IsSynchronized_m45572582_gshared
Xxi:__ZN21InterfaceFuncInvoker1IP8String_tS1_E6InvokeEjP11Il2CppClassP12Il2CppObjectS1_
bdf:_SimpleCollator_GetSortKey_m2188419329
Arg:__ZL56LayoutElement_t2808691390_CustomAttributesCacheGeneratorP21CustomAttributesCache
Euh:_Scrollbar_Set_m244028386
Qhc:__Z33Register_UnityEngine_Random_Rangev
ykc:__Z27Object_CUSTOM_DestroyObjectP12Il2CppObjectf
omb:__ZN14RenderSettings27UpdateIndirectSpecularColorEv
hzb:__ZN14PlayerSettings8TransferI18StreamedBinaryReadILb0EEEEvRT_
Vcj:__ZN6il2cpp6icalls8mscorlib6System8MonoType16GetMethodsByNameEP20Il2CppReflectionTypeP12Il2CppStringibS5_
Jvi:_GCHandle__ctor_m2952050298
Ble:_LayoutGroup_SetProperty_TisAxis_t1431825778_m2174054513_gshared
Qqb:__ZN4PPtrI10GameObjectE8TransferI14SafeBinaryReadEEvRT_
msh:_Mask_IsRaycastLocationValid_m62488857
E$:__ZN17DirectorFrameTime10SampleTimeEfff
Jsa:__ZNSt3__27__sort3IRNS_4lessIN22BuiltinResourceManager8ResourceEEEPS3_EEjT0_S7_S7_T_
IMh:_DefaultComparer_Compare_m3472472212_gshared
F3e:_MonoIO_GetLength_m2812344043
NTc:_ps_hints_t2mask
Bkg:__ZL68UsedByNativeCodeAttribute_t3212052468_CustomAttributesCacheGeneratorP21CustomAttributesCache
jF:__Z110Register_UnityEngine_Experimental_Director_AnimatorControllerPlayable_INTERNAL_CALL_GetParametersArrayInternalv
Xub:__ZN10BlendShape8TransferI19StreamedBinaryWriteILb0EEEEvRT_
t4i:__ZL25UnresolvedVirtualCall_215P12Il2CppObject40CustomAttributeTypedArgument_t1498197914PK10MethodInfo
kui:_PlayableHandle_INTERNAL_CALL_IsValidInternal_m2792360706
_Oi:_Transform_IsChildOf_m10844547
mG:__Z32TransferEnumWithNameForceIntSizeI14SafeBinaryReadN10SampleClip8LoadTypeEEvRT_RT0_PKc17TransferMetaFlags
Z0e:__Z21il2cpp_codegen_sizeofP11Il2CppClass
lba:__Z19GetTimeSinceStartupv
Yhd:_SecurityFrame_get_Assembly_m2816566490
oBj:__ZN6il2cpp2os10ThreadImpl11SetPriorityENS0_14ThreadPriorityE
cZc:_TT_Load_Composite_Glyph
M4i:__ZL25UnresolvedVirtualCall_234P12Il2CppObjecti19Vector3_t2243707580PK10MethodInfo
dRi:_NetFxCoreExtensions_CreateDelegate_m2492743074
wQh:__Z51RuntimeInvoker_Boolean_t3825574718_Int64_t909078037PK10MethodInfoPvPS2_
Dpd:_Array_Sort_m2994254654
nCe:_List_1__ctor_m593058937_gshared
rbe:_Array_InternalArray__IEnumerable_GetEnumerator_TisColor32_t874517518_m2198639025_gshared
RWa:__ZN29RenderNodeQueuePrepareContextC2Ev
XN:__ZN10SampleClipC2E18MemLabelIdentifier18ObjectCreationMode
DUb:__ZN9ShaderLab20SerializedSubProgram16TextureParameter8TransferI24GenerateTypeTreeTransferEEvRT_
OTg:_Thread_set_Name_m1343706609
cLj:__ZN6il2cpp2os11MutexHandle4WaitEj
Cac:__ZL34GetComponentsImplementationRecurseILb1ELi1ELi1EEbR10GameObjectbRK17CompareParametersRK39GetComponentsImplementation_ReturnValue
bLj:__ZN6il2cpp2os11MutexHandle4WaitEv
Zud:_ArrayList_set_Capacity_m592558035
dla:__ZN6prcoreL17RemapGenericFloatI15TexFormatRGHalf18TexFormatARGBFloatEEvPKNS_9InnerInfoE
p9e:_MonoEnumInfo_t2335995564_marshal_pinvoke_cleanup
hda:__ZNK13RenderTexture13GetDataHeightEv
TQa:__ZN13RenderManager23AddRemoveCamerasDelayedEv
qQa:_UNITY_png_write_pHYs
ima:__ZN23PreloadManagerOperation11GetPriorityEv
fOd:_Exception_get_InnerException_m3722561235
C9d:_Array_InternalArray__ICollection_Remove_TisILTokenInfo_t149559338_m1523907845_gshared
a4c:__ZN11UnityEngine9Analytics15AnalyticsConfigC2Ev
Pni:_ContactFilter2D_CheckConsistency_m1391185667
e7f:__ZL84RectOffset_t3387826427_CustomAttributesCacheGenerator_RectOffset_get_left_m439065308P21CustomAttributesCache
cze:_List_1_GetEnumerator_m4053501645_gshared
Yaj:__ZN6il2cpp2gc9AllocatorIP17Il2CppAsyncResultE10deallocateEPvj
uZi:_Enumerator_CheckState_m1761755727_gshared
lzd:_Hashtable_Rehash_m2877670513
p3a:__ZN13RenderTexture8SetWidthEi
J5d:_InputField_Insert_m1593238693
O$b:__ZNK28RectTransformPropertyBinding12SetPPtrValueERKN11UnityEngine9Animation10BoundCurveEi
wPb:__Z18Transfer_BlittableI18StreamedBinaryReadILb0EELb0EfEvRK29SerializationCommandArgumentsR31RuntimeSerializationCommandInfo
jvb:__ZN10MeshFilterD0Ev
eZc:_UNITY_FT_GlyphLoader_CheckSubGlyphs
JYh:__Z132RuntimeInvoker_Int32_t2071877448_Il2CppObject_Int32_t2071877448_Int32_t2071877448_Il2CppObject_Int32_t2071877448_Int32U26_t455636984PK10MethodInfoPvPS2_
_aj:__ZN6il2cpp2vm21ThreadPoolCompartment20SpawnNewWorkerThreadEv
Aee:_Array_InternalArray__ICollection_Add_TisCustomAttributeTypedArgument_t1498197914_m3260005285_gshared
ZYa:__Z25SetupObjectBakedOcclusionbRK15SharedLightDataRK26SharedLightmapSettingsDataRK15LightmapIndicesR17ShaderPassContext
aAd:_SyncHashtable_GetObjectData_m3774367030
UBi:__ZN21InterfaceFuncInvoker4IP17Match_t3164245899P17Regex_t1803876613P8String_tiiE6InvokeEjP11Il2CppClassP12Il2CppObjectS3_S5_ii
nZe:_Guid_GetHashCode_m1401300871
hYi:_ListPool_1_U3Cs_ListPoolU3Em__0_m1243609651_gshared
xpc:__Z42Register_UnityEngine_GUIStyle_set_fontSizev
q$d:_FontData__ctor_m3822008992
$ii:_LogCallback__ctor_m898185969
z0i:__ZL23UnresolvedVirtualCall_5P12Il2CppObjectsPK10MethodInfo
bB:__ZN4PPtrI6AvatarE8TransferI19StreamedBinaryWriteILb0EEEEvRT_
ks:__ZN8Animator9BuildJobsERK13dynamic_arrayIP14PlayableOutputLj4EERS0_INS_11AnimatorJobELj4EEPS7_bb
hkh:_Dictionary_2_System_Collections_IDictionary_set_Item_m115188189_gshared
I$:__ZN9ShaderLab16FastPropertyName4InitEPKc
szc:__ZN11b2GearJointD0Ev
V_b:__Z13RegisterClassIN2UI13RectTransformEEvv
zcf:_MSCompatUnicodeTable_ToWidthCompat_m2299599532
f_i:__ZN13Il2CppHashMapIPK22Il2CppGenericParameterP11Il2CppClassN6il2cpp5utils11PointerHashIS1_EENSt3__28equal_toIS2_EENS9_9allocatorINS9_4pairIK10KeyWrapperIS2_ES4_EEEEEC2EjRKS8_RKSB_
hbf:_NumberFormatter_get_IsFloatingSource_m2830957202
wsb:__ZN10VertexData8TransferI17RemapPPtrTransferEEvRT_
Nca:__ZN13RenderTexture9SetMipMapEb
w5i:__ZN15dense_hashtableINSt3__24pairIK10KeyWrapperIPK11Il2CppClassEPKcEES6_N6il2cpp5utils11PointerHashIS3_EEN14dense_hash_mapIS6_S9_SE_NS6_14EqualsComparerINS0_8equal_toIS5_EEEENS0_9allocatorISA_EEE9SelectKeyESJ_SL_E13set_empty_keyERKSA_
lwh:_ScrollRect_set_verticalScrollbarSpacing_m2356851539
PZ:__Z18GetDirectorManagerv
Qbf:_OperatingSystem_GetObjectData_m2276196875
Uhb:__ZNK10TagManager26GetTypeInfoVirtualInternalEv
Leh:_ResourceRequest_t2560315377_marshal_pinvoke_back
QBb:__ZN21ArchiveStorageCreator13AppendRawNodeERKN4core12basic_stringIcNS0_20StringStorageDefaultIcEEEEN20ArchiveStorageHeader9NodeFlagsEyy
Ejc:__Z38Transform_CUSTOM_INTERNAL_get_rotationP12Il2CppObjectP11Quaternionf
chj:__ZNSt3__26vectorIN6il2cpp2vm17TypeNameParseInfoENS_9allocatorIS3_EEE8allocateEj
zti:_AnimatorControllerPlayable_CrossFadeInFixedTime_m1082259778
WTf:__ZL66CriticalFinalizerObject_t1920899984_CustomAttributesCacheGeneratorP21CustomAttributesCache
W3i:__ZL25UnresolvedVirtualCall_190P12Il2CppObject20TimeSpan_t3430258949S1_PK10MethodInfo
Yjj:__ZNK15dense_hashtableINSt3__24pairIK10KeyWrapperINS1_IPK10MethodInfoP11Il2CppClassEEEjEES9_17ReflectionMapHashIS8_EN14dense_hash_mapIS9_jSD_NS9_14EqualsComparerINS0_8equal_toIS8_EEEENS0_9allocatorISB_EEE9SelectKeyESI_SK_E5beginEv
yCa:__ZN7ApiGLES19UploadBufferSubDataEjN2gl12BufferTargetEllPKv
sjd:_String_System_IConvertible_ToInt32_m1927223638
Y9d:_Array_InternalArray__ICollection_Remove_TisContentType_t1028629049_m3085152315_gshared
e4h:__Z62RuntimeInvoker_AnimatorStateInfo_t2577870592_Int32_t2071877448PK10MethodInfoPvPS2_
wli:_Canvas_set_sortingOrder_m2922819993
QWi:__ZL18div128DecadeFactorPyS_i
bfi:__Z72RuntimeInvoker_KeyValuePair_2_t3749587448_Int32_t2071877448_Il2CppObjectPK10MethodInfoPvPS2_
J9i:__ZNSt3__26__treeINS_12__value_typeIP11Il2CppClassS3_EENS_19__map_value_compareIS3_S4_NS_4lessIS3_EELb1EEENS_9allocatorIS4_EEE25__emplace_unique_key_argsIS3_JNS_4pairIS3_S3_EEEEENSD_INS_15__tree_iteratorIS4_PNS_11__tree_nodeIS4_PvEEiEEbEERKT_DpOT0_
yld:_ASCIIEncoding__ctor_m4127831672
Lcg:__ZL117AnimatorControllerPlayable_t4078305555_CustomAttributesCacheGenerator_AnimatorControllerPlayable_CrossFade_m437921439P21CustomAttributesCache
GGb:__Z19TransferField_ArrayI14SafeBinaryRead27Converter_SimpleNativeClassI8GUIStyleEEvRK23StaticTransferFieldInfoR31RuntimeSerializationCommandInfoRT0_
bSg:_UTF8Encoding__ctor_m3336862259
iuj:__ZN15dense_hashtableINSt3__24pairIK10KeyWrapperIP14Il2CppIUnknownEjEES5_N6il2cpp5utils11PointerHashIS3_EEN14dense_hash_mapIS5_jSB_NS5_14EqualsComparerINS0_8equal_toIS4_EEEENS0_9allocatorIS7_EEE9SelectKeyESG_SI_ED2Ev
KJj:__ZN6il2cpp5utils10MemoryPoolC2Ej
z6h:__Z54RuntimeInvoker_Boolean_t3825574718_HitInfo_t1761367055PK10MethodInfoPvPS2_
XGf:_X509Chain_GetAuthorityKeyIdentifier_m2607407678
GJj:__ZN6il2cpp5utils10MemoryPoolC2Ev
Qlb:__ZN14RenderSettings5ResetEv
nsj:__ZNSt3__212basic_stringIDsNS_11char_traitsIDsEENS_9allocatorIDsEEE6appendEPKDsj
HUd:_RaycastResult_set_gameObject_m1138581891_AdjustorThunk
uki:_Bounds_get_extents_m4077324178_AdjustorThunk
yUh:__Z117RuntimeInvoker_Int32_t2071877448_Il2CppObject_Il2CppObject_Int32_t2071877448_Int32_t2071877448_BooleanU26_t3168250738PK10MethodInfoPvPS2_
ZJh:_InternalEnumerator_1_get_Current_m3724267862_AdjustorThunk
Tke:_Dictionary_2_Do_ICollectionCopyTo_TisKeyValuePair_2_t3716250094_m1740410536_gshared
Z0g:_GUI_CallWindowDelegate_m2039577415
iBj:__ZN6il2cpp2os10ThreadImplD2Ev
_if:_RSAManaged_Dispose_m3018788098
Mzc:__ZN12b2MouseJoint23InitVelocityConstraintsERK12b2SolverData
xqc:__ZN8Gradient8TransferI9JSONWriteEEvRT_
hTg:_Monitor_Monitor_pulse_m2135582245
vuf:_Context_get_ReceivedConnectionEnd_m3369356276
kBf:_NameObjectCollectionBase_get_Count_m2353593692
Cbb:__ZNK12TLSAllocatorI14StackAllocatorE22GetAllocatedMemorySizeEv
NSf:__ZL54AssemblyName_t894705941_CustomAttributesCacheGeneratorP21CustomAttributesCache
bGd:_Convert_ToUInt32_m3394039268
y5a:__ZN17RemapPPtrTransfer12PushMetaFlagE17TransferMetaFlags
hN:__ZNK7WeakPtrI20SoundChannelInstanceE10SharedData9GetRawPtrEv
tLa:__ZN12HandlerChain4NameEv
Ixb:__ZNSt3__26vectorI9InputAxisNS_9allocatorIS1_EEE10deallocateEv
e8i:__ZNK15dense_hashtableINSt3__24pairIK10KeyWrapperI13dynamic_arrayIPK10Il2CppTypeLj4EEEPFvvEEES8_N6il2cpp8metadata19Il2CppSignatureHashEN14dense_hash_mapIS8_SB_SF_NS8_14EqualsComparerINSE_22Il2CppSignatureCompareEEENS0_9allocatorISC_EEE9SelectKeyESJ_SL_E10test_emptyERK30dense_hashtable_const_iteratorISC_S8_SF_SN_SJ_SL_E
l_e:_Int16_Equals_m3925135434_AdjustorThunk
w2c:__Z44Register_UnityEngine_CanvasRenderer_get_cullv
Whh:_Enumerator_Dispose_m2532362830_AdjustorThunk
DQf:__ZL60IHashCodeProvider_t1980576455_CustomAttributesCacheGeneratorP21CustomAttributesCache
p$b:__ZN13ProduceHelperI13MonoBehaviourLb0EE7ProduceE18MemLabelIdentifier18ObjectCreationMode
xpe:_Enumerator_VerifyState_m1677639504_AdjustorThunk
G9a:__Z29StdTemplateConversionFunctionIbbEbPvR14SafeBinaryRead
MDj:__ZNK15dense_hashtableINSt3__24pairIK10KeyWrapperIPK19Il2CppGenericMethodEP10MethodInfoEES6_N6il2cpp8metadata23Il2CppGenericMethodHashEN14dense_hash_mapIS6_S9_SD_NS6_14EqualsComparerINSC_26Il2CppGenericMethodCompareEEENS0_9allocatorISA_EEE9SelectKeyESH_SJ_E12test_deletedEj
jsf:_CipherSuiteCollection_get_Item_m280627160
mFb:__Z44InitializeTransferFunctionScriptingTraitsForI17RemapPPtrTransferEvR31TransferFunctionScriptingTraits
Sug:_SerializationInfoEnumerator_MoveNext_m1876990879
tVg:_TimeSpan_Duration_m4205681645
X6a:__ZN14UnityWebStream24UpdateAllUnityWebStreamsEv
YFe:_Collection_1_System_Collections_IList_get_IsReadOnly_m2329986891_gshared
fPf:__ZL60ObsoleteAttribute_t3878847927_CustomAttributesCacheGeneratorP21CustomAttributesCache
PGi:_Uri_ParseAsWindowsAbsoluteFilePath_m1108586962
Itf:_Context_get_HandshakeState_m3443153737
Yfe:_Array_InternalArray__ICollection_CopyTo_TisRaycastHit2D_t4063908774_m3837098618_gshared
qna:__ZN18LoadSceneOperation21MustCompleteNextFrameEv
NK:__ZNK12AudioManager16GetAudioListenerEv
sNg:_MonoField_get_FieldType_m598011426
XFe:_Collection_1_System_Collections_IList_get_IsFixedSize_m1624702704_gshared
dSd:_EventTrigger_OnScroll_m626934407
a5f:__ZL48Camera_t189460977_CustomAttributesCacheGeneratorP21CustomAttributesCache
K2a:__ZNSt3__26vectorI11CameraStackNS_9allocatorIS1_EEE8__appendEj
Nrj:__ZNSt3__212basic_stringIcNS_11char_traitsIcEENS_9allocatorIcEEE6__initINS_11__wrap_iterIPcEEEENS_9enable_ifIXsr21__is_forward_iteratorIT_EE5valueEvE4typeESB_SB_
OBc:__ZNK11Rigidbody2D20GetAttachedCollidersER13dynamic_arrayIP10Collider2DLj4EE
S4d:_InputField_OnDisable_m1865339380
ZYg:_UInt32_System_IConvertible_ToType_m747769316
Bx:__ZN7mecanim9animation12GetHumanPoseERKNS0_18ClipMuscleConstantEPKNS0_10ValueDeltaERNS_5human9HumanPoseE
Nkj:__ZN6il2cpp2vm10Reflection17GetPropertyObjectEP11Il2CppClassPK12PropertyInfo
M3c:__ZN11UnityEngine9Analytics15UserCustomEvent12CustomParams6InsertEPKcRNS1_11CustomValueE
UYj:_glDeleteVertexArrays__wrapper
KMb:__Z29Transfer_Blittable_ArrayFieldI19StreamedBinaryWriteILb0EEjEvRT_R9ArrayInfoRK23StaticTransferFieldInfo
AX:__Z13GetFileSystemv
d6:__ZNK5Unity4Type21FindAllDerivedClassesER13dynamic_arrayIPKS0_Lj4EENS0_17TypeFilterOptionsE
Y6:__ZN13RuntimeStaticI15GUIEventManagerLb0EE16StaticInitializeEPv
Gwb:__ZN14SafeBinaryRead8TransferIfEEvRT_PKc17TransferMetaFlags
qQb:__ZL12InvokeMethodI18StreamedBinaryReadILb0EEEvRK29SerializationCommandArgumentsR31RuntimeSerializationCommandInfo
DXe:_DaylightTime_get_Delta_m2316831491
eGc:__ZNSt3__27__sort5IR24RayHitsByDepthComparitorP12RaycastHit2DEEjT0_S5_S5_S5_S5_T_
Z8d:_Array_InternalArray__ICollection_Contains_TisUILineInfo_t3621277874_m1175659630_gshared
JUg:_WaitHandle_WaitOne_m370363697
Ulg:__ZL114PointerEventData_t1599784723_CustomAttributesCacheGenerator_PointerEventData_set_pointerCurrentRaycast_m2431897513P21CustomAttributesCache
bJf:_FactoryCache_Lookup_m1681894361
jId:_DateTime_Subtract_m698282245_AdjustorThunk
nwb:__ZThn32_N14SpriteRenderer15AddAsRenderNodeER15RenderNodeQueueRK20DeprecatedSourceData
cNh:_DefaultComparer__ctor_m2470932885_gshared
kRf:__ZL55BinaryReader_t2491843768_CustomAttributesCacheGeneratorP21CustomAttributesCache
HMe:_Collection_1_InsertItem_m724820684_gshared
B0f:__ZL79Convert_t2607082565_CustomAttributesCacheGenerator_Convert_ToUInt64_m1896191125P21CustomAttributesCache
iSa:__ZN19ShaderPropertySheet9SetMatrixEN9ShaderLab16FastPropertyNameERK10Matrix4x4fNS_8SetFlagsE
Lbd:_RIPEMD160Managed_Initialize_m3365407578
zob:__Z29GetTextureSizeAllowedMultiple13TextureFormat
JCf:_IPAddress_HostToNetworkOrder_m1092199707
Bae:_SetPropertyUtility_SetStruct_TisSpriteState_t1353336012_m2898060836_gshared
agd:_SecurityAttribute__ctor_m3425755778
V4b:__ZN21IntermediateRenderers3AddEP20IntermediateRenderer
vej:_il2cpp_array_element_size
D4h:__Z80RuntimeInvoker_Int32_t2071877448_PlayableHandleU26_t3483893774_Int32_t2071877448PK10MethodInfoPvPS2_
Wcg:__ZL139AnimatorControllerPlayable_t4078305555_CustomAttributesCacheGenerator_AnimatorControllerPlayable_INTERNAL_CALL_CrossFadeInternal_m698817831P21CustomAttributesCache
bg:_glCheckFramebufferStatus
deg:__ZL55TextGenerator_t647235000_CustomAttributesCacheGeneratorP21CustomAttributesCache
Pbe:_Array_compare_TisInt32_t2071877448_m840310202_gshared
UXh:__Z57RuntimeInvoker_Il2CppObject_Il2CppObject_Byte_t3683104436PK10MethodInfoPvPS2_
fMh:_InternalEnumerator_1_System_Collections_IEnumerator_get_Current_m442726479_AdjustorThunk
iCg:_DESTransform_ECB_m2629024873
HKh:_InternalEnumerator_1_System_Collections_IEnumerator_get_Current_m790514740_AdjustorThunk
Xyc:__ZNK15b2DistanceJoint17GetReactionTorqueEf
rld:__Z37il2cpp_codegen_get_executing_assemblyPK10MethodInfo
ZXb:__ZN9Transform23VirtualRedirectTransferER17RemapPPtrTransfer
zPf:__ZL57TypedReference_t1025199857_CustomAttributesCacheGeneratorP21CustomAttributesCache
Vce:_Array_InternalArray__IndexOf_TisByte_t3683104436_m3605266236_gshared
y6g:_GUIStyle_set_richText_m1853532836
qMe:_Collection_1_System_Collections_IList_Insert_m435904526_gshared
puh:_RaycastAllCallback_Invoke_m981876639
QQg:_UnicodeEncoding__ctor_m72484327
CNf:__ZL74Il2CppArray_CustomAttributesCacheGenerator_Array_GetUpperBound_m1352329707P21CustomAttributesCache
luj:__ZN14dense_hash_mapI10KeyWrapperIP14Il2CppIUnknownEjN6il2cpp5utils11PointerHashIS1_EENS3_14EqualsComparerINSt3__28equal_toIS2_EEEENS9_9allocatorINS9_4pairIKS3_jEEEEE15set_deleted_keyERSF_
I6:__ZN22BuiltinResourceManager16StaticInitializeEPv
GWe:_NumberFormatter_ScaleOrder_m1915154678
uqj:__ZN6il2cpp2gc9AllocatorIP12Il2CppThreadE10deallocateEPvj
tyc:__ZN24b2ChainAndCapsuleContact8EvaluateEP10b2ManifoldRK11b2TransformS4_
gWi:_UnityEvent_1_GetDelegate_m2720691419_gshared
euf:_ClientSessionInfo_SetContext_m2649357891
c$e:_Int32_System_IConvertible_ToInt64_m3790029067_AdjustorThunk
bSh:__Z69RuntimeInvoker_Boolean_t3825574718_Il2CppObject_DoubleU26_t1208767207PK10MethodInfoPvPS2_
HRd:_RaycasterManager_GetRaycasters_m1154876874
rzf:_SslStreamBase_InternalReadCallback_m2524917586
G5:__ZN8Remapper6RemoveEi
wue:_List_1_CheckCollection_m2608305187_gshared
KKa:__ZN10MemoryFile4ReadEyPvPy
kXg:_Type_get_ContainsGenericParameters_m505913180
dOc:__ZL36CleanupTextRenderingScriptingClassesv
T8f:__ZL82Material_t193706927_CustomAttributesCacheGenerator_Material_SetIntImpl_m4157631275P21CustomAttributesCache
l3a:__ZN15ReflectionProbe17UseRendererResultEP13ProbeRenderer
jpd:_Array_BinarySearch_m3270245097
Ggc:__Z34Mesh_CUSTOM_SetArrayForChannelImplP12Il2CppObject30InternalScriptingShaderChannel34InternalScriptingVertexChannelTypeiP11Il2CppArrayi
T2e:_MonoIO_DeleteFile_m3273821223
CJh:_InternalEnumerator_1_Dispose_m3642485841_AdjustorThunk
jef:_BigInteger_GenerateRandom_m2507308768
$Gd:_DateTime_System_IConvertible_ToDouble_m1431748426_AdjustorThunk
cdi:__Z76RuntimeInvoker_Void_t1841601450_Int32_t2071877448_ContactPoint2D_t3659330976PK10MethodInfoPvPS2_
L8d:_Array_InternalArray__ICollection_Contains_TisUInt16_t986882611_m510319131_gshared
Zge:_Array_InternalArray__Insert_TisRaycastHit2D_t4063908774_m3174907903_gshared
zKd:_Decimal_ToString_m541380585
QJf:_RepeatContext_get_Previous_m808449037
oZh:__Z60RuntimeInvoker_DateTime_t693205669_Il2CppObject_Il2CppObjectPK10MethodInfoPvPS2_
OLg:_MemberFilter__ctor_m1775909550
Nej:_il2cpp_class_is_valuetype
U8c:__ZZN18UnityConnectClient23RegisterGlobalCallbacksEvEN41EarlyUpdateUnityConnectClientUpdatestruct7ForwardEv
NB:__ZN11UnityEngine9Animation28GenericAnimationBindingCache25RegisterIAnimationBindingEPKN5Unity4TypeEiP17IAnimationBinding
ZE:__Z106Register_UnityEngine_Experimental_Director_AnimatorControllerPlayable_INTERNAL_CALL_GetLayerWeightInternalv
A2c:__Z70RectTransformUtility_CUSTOM_INTERNAL_CALL_RectangleContainsScreenPointP12Il2CppObjectRK13Vector2fIcallS0_
DNd:_Enum_ToObject_m2601523252
qTj:dynCall_viiffiii
Syf:_InternalAsyncResult_get_FromWrite_m2893408424
X_i:__ZN6il2cpp2vm5Class15GetElementClassEP11Il2CppClass
q7d:_U3CDelayedSetDirtyU3Ec__Iterator0_System_Collections_IEnumerator_get_Current_m851854792
xVa:__Z20RenderSceneDepthPassRK19SharedRendererSceneRK17ShaderReplaceDatabR17ShaderPassContext
u3c:__ZN14UnityAnalytics25UnregisterGlobalCallbacksEv
o1a:__Z40ProcessCameraIndexListIsNodeVisibleInOutRK22SceneCullingParametersPK9SceneNodePK4AABBR9IndexList
Qkb:__ZN16GraphicsSettings8TransferI17RemapPPtrTransferEEvRT_
Znf:_BigInteger_op_LessThanOrEqual_m3528380540
_5e:_StreamReader__ctor_m2654332332
_$c:__ZN2UI6Canvas13UpdateBatchesEb
dFc:__ZN17PolygonCollider2D15TransformPointsERK13dynamic_arrayI8Vector2fLj4EERK10Matrix4x4fRKS1_fP6b2Vec2
Jnb:__ZN7Texture19SupportsAsyncUploadI19StreamedBinaryWriteILb0EEEEbRT_
Cse:_List_1_CheckCollection_m3968030679_gshared
JSi:_Predicate_1_BeginInvoke_m3556950370_gshared
uQg:_StringBuilder_ToString_m617673931
fua:__ZNK13GfxDeviceGLES12GetWireframeEv
fRe:_ReadOnlyCollection_1_System_Collections_ICollection_get_IsSynchronized_m3127987432_gshared
H6c:__ZN11UnityEngine7Connect13ConfigHandler12GetListenersERKN4core12basic_stringIcNS2_20StringStorageDefaultIcEEEE
xva:__ZN9GfxDevice18AllocRenderSurfaceEb
wZb:__ZN10TagManager32GetSortingLayerUniqueIDFromValueEi
QEi:_AnchorInfo_get_IsComplete_m1247624133
K_d:_Dropdown_Show_m324374589
y_:__ZL27CleanupCoreScriptingClassesv
V5f:__ZL85Component_t3819376471_CustomAttributesCacheGenerator_Component_SendMessage_m913946877P21CustomAttributesCache
QNe:_ReadOnlyCollection_1_System_Collections_ICollection_get_SyncRoot_m769863805_gshared
_Td:_RaycastResult_get_isValid_m2482925612
vgc:__Z26AnimationCurve_CUSTOM_InitP12Il2CppObjectP11Il2CppArray
Y_j:_glUniform1uiv__wrapper
ayc:__ZNK14b2PolygonShape5CloneEP16b2BlockAllocator
kmj:__ZN6il2cpp2vm10Reflection7IsEventEP12Il2CppObject
t9i:__ZNSt3__26__treeINS_12__value_typeIPFvvEPK10MethodInfoEENS_19__map_value_compareIS3_S7_NS_4lessIS3_EELb1EEENS_9allocatorIS7_EEE16__insert_node_atEPNS_16__tree_node_baseIPvEERSI_SI_
n2:__ZN17PersistentManager26GetStreamNameSpaceInternalEi
uG:__ZN4FMOD6System11createSoundEPKcjP22FMOD_CREATESOUNDEXINFOPPNS_5SoundE
omi:_CanvasRenderer_get_cull_m3577089379
cJe:__ZN23InterfaceActionInvoker2Ii22UICharInfo_t3056636800E6InvokeEjP11Il2CppClassP12Il2CppObjectiS0_
bo:FUNCTION_TABLE_iiifiiii
x5h:__Z66RuntimeInvoker_Void_t1841601450_Int32_t2071877448_Rect_t3681755626PK10MethodInfoPvPS2_
Lah:_Object_Destroy_m4145850038
h4h:__Z109RuntimeInvoker_Void_t1841601450_PlayableHandleU26_t3483893774_Int32_t2071877448_SByte_t454417549_Il2CppObjectPK10MethodInfoPvPS2_
Dhj:__ZN6il2cpp2vm4Type14IsSystemDBNullEPK10Il2CppType
C0:__ZN9ShaderLab19CommonPropertyNames13StaticCleanupEPv
v3:__Z31scripting_method_get_returntype18ScriptingMethodPtr
twh:_ScrollRect_UpdateBounds_m3266596336
Ipb:__ZN15SerializeTraitsI12LightmapDataE8TransferI24GenerateTypeTreeTransferEEvRS0_RT_
YPa:_unity_z_zcfree
rYd:_ColorBlock_GetHashCode_m649325222
wXj:_glStencilOpSeparate__wrapper
a8b:__ZN4Mesh5SetUvEiPKfjj
Tna:__ZN7Texture13SetAnisoLimitENS_20AnisotropicFilteringE
ioa:__ZN28LightProbeProxyVolumeManager25UpdateSHCoeffsTextureDataER21LightProbeProxyVolume
vJa:__Z18CreateDecompressor15CompressionType18MemLabelIdentifier
QO:__ZN11AudioModule16SetListenerPauseEb
Vh:_emscripten_glCompressedTexSubImage2D
ODa:__ZN13GfxDeviceGLES22MemoryBarrierImmediateEyN2gl17MemoryBarrierTypeE
aGd:_Convert_ToUInt32_m1336475941
Bdg:__ZL132AnimatorControllerPlayable_t4078305555_CustomAttributesCacheGenerator_AnimatorControllerPlayable_INTERNAL_CALL_SetBoolID_m2987425503P21CustomAttributesCache
_sj:__ZN6il2cpp6icalls8mscorlib6System4Type18internal_from_nameEP12Il2CppStringbb
sla:__ZN6prcoreL26RemapGenericFloatToIntegerI18TexFormatARGBFloat17TexFormatARGB8888EEvPKNS_9InnerInfoE
b_b:__ZN6Object27GetOffsetOfInstanceIdMemberEv
lXc:_cff_ps_has_glyph_names
tUi:_InvokableCall_1__ctor_m2837611051_gshared
Foh:_EqualityComparer_1__ctor_m1389939323_gshared
bhh:_Transform_1_EndInvoke_m1025924012_gshared
ANf:__ZL81Il2CppArray_CustomAttributesCacheGenerator_Array_GetValue_m3550694941____indices0P21CustomAttributesCache
bSe:_ReadOnlyCollection_1_System_Collections_Generic_ICollectionU3CTU3E_get_IsReadOnly_m2873538493_gshared
CCi:_PatternCompiler_EmitPosition_m3013268572
zIf:_X509SubjectKeyIdentifierExtension__ctor_m1109455121
QYb:__Z13tessTesselateP14TESStesselatoriiiiPKf
l1i:__ZL24UnresolvedVirtualCall_45P12Il2CppObject19DateTime_t693205669PK10MethodInfo
W0d:_Graphic_CreateColorFromAlpha_m2614574534
iRg:_UnicodeEncoding_GetHashCode_m2443440683
Jpc:__Z44Register_UnityEngine_GUIStyle_SetDefaultFontv
QIg:_GenericTypeParameterBuilder_GetPropertyImpl_m3566422383
_6b:__ZN19SpriteMeshGenerator9MakeShapeEP11ColorRGBA32iifhbjfi
eNb:__Z18Transfer_BlittableI18StreamedBinaryReadILb1EELb1EiEvRK29SerializationCommandArgumentsR31RuntimeSerializationCommandInfo
Xs:__ZN9BlobWrite8TransferI22OffsetPtrArrayTransferIKN4math7_float3EEEEvRT_PKc17TransferMetaFlags
Xed:_TripleDES_IsWeakKey_m483013953
OFf:_X509Certificate2_get_PrivateKey_m2662162956
aih:_Enumerator__ctor_m3819430617_AdjustorThunk
$kj:__ZN15dense_hashtableINSt3__24pairIK10KeyWrapperINS1_IPK12PropertyInfoP11Il2CppClassEEEjEES9_17ReflectionMapHashIS8_EN14dense_hash_mapIS9_jSD_NS9_14EqualsComparerINS0_8equal_toIS8_EEEENS0_9allocatorISB_EEE9SelectKeyESI_SK_E12maybe_shrinkEv
wNb:__Z18Transfer_BlittableI18StreamedBinaryReadILb1EELb1EsEvRK29SerializationCommandArgumentsR31RuntimeSerializationCommandInfo
oz:__ZN26AnimatorControllerPlayable17IsMultithreadableEv
Aid:_Single_System_IConvertible_ToSByte_m3757385387
xai:__Z51RuntimeInvoker_Boolean_t3825574718_Slot_t2022531261PK10MethodInfoPvPS2_
T3e:_StreamAsyncResult_SetComplete_m2141125667
Yna:__ZL21SetAnisoLimitEnumImplN7Texture20AnisotropicFilteringEb
h5c:__ZN22BaseUnityConnectClient17OnEnterStateReadyEv
xY:__GLOBAL__sub_I_platformdependent_webgl_source_lump_cpp
S_:__Z21GetManagerFromContexti
Eve:_List_1_get_Count_m634584594_gshared
ykb:__ZN14GrowableBufferD2Ev
P7g:_Keyframe_get_tangentMode_m1869200796_AdjustorThunk
Qfc:__Z29Input_CUSTOM_GetMouseButtonUpi
tdj:__ZN6il2cpp6icalls8mscorlib6System8MonoType16InternalGetEventEP20Il2CppReflectionTypeP12Il2CppStringi
bZg:_UInt32_System_IConvertible_ToUInt32_m1257480358_AdjustorThunk
xRf:__ZL50FileMode_t236403845_CustomAttributesCacheGeneratorP21CustomAttributesCache
WQc:_UNITY_tt_face_load_maxp
$fc:__Z46Input_CUSTOM_INTERNAL_set_compositionCursorPosRK13Vector2fIcall
qu:__ZN7mecanim5human12FullBodyMaskEv
t_f:__ZL98Activator_t1850728717_CustomAttributesCacheGenerator_Activator_CreateInstance_m1465989661____args1P21CustomAttributesCache
C3i:__ZL25UnresolvedVirtualCall_170P12Il2CppObject19Vector3_t2243707580PK10MethodInfo
b0:__ZN19ShaderPropertySheet11ComputeHashEv
$fi:__Z111RuntimeInvoker_Il2CppObject_AnimatorClipInfo_t3905751349_AnimatorClipInfo_t3905751349_Il2CppObject_Il2CppObjectPK10MethodInfoPvPS2_
Dyc:__ZN12b2EPCollider24ComputePolygonSeparationEv
jOb:__ZN4PPtrI6ObjectE8TransferI18StreamedBinaryReadILb1EEEEvRT_
NYd:_ColorTween_get_tweenMode_m2919867230_AdjustorThunk
Pge:_Array_InternalArray__Insert_TisUInt16_t986882611_m2263078_gshared
vXd:_CanvasScaler_HandleScaleWithScreenSize_m80056230
PR:__ZN11UnityEngine15CloudWebService16SessionContainer16GetJsonDataBlockEjRKN4core12basic_stringIcNS2_20StringStorageDefaultIcEEEERS6_PjSA_
O6f:__ZL89GameObject_t1756533147_CustomAttributesCacheGenerator_GameObject_AddComponent_m3757565614P21CustomAttributesCache
Ccj:__ZNK6il2cpp5utils10functional6FilterINSt3__212basic_stringIcNS3_11char_traitsIcEENS3_9allocatorIcEEEENS0_11StringUtils21CaseSensitiveComparerEEclIPKcEEbRKT_
bJg:_GenericTypeParameterBuilder_get_AssemblyQualifiedName_m902593295
LRg:_UTF7Encoding_InternalGetBytes_m2772055844
iqh:_EqualityComparer_1__ctor_m831468288_gshared
Lcf:_SimpleCollator__cctor_m2693747668
sKd:_Decimal_CompareTo_m2454501434_AdjustorThunk
C2:__ZN14SafeBinaryReadD2Ev
KXg:_UInt16_System_IConvertible_ToChar_m4055364664
O_b:__Z13RegisterClassI7TextureEvv
UFi:_ExpressionCollection_OnValidate_m1703610065
DOb:__ZN8Gradient8TransferI18StreamedBinaryReadILb1EEEEvRT_
zhh:_Enumerator_Dispose_m2369319718_AdjustorThunk
X$f:__ZL79Convert_t2607082565_CustomAttributesCacheGenerator_Convert_ToUInt16_m3991499696P21CustomAttributesCache
tpc:__Z45Register_UnityEngine_GUIStyle_SetFontInternalv
JEc:__ZN19CollisionListener2DD0Ev
Bcj:__ZN6il2cpp6icalls8mscorlib6SystemL16CheckMemberMatchI9FieldInfoNS_5utils10functional6FilterINSt3__212basic_stringIcNS8_11char_traitsIcEENS8_9allocatorIcEEEENS5_11StringUtils21CaseSensitiveComparerEEEEEbPKT_PK11Il2CppClassSN_iRKT0_
pDe:_Enumerator_Dispose_m1520016780_AdjustorThunk
btj:__ZN6il2cpp6icalls8mscorlib6System4Type15MakeGenericTypeEP20Il2CppReflectionTypeP11Il2CppArray
oj:_SDL_PauseAudio
Sej:_il2cpp_class_from_type
Rpd:_Array_Sort_m2323017822
HGj:_GC_clear_mark_bit
Xuh:_Scrollbar_UpdateDrag_m3839695926
Y2g:_GUILayoutUtility__cctor_m2957755459
Zji:_AudioConfigurationChangeHandler_EndInvoke_m2237100787
B0:__ZN9ShaderLab19CommonPropertyNames16StaticInitializeEPv
E8e:_MissingMemberException__ctor_m3710131950
Cma:__ZN13MemoryManager31DisallowAllocationsOnThisThreadEv
DA:__ZN7mecanim9animation18CreateAvatarOutputEPKNS0_14AvatarConstantEbbRNS_6memory9AllocatorE
Tpc:__Z45GUIUtility_CUSTOM_Internal_GetKeyboardControlv
KBg:_CspParameters__ctor_m2546931874
dM:__ZN11AudioSource23VirtualRedirectTransferER24GenerateTypeTreeTransfer
g4c:__ZN14UnityAnalytics15SendCustomEventERN11UnityEngine9Analytics15UserCustomEventE
Zsb:__ZN14Texture2DArray23VirtualRedirectTransferER14SafeBinaryRead
qYa:__ZNK6Camera21CalculateCanDoShadowsEv
gmh:_Dictionary_2_make_pair_m2631942124_gshared
c1d:_Graphic__cctor_m1643894470
WAj:__ZN6il2cpp2os6Thread12SetStackSizeEj
iGf:_X509ChainElementEnumerator_get_Current_m2232618221
nBb:__ZNK20ArchiveStorageReader15HasStreamBlocksEv
v8b:__ZNK8Renderer16IsVisibleInSceneEv
X3h:__Z44RuntimeInvoker_AnimatorStateInfo_t2577870592PK10MethodInfoPvPS2_
fki:_Behaviour_get_isActiveAndEnabled_m3838334305
nwh:_ScrollRect_set_onValueChanged_m3957749575
_X:__Z13VFormatBufferPciPKcz
vPb:__Z18Transfer_BlittableI18StreamedBinaryReadILb0EELb1EhEvRK29SerializationCommandArgumentsR31RuntimeSerializationCommandInfo
mSi:_U3CCreateWhereIteratorU3Ec__Iterator1D_1_Dispose_m1879652802_gshared
yUf:__ZL90SafeHandle_t2733794115_CustomAttributesCacheGenerator_SafeHandle_get_IsInvalid_m3910183075P21CustomAttributesCache
BZb:__ZL24GenerateTilingJobCombineP22GenerateTilingAreaInfo
W2d:_Image_GenerateSimpleSprite_m4275440988
Poi:_Display_get_systemHeight_m3377672024
zYg:_UInt16_ToString_m3280699191
$Vi:_UnityEvent_1_GetDelegate_m2566156550_gshared
wla:__ZN6prcoreL27StretchGenericFloatBilinearI15TexFormatRFloatEEvPKNS_9InnerInfoE
tVf:__ZL62IDynamicMessageSink_t3056162262_CustomAttributesCacheGeneratorP21CustomAttributesCache
WSh:__Z33RuntimeInvoker_UInt32_t2149682021PK10MethodInfoPvPS2_
ARh:__Z130RuntimeInvoker_Int32_t2071877448_Il2CppObject_Int32_t2071877448_Int32_t2071877448_Il2CppObject_Int32_t2071877448_Int32_t2071877448PK10MethodInfoPvPS2_
Gae:_Array_InternalArray__IEnumerable_GetEnumerator_TisBoolean_t3825574718_m798244337_gshared
Xze:_List_1_CopyTo_m158925060_gshared
BWh:__Z102RuntimeInvoker_Il2CppObject_Int32_t2071877448_Int32_t2071877448_Il2CppObject_Il2CppObject_Il2CppObjectPK10MethodInfoPvPS2_
Fce:_Array_IndexOf_TisCustomAttributeNamedArgument_t94157543_m745056346_gshared
ZBa:__Z14PadImageBorderR14ImageReferenceii
Ejj:__ZN15dense_hashtableINSt3__24pairIK10KeyWrapperINS1_IPK10MethodInfoP11Il2CppClassEEEjEES9_17ReflectionMapHashIS8_EN14dense_hash_mapIS9_jSD_NS9_14EqualsComparerINS0_8equal_toIS8_EEEENS0_9allocatorISB_EEE9SelectKeyESI_SK_E4findERSA_
naj:__ZN6il2cpp2vm13MetadataCache28GetFieldDefaultValueForFieldEPK9FieldInfo
PBh:_ArrayReadOnlyList_1_ReadOnlyError_m2289309720_gshared
Hy:__ZN27AnimationLayerMixerPlayableD2Ev
Fbj:__ZN6il2cpp2vm8basepathEPKc
Unh:_DefaultComparer_GetHashCode_m320514092_gshared
tI:__ZN12AudioManager39HandlePendingAudioConfigurationCallbackEv
kk:_emscripten_glIsFramebuffer
NEa:__ZNK13TranslateGLES9GetFormatE13TextureFormat17TextureColorSpace
k4b:__ZN12_GLOBAL__N_16qAtan2Eff
lFd:_Convert_ToInt64_m954367741
l3i:__ZL25UnresolvedVirtualCall_153P12Il2CppObject40CustomAttributeTypedArgument_t1498197914S1_PK10MethodInfo
ok:_JS_Sound_SetLoopPoints
Rud:_ArrayList__ctor_m1467563650
oN:__ZN12AudioManager17ShouldSourcePauseEb
$Jj:__ZN6il2cpp2vm26MetadataAllocGenericMethodEv
pGa:__ZN19ConstantBuffersGLES12RecordRenderEv
iqa:__ZN18AsyncUploadManager22UploadStreamingTextureEP28FileTextureUploadInstruction
zsc:__ZN9JSONWrite8TransferI10RectOffsetEEvRT_PKc17TransferMetaFlags
FBa:__ZN4crnd12symbol_codec11decode_bitsEj
HKi:_X509Crl_get_Extensions_m1795830276
Eyc:__ZN15b2CircleContact8EvaluateEP10b2ManifoldRK11b2TransformS4_
Fje:_Array_Sort_TisRaycastResult_t21186376_TisRaycastResult_t21186376_m38820193_gshared
mii:_Animator_ResetTriggerString_m1445965342
v4b:__ZN21FixedBehaviourManagerD0Ev
dbg:__ZL55RaycastHit2D_t4063908774_CustomAttributesCacheGeneratorP21CustomAttributesCache
b3e:_StreamReader__ctor_m3454466728
yI:__ZN4FMOD6System12createReverbEPPNS_6ReverbE
$Zg:_UInt64_Equals_m1243465002
pPi:_Vector2_get_Item_m2792130561
Ema:__Z16MarkDependenciesR27GarbageCollectorThreadStatej
aIf:_X509ChainElementEnumerator_Reset_m3832280427
Pkg:__ZL75EventSystem_t3466835263_CustomAttributesCacheGenerator_U3CU3Ef__mgU24cache0P21CustomAttributesCache
Maf:_MulticastDelegate_RemoveImpl_m2024746777
FXd:_CanvasUpdateRegistry_ParentCount_m2367607495
Gaf:_MulticastDelegate_Equals_m3064081489
q8h:__Z54RuntimeInvoker_Void_t1841601450_ColorBlock_t2652774230PK10MethodInfoPvPS2_
Wlf:_Activator_CreateInstance_m1465989661
w0:__ZNK9Transform11GetPositionEv
pGi:_PositionAssertion_GetWidth_m2294218483
okg:__ZL111PlayerConnection_t3517219175_CustomAttributesCacheGenerator_PlayerConnection_MessageCallbackInternal_m267902474P21CustomAttributesCache
YSa:__ZN23SharedMeshRenderingData18UnloadVertexStreamEi
AQi:_Vector4_set_Item_m3077071044
U4b:__ZN31CanvasBatchIntermediateRenderer11AddSubBatchERK16DrawBuffersRangePK19ShaderPropertySheet
u3b:__ZN19RenderEventsContextC2Ei
bQ:__Z6simd4fRKf
Tfe:_Array_InternalArray__ICollection_CopyTo_TisColor32_t874517518_m379086718_gshared
Nyh:_Slider_ClampValue_m2851810895
Rk:_emscripten_glEnable
w3g:_GUISkin_set_font_m4009958323
_Vi:_UnityEvent_1_FindMethod_Impl_m3813546_gshared
Owj:__ZN6il2cpp2gc16GarbageCollector29RegisterFinalizerForNewObjectEP12Il2CppObject
_hb:__ZN10TagManager23VirtualRedirectTransferER14SafeBinaryRead
ewi:_MarshalAsAttribute__ctor_m1892084128
qQc:_UNITY_FT_Init_Class_ft_grays_raster
s2h:__Z53RuntimeInvoker_Void_t1841601450_Vector3U26_t425862308PK10MethodInfoPvPS2_
h$a:__Z15InitLightMeshesv
o_f:__ZL97WaitHandle_t677569169_CustomAttributesCacheGenerator_WaitHandle_t677569169____Handle_PropertyInfoP21CustomAttributesCache
Jne:_KeyValuePair_2_ToString_m1391611625_AdjustorThunk
Cn:FUNCTION_TABLE_iifiii
Ryi:__ZN23InterfaceActionInvoker1IP18Context_t502196753E6InvokeEjP11Il2CppClassP12Il2CppObjectS1_
aaf:_MonoType_HasElementTypeImpl_m1040892148
HRa:__ZN22RenderingCommandBuffer36AcquireAndRegisterSharedMaterialDataEP8Material
Qte:_List_1_System_Collections_Generic_IEnumerableU3CTU3E_GetEnumerator_m1503548298_gshared
ILb:__Z18Transfer_BlittableI19StreamedBinaryWriteILb0EELb1E8Vector2fEvRK29SerializationCommandArgumentsR31RuntimeSerializationCommandInfo
lVc:_cf2_arrstack_init
cUf:__ZL65ClassInterfaceAttribute_t910653559_CustomAttributesCacheGeneratorP21CustomAttributesCache
Shj:__ZN15dense_hashtableINSt3__24pairIK10KeyWrapperINS1_IPK14Il2CppAssemblyP11Il2CppClassEEEjEES9_17ReflectionMapHashIS8_EN14dense_hash_mapIS9_jSD_NS9_14EqualsComparerINS0_8equal_toIS8_EEEENS0_9allocatorISB_EEE9SelectKeyESI_SK_E15insert_noresizeERKSB_
KV:__Z15CleanLogHandler7LogTypePKcz
eVb:__ZN9ShaderLab19SerializedSubShader8TransferI19StreamedBinaryWriteILb0EEEEvRT_
CN:__ZN14AudioBehaviour15ThreadedCleanupEv
oRg:_UTF32Encoding_GetBytes_m2290150495
vDb:__ZN6Camera17RemoveImageFilterERK11ImageFilter
oDa:__ZNSt3__218__insertion_sort_3IR25ValueParameterArraySorterPN20GpuProgramParameters14ValueParameterEEEvT0_S6_T_
wDc:__ZN10ClipperLib7Clipper27ProcessEdgesAtTopOfScanbeamEx
Mhg:__ZL102GUIUtility_t3275770671_CustomAttributesCacheGenerator_GUIUtility_EndContainerGUIFromException_m8097082P21CustomAttributesCache
T0c:__ZZN2UI11CanvasGroup15InitializeClassEvEN38FunctorImpl_117kTransformParentChanged4CallEPviR11MessageData
Lrh:_LayoutUtility_GetLayoutProperty_m4052007472
xUi:_InvokableCall_1_Invoke_m3239892614_gshared
pTc:_Horizontal_Sweep_Init
FSa:__ZNSt3__214__split_bufferI20ComputeShaderVariantRNS_9allocatorIS1_EEED2Ev
pLc:__ZNSt3__26vectorIN4core12basic_stringIcNS1_20StringStorageDefaultIcEEEE13stl_allocatorIS5_L18MemLabelIdentifier34ELi16EEE7reserveEj
Elj:__ZNK10KeyWrapperINSt3__24pairIPK9EventInfoP11Il2CppClassEEE14EqualsComparerINS0_8equal_toIS7_EEEclERKS8_SE_
Cuf:_Context_set_WriteSequenceNumber_m3356252710
lZe:_Guid_Equals_m2389236871
R0:__Z27LogRepeatingStringWithFlagsRKN4core12basic_stringIcNS_20StringStorageDefaultIcEEEE15LogMessageFlagsi
Tw:__ZNK8Playable11GetDurationEv
lx:__ZN17AnimationPlayable28ComputeNeedsBindingRebuildedEv
NMh:_DefaultComparer__ctor_m2859550749_gshared
Xhi:_AnimationEvent_get_functionName_m4178006856
Ere:_List_1_CheckIndex_m3609163576_gshared
O7i:__ZNK15dense_hashtableINSt3__24pairIK10KeyWrapperI13dynamic_arrayIPK10Il2CppTypeLj4EEEPFvvEEES8_N6il2cpp8metadata19Il2CppSignatureHashEN14dense_hash_mapIS8_SB_SF_NS8_14EqualsComparerINSE_22Il2CppSignatureCompareEEENS0_9allocatorISC_EEE9SelectKeyESJ_SL_E12test_deletedERK30dense_hashtable_const_iteratorISC_S8_SF_SN_SJ_SL_E
tzb:__ZN15ResourceManagerD0Ev
KFf:_X509ExtensionCollection__ctor_m1324282194
p7c:__ZN18UnityConnectClient33OnPlayerSessionStateChangedStaticEPS_jyy
hQf:__ZL74CaseInsensitiveHashCodeProvider_t2307530285_CustomAttributesCacheGeneratorP21CustomAttributesCache
t_g:_UIntPtr__ctor_m3900568171_AdjustorThunk
Qya:__ZN7ApiGLES4LoadE16GfxDeviceLevelGL
Vpb:__ZN18StreamedBinaryReadILb0EE21TransferSTLStyleArrayI13dynamic_arrayI31EnlightenSystemAtlasInformationLj8EEEEvRT_17TransferMetaFlags
yBa:__ZN4crnd12crn_unpacker22decode_color_endpointsEv
Vvj:__ZN15dense_hashtableI10KeyWrapperIP18Il2CppGenericClassES3_N6il2cpp8metadata22Il2CppGenericClassHashEN14dense_hash_setIS3_S6_NS3_14EqualsComparerINS5_25Il2CppGenericClassCompareEEENSt3__29allocatorIS3_EEE8IdentityESA_SD_E15insert_noresizeERKS3_
POe:_ReadOnlyCollection_1_System_Collections_IList_Clear_m3006875897_gshared
B2b:__ZZL31RegisterOtherRendererPropertiesR22GenericPropertyBindingEN30Wrapper_RendererReceiveShadows13GetFloatValueEPv
Rqe:_Enumerator_System_Collections_IEnumerator_get_Current_m3866069145_gshared
Ydf:_PreviousInfo_t581002487_marshal_pinvoke_cleanup
Hba:__ZN8Material11SetPassFastEPN9ShaderLab4PassER17ShaderPassContextP6Shaderib
o7a:__ZNK13ScreenManager13GetLockCursorEv
n7c:__ZN11UnityEngine7Connect20BasePersistentValues10SaveValuesER9JSONWrite
Tch:_Rect_get_max_m96665935_AdjustorThunk
Zgg:__ZL87GUIStyle_t1799908754_CustomAttributesCacheGenerator_GUIStyle_set_fixedWidth_m2562018757P21CustomAttributesCache
qvi:_RuntimeHelpers_InitializeArray_m3920580167
HSd:_ExecuteEvents_get_pointerDownHandler_m1172742772
YGe:_Collection_1_RemoveAt_m560005219_gshared
dGc:__ZNSt3__27__sort4IR24RayHitsByDepthComparitorP12RaycastHit2DEEjT0_S5_S5_S5_T_
g9b:__Z14ScaleCurveTimeR17AnimationCurveTplIfEf
xHf:_X509CertificateEnumerator_System_Collections_IEnumerator_MoveNext_m3708362145
bVa:__Z12SetupLODFadeR9GfxDeviceR17ShaderPassContextf
BBc:__ZN26b2PolygonAndCapsuleContact6CreateEP9b2FixtureiS1_iP16b2BlockAllocator
vJi:_X501_ToString_m3328169518
W_a:__ZL24CollectForwardObjectsJobP27CollectForwardObjectsHeader
WZ:__ZN8Playable13SetGameObjectEP10GameObject
H9i:__ZNK15dense_hashtableINSt3__24pairIK10KeyWrapperIPK11Il2CppClassEPKcEES6_N6il2cpp5utils11PointerHashIS3_EEN14dense_hash_mapIS6_S9_SE_NS6_14EqualsComparerINS0_8equal_toIS5_EEEENS0_9allocatorISA_EEE9SelectKeyESJ_SL_E12test_deletedERK24dense_hashtable_iteratorISA_S6_SE_SN_SJ_SL_E
DXf:__ZL53HMACSHA256_t2622794722_CustomAttributesCacheGeneratorP21CustomAttributesCache
D2a:__ZNK25CameraStackRenderingState24ResolveTempToEyeTexturesEv
O0a:__Z13IsNodeVisibleRK9SceneNodeRK4AABBRK22SceneCullingParameters
vLg:_EventInfo__ctor_m1190141300
HDh:_InternalEnumerator_1_MoveNext_m3585886944_gshared
C2c:__Z57RectTransformUtility_CUSTOM_INTERNAL_CALL_PixelAdjustRectP12Il2CppObjectS0_R5RectTIfE
hxg:_DelayedFixupRecord_FixupImpl_m4249966635
V0j:_emscripten_glStencilMask__wrapper
vOc:__ZZ29InitializeTextRenderingModulevEN40CleanUpTextRenderingGarbageCollectstruct7ForwardEv
J3:__ZN11TypeManager19ClassNameToTypeInfoEPKcb
vef:_BigInteger_ToString_m3837784224
CRa:__ZN15RenderNodeQueue7CleanupEv
aMa:__ZNK17ArchiveFileSystem8PositionERK13FileEntryData
lKc:__ZN16NovodexAllocator8allocateEjPKcS1_i
ULd:_DllNotFoundException__ctor_m267198482
v_a:__Z17PrepareShadowMapsRK11CullResultsRK11ActiveLightRK10MinMaxAABB
hpg:__ZL81U3CMouseDragOutsideRectU3Ec__Iterator1_t2599668326_CustomAttributesCacheGeneratorP21CustomAttributesCache
QSg:_NativeEventCalls_CreateEvent_internal_m1605829321
wse:_List_1_GetIndex_m3409004147_gshared
Mig:__ZL73RuntimePlatform_t1869584967_CustomAttributesCacheGenerator_MetroPlayerX64P21CustomAttributesCache
H0i:__ZL24UnresolvedVirtualCall_13P12Il2CppObjectaPK10MethodInfo
pHh:_InternalEnumerator_1_System_Collections_IEnumerator_get_Current_m3239681450_AdjustorThunk
_Sb:__ZNSt3__26vectorIN9ShaderLab20SerializedSubProgram15VectorParameterENS_9allocatorIS3_EEEC2ERKS6_
T_a:__ZN9ShaderLab10GrabPassesD2Ev
fah:_MonoBehaviour_set_useGUILayout_m2666356651
itb:__ZN14Texture2DArray13UploadTextureEv
C8h:__Z69RuntimeInvoker_TextGenerationSettings_t2543476768_Vector2_t2243707579PK10MethodInfoPvPS2_
Nhd:_SecurityFrame_t1002202659_marshal_pinvoke
ESc:_tt_cmap14_done
tna:__ZN18AwakeFromLoadQueue25RegisterObjectInstanceIDsEv
hsd:_Buffer_BlockCopy_m1586717258
bXf:__ZL93X509Certificate_t283079845_CustomAttributesCacheGenerator_X509Certificate_GetName_m2354987368P21CustomAttributesCache
lMc:__ZN20TextRenderingPrivate19NativeTextGenerator15InsertCharacterEiPj
tFh:_InternalEnumerator_1__ctor_m3589241961_AdjustorThunk
qDc:__ZTv0_n12_N10ClipperLib7ClipperD0Ev
mPd:_CompareInfo_GetSortKey_m3691382873
yAc:__ZN11b2RopeJoint24SolveVelocityConstraintsERK12b2SolverData
mJd:_DBNull_ToString_m3228904745
PDf:_WebHeaderCollection_AddWithoutValidate_m1479880592
ydd:_SHA1Managed_HashCore_m2658295635
t$h:__Z80RuntimeInvoker_Void_t1841601450_Int32_t2071877448_Int32_t2071877448_Il2CppObjectPK10MethodInfoPvPS2_
Xy:__ZN17AnimationPlayableD0Ev
rqf:_RC4_get_IV_m506011366
EKi:_X509Crl__ctor_m2469408229
pMb:__Z18Transfer_BlittableI19StreamedBinaryWriteILb0EELb0EyEvRK29SerializationCommandArgumentsR31RuntimeSerializationCommandInfo
qUf:__ZL82SafeHandle_t2733794115_CustomAttributesCacheGenerator_SafeHandle_Close_m1146946803P21CustomAttributesCache
YOh:_Enumerator_get_CurrentValue_m3562053380_AdjustorThunk
FIf:_X509SubjectKeyIdentifierExtension_CopyFrom_m136762226
Ooe:_Enumerator_System_Collections_IEnumerator_Reset_m610822832_AdjustorThunk
vhc:__Z41MonoBehaviour_Set_Custom_PropUseGUILayoutP12Il2CppObjecth
gNc:_UNITY_FT_Open_Face
MYj:_glGenRenderbuffers__wrapper
Gki:_Bounds_ToString_m1966597703
qff:_BigInteger_op_Division_m1581119694
qRb:__ZN16ScriptingManagerD0Ev
chi:_UnityAnalyticsHandler_CustomEvent_m2884790978
uyg:_CallbackHandler_Invoke_m1498072969
pCg:_DSACryptoServiceProvider__ctor_m701823690
O2g:_Mathf_Clamp_m2354025655
hFg:_CustomAttributeData_GetCustomAttributes_m2421330738
Oxf:_SecurityParameters_set_ClientWriteMAC_m1970377285
lyj:__ZN30dense_hashtable_const_iteratorINSt3__24pairIK10KeyWrapperINS1_IPKcS4_EEEiEES6_24NamespaceAndNamePairHashN14dense_hash_mapIS6_iS9_NS6_14EqualsComparerI26NamespaceAndNamePairEqualsEENS0_9allocatorIS8_EEE9SelectKeyESD_SF_EppEv
pWg:_Type_get_IsEnum_m313908919
Zdc:__Z44Register_UnityEngine_Component_get_transformv
iAe:_List_1_Reverse_m3395936565_gshared
jHe:_Collection_1_System_Collections_ICollection_CopyTo_m1335644572_gshared
dye:_List_1_CheckMatch_m2830747427_gshared
oJa:__ZN17ArchiveFileSystem12MountArchiveEPKcS1_
DLd:_StackFrame_GetMethod_m72881026
Jrc:__Z18Transfer_BlittableI9JSONWriteLb1E8Vector4fEvRK29SerializationCommandArgumentsR31RuntimeSerializationCommandInfo
C_:__Z11RequireTypePKcS0_S0_
iPh:_Enumerator_System_Collections_IEnumerator_Reset_m70453843_gshared
zqb:__ZThn32_NK8Renderer14GetSubsetIndexEi
TPi:_Vector3_get_Item_m3616014016
Dqg:__ZL59Slider_t297367283_CustomAttributesCacheGenerator_m_MinValueP21CustomAttributesCache
p1b:__ZN13ProduceHelperI15ResourceManagerLb0EE7ProduceE18MemLabelIdentifier18ObjectCreationMode
mwa:__ZN9GfxDevice15ImmediateVertexEfff
v_b:__Z13RegisterClassI8MaterialEvv
tYf:__ZL51Evidence_t1407710183_CustomAttributesCacheGeneratorP21CustomAttributesCache
Rjb:__ZN16GraphicsSettings13AwakeFromLoadE17AwakeFromLoadMode
sOd:_FieldAccessException__ctor_m3893881490
J5h:__Z82RuntimeInvoker_Int32_t2071877448_Rect_t3681755626_Il2CppObject_Vector2_t2243707579PK10MethodInfoPvPS2_
Hp:__ZN6Object13AwakeFromLoadE17AwakeFromLoadMode
_ta:__ZN13GfxDeviceGLES15SetStencilStateEPK18DeviceStencilStatei
Hjj:__ZN15dense_hashtableINSt3__24pairIK10KeyWrapperINS1_IPK10MethodInfoP11Il2CppClassEEEjEES9_17ReflectionMapHashIS8_EN14dense_hash_mapIS9_jSD_NS9_14EqualsComparerINS0_8equal_toIS8_EEEENS0_9allocatorISB_EEE9SelectKeyESI_SK_E6insertERKSB_
TOj:_cycle
tNi:_TextGenerator_Populate_m4139823822
q2f:__ZL72PKCS12_t1362584795_CustomAttributesCacheGenerator_U3CU3Ef__switchU24map5P21CustomAttributesCache
Ld:_emscripten_glUniform1iv
iAh:_Text_get_preferredHeight_m452532789
CFc:__ZN15b2DistanceProxy3SetEPK7b2Shapei
qjd:_String_System_IConvertible_ToDouble_m3860911722
X9a:__ZN16MemoryFileSystemD2Ev
okh:_Dictionary_2_System_Collections_Generic_ICollectionU3CSystem_Collections_Generic_KeyValuePairU3CTKeyU2CTValueU3EU3E_Contains_m842343255_gshared
iUb:__ZN9ShaderLab18SerializedPropertyD2Ev
xMc:__Z17dynamic_pptr_castIP9Texture2D7TextureET_RK4PPtrIT0_E
Jx:__ZN7mecanim14ValueArrayLoopERKNS_10ValueArrayES2_RS0_fRKNS_14ValueArrayMaskE
eQe:_ReadOnlyCollection_1_System_Collections_IList_set_Item_m1272038804_gshared
TCh:_InternalEnumerator_1_System_Collections_IEnumerator_get_Current_m1931522460_AdjustorThunk
Yfd:_SecurityPermission_IsEmpty_m1869313067
qHf:_X509CertificateCollection__ctor_m3709509050
Bdc:__Z37Register_UnityEngine_Camera_get_depthv
Dif:_EncryptedPrivateKeyInfo_get_Salt_m2734354394
aSe:_ReadOnlyCollection_1_System_Collections_Generic_IListU3CTU3E_set_Item_m1918537449_gshared
NFe:_Collection_1_System_Collections_ICollection_CopyTo_m3896480607_gshared
lTd:_PointerEventData_set_position_m794507622
H5h:__Z115RuntimeInvoker_Void_t1841601450_Rect_t3681755626_Il2CppObject_Int32_t2071877448_Int32_t2071877448_Int32_t2071877448PK10MethodInfoPvPS2_
x9:__ZN15dense_hashtableINSt3__24pairIKPKcPK4RTTIEES3_N11TypeManager23ConstCharPtrHashFunctorEN14dense_hash_mapIS3_S7_SA_NS9_19ConstCharPtrEqualToE13stl_allocatorIS8_L18MemLabelIdentifier6ELi16EEE9SelectKeyESC_SF_E12resize_deltaEjj
RZb:__ZN15ApplicationInfo16GetInstallerNameEv
I9a:__Z23ConvertIntegerToTypePtrItEbPvR14SafeBinaryRead
vsi:_AnimatorControllerPlayable_IsParameterControlledByCurveID_m4183631446
Gu:__ZN7mecanim5human29HumanGetGoalOrientationOffsetENS0_4GoalE
ae:_emscripten_glStencilFunc
OWh:__Z101RuntimeInvoker_Void_t1841601450_Il2CppObject_Il2CppObject_Il2CppObject_Il2CppObject_Int32_t2071877448PK10MethodInfoPvPS2_
Hwd:_SynchronizedArrayListWrapper_get_Capacity_m2541698837
A0i:__ZL23UnresolvedVirtualCall_6P12Il2CppObjectiPK10MethodInfo
Rmh:_DefaultComparer_GetHashCode_m3315096533_gshared
jOg:_MonoMethod_MakeGenericMethod_impl_m2063853616
Ohd:__Z46il2cpp_codegen_get_marshal_directive_exceptionPKc
gWb:__ZN9ShaderLab20SerializedSubProgram14AddMatrixParamEPKcii15ShaderParamTypei
ge:_glGetActiveUniformBlockName
N$d:_FontData_set_verticalOverflow_m4211463083
CD:__ZN26AnimatorControllerPlayable23ValidateParameterStringE17GetSetValueResultRKN4core12basic_stringIcNS1_20StringStorageDefaultIcEEEE
oOf:__ZL65Il2CppArray_CustomAttributesCacheGenerator_Array_Sort_m2090966156P21CustomAttributesCache
tZe:_Guid_AppendByte_m2890893073
TJg:_MethodBuilder_Invoke_m1874904900
BCf:__ZN21InterfaceFuncInvoker1IbP13Uri_t19570940E6InvokeEjP11Il2CppClassP12Il2CppObjectS1_
ttd:_Char_System_IConvertible_ToType_m3106771703_AdjustorThunk
w3i:__ZL25UnresolvedVirtualCall_164P12Il2CppObject22UILineInfo_t3621277874PK10MethodInfo
IKf:_Interval_Intersects_m3480157390_AdjustorThunk
qgc:__Z39Quaternion_CUSTOM_INTERNAL_CALL_InverseRK11QuaternionfRS_
Qvi:_GCHandle_Alloc_m1063472408
qJ:__ZN4FMOD7Channel20set3DConeOrientationEP11FMOD_VECTOR
Dmg:__ZL86StandaloneInputModule_t70867863_CustomAttributesCacheGenerator_m_InputActionsPerSecondP21CustomAttributesCache
rn:FUNCTION_TABLE_iiifii
yOh:_Comparer_1__ctor_m4052560291_gshared
bcg:__ZL54SkeletonBone_t345082847_CustomAttributesCacheGeneratorP21CustomAttributesCache
xBg:_CryptoConfig_CreateFromName_m391442950
kzj:__ZN6il2cpp2vm12GenericClass11SetupEventsEP11Il2CppClass
MYc:_tt_delta_interpolate
xSc:_tt_cmap12_get_info
tAd:_SortedList__ctor_m3698381356
uei:__Z31RuntimeInvoker_Slot_t2022531261PK10MethodInfoPvPS2_
Ouj:__ZN6il2cpp2vm15ReboxIReferenceEP14Il2CppIUnknownP11Il2CppClass
D6e:_StreamWriter_LowLevelWrite_m4205372900
GWi:__ZN6il2cpp6icalls8mscorlib6System7Decimal14decimalCompareEP19il2cpp_decimal_reprS5_
SIj:__ZThn4_N6il2cpp2vm13CachedCCWBaseINS0_13ManagedObjectEE7ReleaseEv
tMg:_Module__ctor_m3853650010
Zxd:_CollectionBase_System_Collections_IList_get_Item_m2370387510
qWf:__ZL59RemotingException_t109604560_CustomAttributesCacheGeneratorP21CustomAttributesCache
uje:_Array_Sort_TisCustomAttributeNamedArgument_t94157543_m3436077809_gshared
ZZj:_glCopyTexImage2D__wrapper
Neh:_ResourceRequest__ctor_m3340010930
AZf:__ZL88UTF7Encoding_t741406939_CustomAttributesCacheGenerator_UTF7Encoding_GetBytes_m3015176946P21CustomAttributesCache
z6d:_LayoutElement__ctor_m789941073
dlg:__ZL77ExecuteEvents_t1693084770_CustomAttributesCacheGenerator_U3CU3Ef__mgU24cache9P21CustomAttributesCache
$ki:_Camera_FireOnPreCull_m1679634170
HTf:__ZL68TargetInvocationException_t4098620458_CustomAttributesCacheGeneratorP21CustomAttributesCache
x1f:__ZL56RankException_t1539875949_CustomAttributesCacheGeneratorP21CustomAttributesCache
Zia:__Z18ClearByDrawingQuad13GfxClearFlagsRK10ColorRGBAffjR17ShaderPassContext
Ayi:_DynamicPropertyCollection_FindProperty_m1233265924
Uka:__ZN6prcoreL17RemapGenericFloatI14TexFormatRHalf15TexFormatRFloatEEvPKNS_9InnerInfoE
QUa:__Z16ShouldUseShadowsb
LZ:__ZN15DirectorManager21RebuildStageCallbacksEv
Vla:__ZN19RuntimeSceneManager9LoadSceneERKN4core12basic_stringIcNS0_20StringStorageDefaultIcEEEES6_S6_RK9UnityGUIDiNS_11LoadingModeE
Z0i:__ZL24UnresolvedVirtualCall_31P12Il2CppObjectiS0_S0_PK10MethodInfo
Xbi:__Z55RuntimeInvoker_Int32_t2071877448_UICharInfo_t3056636800PK10MethodInfoPvPS2_
rCa:__ZN7ApiGLES10DrawArraysE16GfxPrimitiveTypejjj
Bpi:_Event_PopEvent_m1952528237
ZG:__ZN10SampleClip13LoadBaseSoundEv
mVh:__Z62RuntimeInvoker_Il2CppObject_Int32_t2071877448_SByte_t454417549PK10MethodInfoPvPS2_
axj:__ZN15dense_hashtableINSt3__24pairIK10KeyWrapperIP12Il2CppObjectEN6il2cpp2gc9CachedCCWEEES5_NS7_5utils11PointerHashIS3_EEN14dense_hash_mapIS5_S9_SD_NS5_14EqualsComparerINS0_8equal_toIS4_EEEENS0_9allocatorISA_EEE9SelectKeyESI_SK_E15insert_noresizeERKSA_
tKe:_Collection_1_Contains_m643401393_gshared
Yia:__ZN22DeviceMVPMatricesStateC2ER9GfxDevice
JZh:__Z48RuntimeInvoker_Int64_t909078037_Int64_t909078037PK10MethodInfoPvPS2_
ijd:_String__ctor_m372528291
bn:FUNCTION_TABLE_iifii
zoj:__ZN6il2cpp2vm10Reflection12HasAttributeEP9FieldInfoP11Il2CppClass
cna:__ZNSt3__26__treeIiNS_4lessIiEE13stl_allocatorIiL18MemLabelIdentifier1ELi16EEE7destroyEPNS_11__tree_nodeIiPvEE
oc:invoke_viiifi
Oqi:_AnimationClipPlayable_GetSpeed_m668389965
B9e:_LongComparer_Compare_m3981323622
gTh:__Z64RuntimeInvoker_UInt64_t2909196914_Il2CppObject_Int32_t2071877448PK10MethodInfoPvPS2_
uYd:_ContentSizeFitter_get_horizontalFit_m892469688
rsg:__ZL109LayoutUtility_t4076838048_CustomAttributesCacheGenerator_LayoutUtility_U3CGetFlexibleHeightU3Em__7_m947156537P21CustomAttributesCache
Thf:__ZN23InterfaceActionInvoker2IP8String_tP12Il2CppObjectE6InvokeEjP11Il2CppClassS3_S1_S3_
Zyh:_Slider_FindSelectableOnUp_m15474611
Ora:__ZNK11AssetBundle14GetPreloadDataEiR13dynamic_arrayIiLj4EE
Ljf:_EncryptedData_get_EncryptedContent_m2732115576
YXh:__Z81RuntimeInvoker_Boolean_t3825574718_SByte_t454417549_Il2CppObject_SByte_t454417549PK10MethodInfoPvPS2_
qf:_JS_Sound_SetPosition
SDi:_Assertion_set_FalseExpression_m1781616372
BIf:_X509SubjectKeyIdentifierExtension_FromHexChars_m2515150420
apa:__ZNK9Texture3D26CanReuploadDataToGfxDeviceEv
Q9i:__ZL13GetSharedInstPK17Il2CppGenericInst
XOf:__ZL51IReflect_t3412036974_CustomAttributesCacheGeneratorP21CustomAttributesCache
kVd:_StandaloneInputModule_SendSubmitEventToSelectedObject_m3421155293
OIc:__ZN13ProduceHelperI10Collider2DLb1EE7ProduceE18MemLabelIdentifier18ObjectCreationMode
qni:_Component_GetComponentsInChildren_m908027537
u5c:__ZN22BaseUnityConnectClient17SaveSessionValuesEv
nAi:_CallContextRemotingData_Clone_m2226242476
b2:__Z63ThreadAndSerializationSafeCheckSetMonoBehaviourBeingTransferredP13MonoBehaviour
Z_a:__Z24SetupActiveLightsContextR21ActiveLightingContextRK12ActiveLightsRK11CullResultsP14ShadowMapCacheRK10MinMaxAABB
elh:_Dictionary_2_System_Collections_Generic_ICollectionU3CSystem_Collections_Generic_KeyValuePairU3CTKeyU2CTValueU3EU3E_Contains_m3400497673_gshared
Mic:__Z38Sprite_CUSTOM_INTERNAL_get_textureRectP12Il2CppObjectP5RectTIfE
iJd:_DBNull_System_IConvertible_ToUInt32_m2681284284
lnj:__ZNK15dense_hashtableINSt3__24pairIK10KeyWrapperIPK22Il2CppGenericParameterEPK24MonoGenericParameterInfoEES6_N6il2cpp5utils11PointerHashIS4_EEN14dense_hash_mapIS6_SA_SF_NS6_14EqualsComparerINS0_8equal_toIS5_EEEENS0_9allocatorISB_EEE9SelectKeyESK_SM_E3endEv
a7g:_HumanBone_set_boneName_m2410239828_AdjustorThunk
hjb:__ZN6Camera8TransferI24GenerateTypeTreeTransferEEvRT_
Mph:_EqualityComparer_1__cctor_m416314417_gshared
Ka:invoke_iiiiiiif
Ga:invoke_iiiiiiii
YBb:__ZN24RingBufferMemoryFileData16ConsumeReadBytesEy
t9g:_Mesh_GetUVChannel_m364477864
UGf:_X509ChainElementCollection_Contains_m3599995067
k2a:__ZN8Renderer17PendingAddToSceneEv
P1j:b123
O1j:b122
R1j:b125
Q1j:b124
T1j:b127
S1j:b126
V1j:b129
aic:__Z52Register_UnityEngine_RectTransform_INTERNAL_get_rectv
NPh:__Z53RuntimeInvoker_Il2CppObject_Il2CppObject_Il2CppObjectPK10MethodInfoPvPS2_
o_:__Z21PostprocessStacktracePKcRN4core12basic_stringIcNS1_20StringStorageDefaultIcEEEE
oze:_List_1_ToArray_m2390522926_gshared
zUf:__ZL70TypeLibImportClassAttribute_t2390314680_CustomAttributesCacheGeneratorP21CustomAttributesCache
jca:__ZN19RenderBufferManager13GetTempBufferEii17DepthBufferFormat19RenderTextureFormatj22RenderTextureReadWrite14VRTextureUsagei
lzb:__ZN18StreamedBinaryReadILb0EE21TransferSTLStyleArrayI13dynamic_arrayI16SplashScreenLogoLj4EEEEvRT_17TransferMetaFlags
xOa:__ZNSt3__26vectorIPN9ShaderLab9SubShaderENS_9allocatorIS3_EEE21__push_back_slow_pathIKS3_EEvRT_
I9d:_Array_InternalArray__ICollection_Remove_TisX509ChainStatus_t4278378721_m4127982424_gshared
Mdc:__Z47Register_UnityEngine_Camera_get_allCamerasCountv
Lfi:__Z37RuntimeInvoker_Enumerator_t2809602155PK10MethodInfoPvPS2_
wcd:___clang_call_terminate
x5c:__ZN22BaseUnityConnectClient20StartEventDispatcherEv
j8b:__ZNSt3__26vectorIj13stl_allocatorIjL18MemLabelIdentifier1ELi16EEE6assignIPKtEENS_9enable_ifIXaasr21__is_forward_iteratorIT_EE5valuesr16is_constructibleIjNS_15iterator_traitsIS9_E9referenceEEE5valueEvE4typeES9_S9_
zs:__ZN7mecanim9animation16EvaluateAvatarIKEPKNS0_14AvatarConstantEPKNS0_11AvatarInputEPNS0_12AvatarOutputEPNS0_12AvatarMemoryEPNS0_15AvatarWorkspaceEb
UCa:__ZL25ProgramUniformMatrix4x3fvPK7ApiGLESjiihPKv
$8a:__Z29StdTemplateConversionFunctionIsiEbPvR14SafeBinaryRead
P3h:__Z83RuntimeInvoker_Il2CppObject_RayU26_t3651946800_Single_t2076509932_Int32_t2071877448PK10MethodInfoPvPS2_
DOa:__ZN12InputManager13InputEndFrameEv
_zd:_SyncHashtable__ctor_m2029869827
Qcj:__ZNSt3__26__treeIP11Il2CppClassNS_4lessIS2_EENS_9allocatorIS2_EEE25__emplace_unique_key_argsIS2_JRKS2_EEENS_4pairINS_15__tree_iteratorIS2_PNS_11__tree_nodeIS2_PvEEiEEbEERKT_DpOT0_
xqj:__ZN6il2cpp2vm6Thread5SetupEP12Il2CppThread
pTe:_ReadOnlyCollection_1_System_Collections_IList_Remove_m2200089035_gshared
IFe:_Collection_1_CheckWritable_m2756357359_gshared
YPj:___munmap
U3d:_InputField_get_characterLimit_m2386380888
ong:__ZL68ColorBlock_t2652774230_CustomAttributesCacheGenerator_m_PressedColorP21CustomAttributesCache
ZEd:_Convert_ToInt64_m1722087499
hg:_localtime_r
F2h:__Z74RuntimeInvoker_Vector3_t2243707580_Vector3_t2243707580_Vector3_t2243707580PK10MethodInfoPvPS2_
_1h:__Z80RuntimeInvoker_Il2CppObject_Ray_t2469606224_Single_t2076509932_Int32_t2071877448PK10MethodInfoPvPS2_
w_f:__ZL81AppDomain_t2719102437_CustomAttributesCacheGenerator_assembly_resolve_in_progressP21CustomAttributesCache
lUf:__ZL65InterfaceTypeAttribute_t4113096249_CustomAttributesCacheGeneratorP21CustomAttributesCache
jg:_strftime
tca:__ZN7Texture33SetStoredColorSpaceNoDirtyNoApplyE17TextureColorSpace
gY:__ZN12FileAccessorD2Ev
Uha:__ZN10ColorRGBAf8TransferI18StreamedBinaryReadILb0EEEEvRT_
Ttb:__ZN14VertexDataInfoC2Ev
nOd:_Exception_GetObjectData_m2653827630
n8f:__ZL75Mesh_t1356156583_CustomAttributesCacheGenerator_Mesh_HasChannel_m3616583481P21CustomAttributesCache
_Pi:_Vector3_Equals_m2692262876_AdjustorThunk
_Fh:_InternalEnumerator_1_get_Current_m2415979394_gshared
aOb:__ZL17Transfer_GUIStyleI18StreamedBinaryReadILb1EELb1EEvRK29SerializationCommandArgumentsR31RuntimeSerializationCommandInfo
Zvh:_ScrollRect_SetDirtyCaching_m1491302821
jdj:__ZN6il2cpp6icalls8mscorlib6SystemL9IsPrivateEPK12PropertyInfo
jFg:_CustomAttributeData_GetCustomAttributes_m3258419955
N0:__ZN9shadertag10InitializeEv
dVa:__ZN13BatchRenderer20RenderSingleWithPassER17ShaderPassContextPK18SharedMaterialDataP6ShaderPN9ShaderLab4PassEiPKNS7_10GrabPassesEjib15BatchBreakCause
eag:__ZL80Object_t1021602117_CustomAttributesCacheGenerator_Object_Instantiate_m2489341053P21CustomAttributesCache
Qmd:_EncoderFallback__ctor_m1639180960
YD:__Z92Register_UnityEngine_Experimental_Director_AnimationOffsetPlayable_INTERNAL_CALL_SetRotationv
BMh:_InternalEnumerator_1_MoveNext_m1441038493_gshared
Frb:__ZN15QualitySettings14QualitySetting8TransferI24GenerateTypeTreeTransferEEvRT_
Ffe:_Array_InternalArray__ICollection_CopyTo_TisParameterModifier_t1820634920_m4127516211_gshared
omd:_DecoderReplacementFallback__ctor_m2344783488
Lfh:_Enumerator_System_Collections_IDictionaryEnumerator_get_Key_m467957770_AdjustorThunk
Eff:_SequentialSearchPrimeGeneratorBase_GenerateNewPrime_m545729286
xZc:__Z28Font_Get_Custom_PropMaterialP12Il2CppObject
_Ij:__ZN6il2cpp6icalls8mscorlib6System9Threading16NativeEventCalls19ResetEvent_internalE12Il2CppIntPtr
Vkg:__ZL65EventTrigger_t1967201810_CustomAttributesCacheGenerator_delegatesP21CustomAttributesCache
wxc:__ZL34CleanupModule_PerformanceReportingv
IHe:_Collection_1_Remove_m4136193368_gshared
$Rd:_EventTrigger_OnPointerUp_m2791622548
gyh:_Shadow_set_useGraphicAlpha_m141905402
C6b:__ZN22BlockMemoryCacheWriter14LockCacheBlockEjPPhS1_
XAj:__ZN6il2cpp2os6Thread10RunWrapperEPv
dmc:__ZNSt3__218__insertion_sort_3IRPFbPKN5IMGUI9GUIWindowES4_EPPS2_EEvT0_SA_T_
lZi:_GenericEqualityComparer_1_Equals_m1109000020_gshared
Mvg:_RealProxy_InternalGetTransparentProxy_m3415358600
Suc:__Z22TransferField_NonArrayI8JSONRead27Converter_SimpleNativeClassI8GUIStyleEEvRK23StaticTransferFieldInfoR31RuntimeSerializationCommandInfoRT0_
X6i:__ZN15dense_hashtableI10KeyWrapperIPK19Il2CppGenericMethodES4_N6il2cpp8metadata23Il2CppGenericMethodHashEN14dense_hash_setIS4_S7_NS4_14EqualsComparerINS6_26Il2CppGenericMethodCompareEEENSt3__29allocatorIS4_EEE8IdentityESB_SE_E16reset_thresholdsEv
nse:__ZN23InterfaceActionInvoker2IP24ObjectU5BU5D_t3614634134iE6InvokeEjP11Il2CppClassP12Il2CppObjectS1_i
qdg:__ZL131AnimatorControllerPlayable_t4078305555_CustomAttributesCacheGenerator_AnimatorControllerPlayable_PlayInternal_m3385259863____layer2P21CustomAttributesCache
Pg:_llvm_eh_typeid_for
B4b:__Z13RegisterClassI10GameObjectEvv
xQf:__ZL53HashValues_t2390200547_CustomAttributesCacheGeneratorP21CustomAttributesCache
EFf:_X509BasicConstraintsExtension_get_PathLengthConstraint_m3004531343
_Rf:__ZL125GenericTypeParameterBuilder_t1370236603_CustomAttributesCacheGenerator_GenericTypeParameterBuilder_GetConstructors_m103067670P21CustomAttributesCache
K8e:_MissingMemberException__ctor_m4277447068
use:_List_1_Find_m1881447651_gshared
zPg:_StrongNameKeyPair_System_Runtime_Serialization_ISerializable_GetObjectData_m1693082120
BBf:_NameValueCollection__ctor_m1767369537
RPb:__Z18Transfer_BlittableI18StreamedBinaryReadILb0EELb1E8Vector4fEvRK29SerializationCommandArgumentsR31RuntimeSerializationCommandInfo
Drh:_EqualityComparer_1__ctor_m3155445483_gshared
KBj:__ZN6il2cpp2vm6Method8GetParamEPK10MethodInfoj
o0e:_Int64_CompareTo_m1953686218
IYi:_GenericComparer_1__ctor_m221205314_gshared
Stj:__ZN6il2cpp6icalls8mscorlib6System2IO6MonoIO4ReadE12Il2CppIntPtrP11Il2CppArrayiiPi
v0j:_glBindVertexArray__wrapper
lCg:_DSA_Create_m3450041777
Oga:__ZN8Material8TransferI14SafeBinaryReadEEvRT_
Aoi:_Debug_LogWarningFormat_m79553173
vnb:__ZN12CubemapArray17UploadToGfxDeviceEv
zwh:_ScrollRect_AdjustBounds_m1033723448
fla:__ZN6prcoreL17RemapGenericFloatI15TexFormatRGHalf17TexFormatRGBAHalfEEvPKNS_9InnerInfoE
Npe:_Enumerator_System_Collections_IEnumerator_Reset_m2200349770_gshared
pLe:_Collection_1_get_Item_m3791221403_gshared
NXf:__ZL54PaddingMode_t3032142640_CustomAttributesCacheGeneratorP21CustomAttributesCache
hqj:__ZN24dense_hashtable_iteratorINSt3__24pairIK10KeyWrapperIP11Il2CppClassES4_EES5_N6il2cpp8metadata16SZArrayClassHashEN14dense_hash_mapIS5_S4_SA_NS5_14EqualsComparerINS9_19SZArrayClassCompareEEENS0_9allocatorIS7_EEE9SelectKeyESE_SG_E30advance_past_empty_and_deletedEv
O9h:__Z75RuntimeInvoker_Void_t1841601450_ConstraintU26_t2775779428_Int32_t2071877448PK10MethodInfoPvPS2_
L6:__ZN13RuntimeStaticI21AssetReferenceStorageLb0EE16StaticInitializeEPv
J$h:__Z107RuntimeInvoker_Boolean_t3825574718_Int32_t2071877448_Int64U5BU5DU26_t2476256456_StringU5BU5DU26_t3730240492PK10MethodInfoPvPS2_
qGf:_X509Chain_CheckRevocationOnChain_m2441901351
LIj:__ZN6il2cpp2vm13ManagedObject14QueryInterfaceERK10Il2CppGuidPPv
Ied:_SymmetricAlgorithm_CreateDecryptor_m4240570785
WWg:_Type_GetMethod_m3650909507
tH:__ZN11AudioSource4StopEb
zOj:_frexp
KHb:__ZN14SafeBinaryRead21TransferSTLStyleArrayI13dynamic_arrayI10Matrix4x4fLj4EEEEvRT_17TransferMetaFlags
uLe:_Collection_1_CheckWritable_m732350052_gshared
usd:_Byte_System_IConvertible_ToDecimal_m1036493607
m_f:__ZL47Timer_t791717973_CustomAttributesCacheGeneratorP21CustomAttributesCache
nba:__Z25GetSplashScreenBackgroundRK5RectTIfE
w9:__ZN14dense_hash_mapIPKcPK4RTTIN11TypeManager23ConstCharPtrHashFunctorENS5_19ConstCharPtrEqualToE13stl_allocatorINSt3__24pairIKS1_S4_EEL18MemLabelIdentifier6ELi16EEEixERSB_
vog:__ZL65Image_t2042527209_CustomAttributesCacheGenerator_m_PreserveAspectP21CustomAttributesCache
t8c:__ZN13RuntimeStaticI19UnityConnectServiceLb0EE16StaticInitializeEPv
$Mh:_DefaultComparer_Compare_m1247109616_gshared
OPg:_ResourceManager__ctor_m498829021
XGa:__ZN18GlslGpuProgramGLESD2Ev
K6a:__ZN13RenderTexture14SetVolumeDepthEi
vyg:_SerializationCallbacks__ctor_m722356782
wvc:__ZN10Matrix4x4f8TransferI8JSONReadEEvRT_
L3:__ZN14dense_hash_mapIPKcPK4RTTIN11TypeManager23ConstCharPtrHashFunctorENS5_19ConstCharPtrEqualToE13stl_allocatorINSt3__24pairIKS1_S4_EEL18MemLabelIdentifier6ELi16EEE5beginEv
mUf:__ZL49Marshal_t785896760_CustomAttributesCacheGeneratorP21CustomAttributesCache
R1:__ZN17PersistentManager18ReadObjectThreadedEi
_xa:__ZN25TransformFeedbackSkinning31CleanupTransformFeedbackShadersEv
oFj:__ZN6il2cpp6icalls8mscorlib6System7Runtime16CompilerServices14RuntimeHelpers15InitializeArrayEP11Il2CppArray12Il2CppIntPtr
xHh:_InternalEnumerator_1_System_Collections_IEnumerator_get_Current_m2851415307_gshared
nMc:__ZNK20TextRenderingPrivate8FontImpl19GetCharacterAdvanceEjijfPj
jLj:__ZN6il2cpp6icalls8mscorlib4Mono8Security12Cryptography18KeyPairPersistence16_IsUserProtectedEP12Il2CppString
lRe:_ReadOnlyCollection_1_Contains_m3936562733_gshared
SBf:_DefaultUriParser__ctor_m4218024811
JGg:_DerivedType_GetField_m3960169619
LJd:_Decimal_System_IConvertible_ToInt16_m3159038792_AdjustorThunk
Asb:__ZN10VertexData8TransferI18StreamedBinaryReadILb0EEEEvRT_
okf:_PKCS12_GetExistingParameters_m2413397265
sSi:_Nullable_1_get_Value_m1743067844_gshared
HJe:_Collection_1_ClearItems_m4268731177_gshared
W6a:__ZN14PreloadManager16UpdatePreloadingEv
Bib:__ZN12BaseRendererD2Ev
sIi:_X509CertificateCollection__ctor_m858704242
Nqe:_Enumerator__ctor_m425576865_AdjustorThunk
rUh:__Z148RuntimeInvoker_Int32_t2071877448_Il2CppObject_Int32_t2071877448_Int32_t2071877448_Il2CppObject_Int32_t2071877448_Int32_t2071877448_Int32_t2071877448PK10MethodInfoPvPS2_
mTe:_ReadOnlyCollection_1_System_Collections_IList_Contains_m1545447998_gshared
iDj:__ZN14dense_hash_mapI10KeyWrapperIPK19Il2CppGenericMethodEP10MethodInfoN6il2cpp8metadata23Il2CppGenericMethodHashENS4_14EqualsComparerINS8_26Il2CppGenericMethodCompareEEENSt3__29allocatorINSD_4pairIKS4_S6_EEEEEC2EjRKS9_RKSC_
ccb:__ZNK21UnityDefaultAllocatorI17LowLevelAllocatorE8ContainsEPKv
Xaj:__ZNSt3__213__vector_baseI6pollfdNS_9allocatorIS1_EEED2Ev
Ztf:_ClientSessionInfo_get_Id_m3046630969
Zh:_emscripten_get_main_loop_timing
J2e:_DirectoryInfo__ctor_m3750996792
DWd:_BaseMeshEffect_ModifyMesh_m2134816219
Die:_Array_qsort_TisVector2_t2243707579_m3527759534_gshared
Erb:__ZN24GenerateTypeTreeTransfer21TransferSTLStyleArrayINSt3__26vectorIN15QualitySettings14QualitySettingENS1_9allocatorIS4_EEEEEEvRT_17TransferMetaFlags
Meh:_ResourceRequest_t2560315377_marshal_pinvoke_cleanup
_4a:__ZN23ManagedAttributeManager52CallManagedGetParentTypeDisallowingMultipleInclusionE17ScriptingClassPtr
ume:_Array_InternalArray__get_Item_TisAnimatorClipInfo_t3905751349_m2163447872_gshared
yze:_List_1_System_Collections_Generic_IEnumerableU3CTU3E_GetEnumerator_m166627113_gshared
Exb:__ZNSt3__26vectorI9InputAxisNS_9allocatorIS1_EEE6resizeEj
nce:__ZN21InterfaceFuncInvoker2Ii19Vector2_t2243707579S0_E6InvokeEjP11Il2CppClassP12Il2CppObjectS0_S0_
kVa:__ZN13BatchRendererC2ER15RenderLoopStatsRK15RenderNodeQueuebbb
dgd:_SecurityElement_IsValidAttributeValue_m483287146
mmd:_Decoder_set_Fallback_m1780632169
np:getTempRet0
K4h:__Z81RuntimeInvoker_Void_t1841601450_PlayableHandleU26_t3483893774_Vector3_t2243707580PK10MethodInfoPvPS2_
Vqi:_AnimationClipPlayable_set_applyFootIK_m1054409049
aod:_ArithmeticException__ctor_m104771799
aXh:__Z114RuntimeInvoker_Void_t1841601450_Il2CppObject_Il2CppObject_Int32_t2071877448_Il2CppObject_Il2CppObject_Il2CppObjectPK10MethodInfoPvPS2_
BEg:_AssemblyTitleAttribute__ctor_m1696431446
c3d:_Image_AddQuad_m1603575622
ODj:__ZN24dense_hashtable_iteratorINSt3__24pairIK10KeyWrapperIPK19Il2CppGenericMethodEP10MethodInfoEES6_N6il2cpp8metadata23Il2CppGenericMethodHashEN14dense_hash_mapIS6_S9_SD_NS6_14EqualsComparerINSC_26Il2CppGenericMethodCompareEEENS0_9allocatorISA_EEE9SelectKeyESH_SJ_E30advance_past_empty_and_deletedEv
mqf:_PrivateKeyInfo_RemoveLeadingZero_m3396807048
bNe:_ReadOnlyCollection_1_System_Collections_Generic_ICollectionU3CTU3E_get_IsReadOnly_m1251192075_gshared
lse:_List_1_GrowIfNeeded_m185971996_gshared
srj:__ZN6il2cpp6icalls8mscorlib6System9ThreadingL21lookup_cached_cultureEP12Il2CppThreadi
V$a:__ZN18DeferredRenderLoopD2Ev
OIg:_GenericTypeParameterBuilder_GetMethods_m1243855818
E4:__ZNK16TypeTreeIterator4NameEv
FX:__ZN15FileSystemEntry3SetEPKc
Afj:_il2cpp_method_has_attribute
aMh:_InternalEnumerator_1__ctor_m2808001655_gshared
pad:_MACTripleDES__ctor_m884945242
$I:__ZN20SoundChannelInstance15ParameterBuffer5ApplyEPN4FMOD7ChannelE
s1i:__ZL24UnresolvedVirtualCall_52P12Il2CppObjectPK10MethodInfo
Qvb:__ZN23SharedMeshRenderingDataD0Ev
bF:__Z117Register_UnityEngine_Experimental_Director_AnimatorControllerPlayable_INTERNAL_CALL_GetAnimatorTransitionInfoInternalv
kMc:__ZN20TextRenderingPrivate19NativeTextGenerator9InsertTabEv
jNf:__ZL73Enum_t2459695545_CustomAttributesCacheGenerator_Enum_ToObject_m1688724857P21CustomAttributesCache
c2g:_Rect_set_y_m4294916608
K5c:__ZN11UnityEngine15PlatformWrapper24GetRuntimePlatformStringEv
Hi:_glIsEnabled
ARb:__ZN15CacheWriterBaseD2Ev
Gqg:__ZL56Slider_t297367283_CustomAttributesCacheGenerator_m_ValueP21CustomAttributesCache
$Db:__Z25scripting_class_get_image17ScriptingClassPtr
U8f:__ZL85Material_t193706927_CustomAttributesCacheGenerator_Material_GetTextureImpl_m623159197P21CustomAttributesCache
Li:_emscripten_glDrawElementsInstanced
Dz:__ZN26AnimatorControllerPlayable27SetupStateMachineBehavioursEv
Oof:_ARC4Managed_Dispose_m4102232694
gpf:_HMAC_Initialize_m3052649104
Jqa:__ZN18JobBatchDispatcherD2Ev
hXb:__ZN9Transform17MainThreadCleanupEv
yHj:_GC_clear_hdr_marks
tXj:_glScissor__wrapper
q1j:_emscripten_glCreateShader__wrapper
G3d:_InputField_get_caretSelectPositionInternal_m3523572533
PUc:_cff_fd_select_get
Xcg:__ZL123AnimatorControllerPlayable_t4078305555_CustomAttributesCacheGenerator_AnimatorControllerPlayable_PlayInFixedTime_m172593751P21CustomAttributesCache
STf:__ZL73CompilationRelaxationsAttribute_t238494011_CustomAttributesCacheGeneratorP21CustomAttributesCache
hfg:__ZL95CanvasRenderer_t261436805_CustomAttributesCacheGenerator_CanvasRenderer_SetMaterial_m1462355522P21CustomAttributesCache
hAh:_Text_get_minHeight_m1562513104
ged:_SHA512Managed_processBlock_m3220567420
fBf:_NameObjectCollectionBase_get_Keys_m446053925
Vi:_emscripten_glGetShaderiv
Wgh:_Transform_1__ctor_m353209818_gshared
ENa:__ZZ23InitPlayerLoopCallbacksvEN41EarlyUpdateUpdateAllUnityWebStreamsstruct7ForwardEv
bK:__ZN4FMOD6System10getVersionEPj
i3e:_FileLoadException_GetObjectData_m2047020314
qig:__ZL96RemoteSettings_t392466225_CustomAttributesCacheGenerator_RemoteSettings_CallOnUpdate_m1624968574P21CustomAttributesCache
vde:_Array_InternalArray__IndexOf_TisSByte_t454417549_m1427585061_gshared
QQh:__Z75RuntimeInvoker_Byte_t3683104436_Il2CppObject_Int32_t2071877448_Il2CppObjectPK10MethodInfoPvPS2_
e_c:__ZN2UI6Canvas23VirtualRedirectTransferER24GenerateTypeTreeTransfer
eCd:_Decimal_u64_m3991988111
_Qi:_YieldInstruction_t3462875981_marshal_pinvoke
ZSi:_Predicate_1_BeginInvoke_m2959352225_gshared
fmh:_Dictionary_2_CopyToCheck_m2147716750_gshared
MIi:_X509Certificate_Parse_m1764345628
Dzi:_SynchronizationAttribute_GetClientContextSink_m1264319894
SKc:__ZN13TextRendering4Font13AwakeFromLoadE17AwakeFromLoadMode
Zua:__ZN9GfxDevice21ReleaseSharedMeshDataEP14SharedMeshData
Dlf:_SmallXmlParser_Peek_m2814840810
uyb:__ZNSt3__27__sort5IRNS_6__lessINS_4pairIPKN5Unity4TypeE7Hash128EES8_EEPS8_EEjT0_SC_SC_SC_SC_T_
yAd:_Enumerator_Reset_m466659019
P5i:__ZNK15dense_hashtableINSt3__24pairIK10KeyWrapperIPKcEP11Il2CppClassEES5_N6il2cpp5utils11StringUtils12StringHasherIS4_EEN14dense_hash_mapIS5_S8_SE_NS5_14EqualsComparerINSC_21CaseSensitiveComparerEEENS0_9allocatorIS9_EEE9SelectKeyESI_SK_E10test_emptyEj
TUi:_UnityAction_1_EndInvoke_m2822290096_gshared
FGj:_GC_unreachable_finalize_mark_proc
$3h:__Z75RuntimeInvoker_Il2CppObject_PlayableHandleU26_t3483893774_Int32_t2071877448PK10MethodInfoPvPS2_
bIj:_maybe_finalize
sHe:_Collection_1_System_Collections_ICollection_get_SyncRoot_m2547259708_gshared
BAi:_ConstructionCall_GetObjectData_m3974358557
Uhc:__Z43RectTransform_CUSTOM_INTERNAL_get_anchorMaxP12Il2CppObjectP13Vector2fIcall
RId:_DateTimeOffset_get_DateTime_m229084964_AdjustorThunk
Bga:__ZN8Material28UpdateHashesOnPropertyChangeEN9ShaderLab16FastPropertyNameE
Gic:__Z53Register_UnityEngine_SortingLayer_GetLayerValueFromIDv
Mpe:_Enumerator__ctor_m3512622280_AdjustorThunk
Fqh:_EqualityComparer_1_System_Collections_IEqualityComparer_Equals_m349194518_gshared
Dxd:_CaseInsensitiveComparer_Compare_m1192858479
NFb:__Z18Transfer_BlittableI14SafeBinaryReadLb1E8Vector4fEvRK29SerializationCommandArgumentsR31RuntimeSerializationCommandInfo
S5e:_StreamAsyncResult_set_Done_m4272090534
w7d:_LayoutRebuilder_Clear_m2390054824
NIe:_Collection_1_System_Collections_IList_Insert_m2968289909_gshared
VEg:_Default_SelectMethod_m622251293
hM:__ZN11AudioSource12AddToManagerEv
Qr:__ZN8Animator23VirtualRedirectTransferER19StreamedBinaryWriteILb0EE
dAi:_AsyncResult_get_NextSink_m1172723924
Tv:__ZN11UnityEngine9Animation32CreateAnimatorGenericBindingsOptERKNS0_20AnimationSetBindingsER9TransformPKN7mecanim9animation14AvatarConstantEPKNS0_21AvatarBindingConstantEbRNS6_6memory9AllocatorER8Animator
Lxj:__ZN6il2cpp2vm5Image13ClassFromNameEPK11Il2CppImagePKcS6_
vTj:dynCall_vdddddd
sUb:__ZN24GenerateTypeTreeTransfer21TransferSTLStyleArrayINSt3__26vectorIN9ShaderLab14SerializedPassENS1_9allocatorIS4_EEEEEEvRT_17TransferMetaFlags
w1:__ZL32MarkLevelGameManagerDependenciesR27GarbageCollectorThreadState
b1h:__Z49RuntimeInvoker_Void_t1841601450_UInt16_t986882611PK10MethodInfoPvPS2_
hxa:__ZNK13GfxDeviceGLES26HasActiveRandomWriteTargetEv
yei:__Z37RuntimeInvoker_ILTokenInfo_t149559338PK10MethodInfoPvPS2_
kYj:_glGetActiveUniformsiv__wrapper
Dic:__Z43Register_UnityEngine_Material_EnableKeywordv
W2:__ZN13MonoBehaviour19SetupScriptingCacheE17ScriptingClassPtrP10MonoScript
s$h:__Z59RuntimeInvoker_Il2CppObject_Double_t4078015681_Il2CppObjectPK10MethodInfoPvPS2_
gr:__Z20AnimationEventToMonoRK14AnimationEventR18MonoAnimationEvent
o8f:__ZL85Mesh_t1356156583_CustomAttributesCacheGenerator_Mesh_ExtractArrayFromList_m1349408169P21CustomAttributesCache
k0h:__Z83RuntimeInvoker_Void_t1841601450_Il2CppObject_Il2CppObject_Il2CppObject_Il2CppObjectPK10MethodInfoPvPS2_
A1:__ZNK15dense_hashtableINSt3__24pairIKiiEEi21InstanceIDHashFunctorN14dense_hash_mapIiiS4_NS0_8equal_toIiEE13stl_allocatorIS3_L18MemLabelIdentifier1ELi16EEE9SelectKeyES7_SA_E13find_positionERS2_
ith:_Navigation_get_selectOnLeft_m3980387574_AdjustorThunk
aDe:_List_1_Sort_m2158253314_gshared
Jjg:__ZL74UnityEventBase_t828812576_CustomAttributesCacheGenerator_m_PersistentCallsP21CustomAttributesCache
Nmh:_DefaultComparer__ctor_m2265472997_gshared
utj:__ZN6il2cpp2vm13LivenessState18ShouldProcessValueEP12Il2CppObjectP11Il2CppClass
Dwb:__ZN4PPtrI6SpriteE8TransferI14SafeBinaryReadEEvRT_
npj:__ZN15dense_hashtableINSt3__24pairIK10KeyWrapperIP11Il2CppClassES4_EES5_N6il2cpp8metadata16SZArrayClassHashEN14dense_hash_mapIS5_S4_SA_NS5_14EqualsComparerINS9_19SZArrayClassCompareEEENS0_9allocatorIS7_EEE9SelectKeyESE_SG_E16reset_thresholdsEv
MWh:__Z45RuntimeInvoker_Il2CppObject_IntPtr_t_IntPtr_tPK10MethodInfoPvPS2_
QTb:__ZNSt3__26vectorIN9ShaderLab14SerializedPassENS_9allocatorIS2_EEE8__appendEj
hTb:__ZNSt3__26vectorIN9ShaderLab20SerializedSubProgram13BufferBindingENS_9allocatorIS3_EEEC2INS_11__wrap_iterIPS3_EEEET_SB_RKS5_PNS_9enable_ifIXaasr21__is_forward_iteratorISB_EE5valuesr16is_constructibleIS3_NS_15iterator_traitsISB_E9referenceEEE5valueEvE4typeE
zuf:_Context_get_SupportedCiphers_m2172827298
vW:__ZNK13ScreenManager21IsMultiDisplayEnabledEv
SAc:__ZN12b2WheelJoint24SolveVelocityConstraintsERK12b2SolverData
AUh:__Z170RuntimeInvoker_Int32_t2071877448_Il2CppObject_Int32_t2071877448_Int32_t2071877448_Il2CppObject_Int16_t4041245914_Int32_t2071877448_SByte_t454417549_ContextU26_t3131521781PK10MethodInfoPvPS2_
Oob:__ZN9Texture2D23VirtualRedirectTransferER18StreamedBinaryReadILb0EE
rCc:__ZN10Collider2D8TransferI24GenerateTypeTreeTransferEEvRT_
sMd:_Double_System_IConvertible_ToUInt16_m286326038_AdjustorThunk
Fwg:_TypeInfo__ctor_m1475908211
nib:__ZNSt3__26__treeINS_12__value_typeIN4core12basic_stringIcNS2_20StringStorageDefaultIcEEEEjEENS_19__map_value_compareIS6_S7_NS_4lessIS6_EELb1EEE13stl_allocatorIS7_L18MemLabelIdentifier6ELi16EEE7destroyEPNS_11__tree_nodeIS7_PvEE
C3:__ZN16ScriptingManager27NativeTypeForScriptingClassE17ScriptingClassPtr
rGf:_X509Chain_WrapUp_m1072032285
gKi:_X509CertificateEnumerator_System_Collections_IEnumerator_MoveNext_m1448966539
RRc:_get_sfnt_table
Tme:_Object_FindObjectOfType_TisIl2CppObject_m2967490724_gshared
uGe:_Collection_1_IsSynchronized_m3261594010_gshared
GPa:_unity_z_tr_stored_block
YPh:__Z46RuntimeInvoker_Single_t2076509932_Il2CppObjectPK10MethodInfoPvPS2_
Rbe:_Array_compare_TisIl2CppObject_m1481822507_gshared
nTd:_PointerEventData_set_pressPosition_m2094137883
oqb:__ZN8Renderer20RendererAddedToSceneEv
ldg:__ZL132AnimatorControllerPlayable_t4078305555_CustomAttributesCacheGenerator_AnimatorControllerPlayable_Play_m1100499576____normalizedTime2P21CustomAttributesCache
h1a:__ZL22ScheduleSceneNodesJobsP25ScheduleSceneNodesJobDataj
Jk:_emscripten_set_canvas_size
hOf:__ZL65Il2CppArray_CustomAttributesCacheGenerator_Array_Sort_m3645766612P21CustomAttributesCache
Anf:_BigInteger_op_Subtraction_m972393015
rOh:_Comparer_1__cctor_m2253684996_gshared
zTb:__ZNSt3__26vectorIN9ShaderLab20SerializedSubProgramENS_9allocatorIS2_EEE8__appendEj
XU:__ZN20DynamicHeapAllocatorI17LowLevelAllocatorE8AllocateEji
I3c:__ZN11UnityEngine9Analytics15UserCustomEvent12ToJsonStringER9JSONWrite
MVa:__ZN20DynamicPropertySheet15SetVectorQueuedERKN9ShaderLab16FastPropertyNameERK8Vector4fN19ShaderPropertySheet8SetFlagsE
Bkf:_PKCS12_get_IterationCount_m3572300030
Gji:_DefaultExecutionOrder_get_order_m1561221759
ZQe:_ReadOnlyCollection_1_System_Collections_IEnumerable_GetEnumerator_m4248982967_gshared
xs:__ZN7mecanim9animation22EvaluateAvatarRetargetEPKNS0_14AvatarConstantEPKNS0_11AvatarInputEPNS0_12AvatarOutputEPNS0_12AvatarMemoryEPNS0_15AvatarWorkspaceEb
G7d:_LayoutRebuilder_GetHashCode_m2745108660
Slb:__ZN14RenderSettings23VirtualRedirectTransferER19StreamedBinaryWriteILb0EE
Yrc:__ZL26Transfer_SimpleNativeClassI9JSONWrite10RectOffsetLb0EEvRK29SerializationCommandArgumentsR31RuntimeSerializationCommandInfo
ZGj:_GC_push_conditional
V3c:__ZN21UnityAnalyticsManager23VirtualRedirectTransferER24GenerateTypeTreeTransfer
JAa:__ZN17GenericDynamicVBO10AllocateVBEjR21DynamicVBOChunkHandle
Lte:_List_1_get_Item_m1547593893_gshared
kci:__Z70RuntimeInvoker_Void_t1841601450_CustomAttributeNamedArgument_t94157543PK10MethodInfoPvPS2_
u2e:_Path_GetPathRoot_m1269357080
Hvj:__ZN30dense_hashtable_const_iteratorI10KeyWrapperIP18Il2CppGenericClassES3_N6il2cpp8metadata22Il2CppGenericClassHashEN14dense_hash_setIS3_S6_NS3_14EqualsComparerINS5_25Il2CppGenericClassCompareEEENSt3__29allocatorIS3_EEE8IdentityESA_SD_EppEv
Dyd:_KeyNotFoundException__ctor_m264393096
ERd:_EventSystem_SetSelectedGameObject_m2211816110
ghh:_Transform_1__ctor_m4161450529_gshared
fl:_glMapBufferRange
Hob:__ZN9Texture2D8TransferI18StreamedBinaryReadILb0EEEEvRT_
Pfc:__Z31Input_CUSTOM_GetMouseButtonDowni
mOf:__ZL65Il2CppArray_CustomAttributesCacheGenerator_Array_Sort_m1730553742P21CustomAttributesCache
HDj:__ZN15dense_hashtableINSt3__24pairIK10KeyWrapperIPK19Il2CppGenericMethodEP10MethodInfoEES6_N6il2cpp8metadata23Il2CppGenericMethodHashEN14dense_hash_mapIS6_S9_SD_NS6_14EqualsComparerINSC_26Il2CppGenericMethodCompareEEENS0_9allocatorISA_EEE9SelectKeyESH_SJ_E3endEv
m5b:__ZN13PlayableGraph4PlayEv
wTa:__ZNK9Transform16GetLocalPositionEv
K7f:__ZL89Input_t1785128008_CustomAttributesCacheGenerator_Input_get_imeCompositionMode_m4250689464P21CustomAttributesCache
rod:_Array_System_Collections_ICollection_get_Count_m2897196527
Tra:__ZN13LoadOperation19IntegrateTimeSlicedEi
nrb:__ZNK15QualitySettings26GetTypeInfoVirtualInternalEv
fKf:_InterpreterFactory__ctor_m3331468903
Vkf:_X501__cctor_m3795360380
uxa:__ZN13GfxDeviceGLES22DispatchComputeProgramE12ObjectHandleI18ComputeProgram_TagPvE15ComputeBufferIDj
p6g:_GUIStyle_set_contentOffset_m2138084868
yGe:_Collection_1_System_Collections_ICollection_CopyTo_m4193844941_gshared
SEd:_Convert_ToInt32_m2297793940
nqa:__Z17TransformAABBSlowRK4AABBRK10Matrix4x4fRS_
Apb:__ZN15SerializeTraitsI13dynamic_arrayI7Hash128Lj8EEE19ResizeSTLStyleArrayERS2_i18MemLabelIdentifier
hoj:__ZN13Il2CppHashMapINSt3__24pairIPK9FieldInfoP11Il2CppClassEEj17ReflectionMapHashIS7_ENS0_8equal_toIS7_EENS0_9allocatorINS1_IK10KeyWrapperIS7_EjEEEEEC2EjRKS9_RKSB_
oSb:__ZN9ShaderLab21SerializedShaderState8TransferI14SafeBinaryReadEEvRT_
EQj:_ftruncate
edd:_RSAPKCS1SignatureFormatter_SetKey_m2365816458
m_e:_Int16_GetHashCode_m304503362_AdjustorThunk
MVc:_cf2_stack_pushInt
jB:__ZN7mecanim9animation20DestroyLayerConstantEPNS0_13LayerConstantERNS_6memory9AllocatorE
ESg:_CompressedStack__ctor_m276924800
TSd:_ExecuteEvents_get_cancelHandler_m1964324668
Mha:__ZN15SerializeTraitsINSt3__24pairIN4core12basic_stringIcNS2_20StringStorageDefaultIcEEEES6_EEE8TransferI24GenerateTypeTreeTransferEEvRS7_RT_
E_j:b89
D_j:b88
Yfg:__ZL70GUISettings_t622856320_CustomAttributesCacheGenerator_m_SelectionColorP21CustomAttributesCache
XZj:b81
WZj:b80
d_j:b83
f4:__ZN18ResourceImageGroup7CleanupEv
l_j:b85
esi:_AnimatorControllerPlayable_SetTrigger_m3144166126
C_j:b87
s_j:b86
fq:__ZN11Quaternionf8TransferI24GenerateTypeTreeTransferEEvRT_
tAh:_ToggleGroup_RegisterToggle_m3118973598
l3b:__ZN13ProduceHelperI4MeshLb0EE7ProduceE18MemLabelIdentifier18ObjectCreationMode
kqf:_PrivateKeyInfo_Decode_m1053025782
XHf:_X509ChainElementCollection_System_Collections_ICollection_CopyTo_m1467895312
Yjf:_PKCS12_Decrypt_m2457743414
_bg:__ZL87Animator_t69676727_CustomAttributesCacheGenerator_Animator_SetTriggerString_m2002790359P21CustomAttributesCache
Fmb:__ZN8Playable19SetOutputConnectionEPS_i
g5i:__ZN15dense_hashtableINSt3__24pairIK10KeyWrapperIPK11Il2CppClassEPKcEES6_N6il2cpp5utils11PointerHashIS3_EEN14dense_hash_mapIS6_S9_SE_NS6_14EqualsComparerINS0_8equal_toIS5_EEEENS0_9allocatorISA_EEE9SelectKeyESJ_SL_EC2ERKSO_j
Vl:_glDeleteShader
iOd:_Exception_GetType_m3898489832
ala:__ZN6prcoreL17RemapGenericFloatI15TexFormatRGHalf16TexFormatRGFloatEEvPKNS_9InnerInfoE
zDe:_Stack_1_Peek_m1548778538_gshared
zNa:__ZZ23InitPlayerLoopCallbacksvEN38EarlyUpdateExecuteMainThreadJobsstruct7ForwardEv
GQi:_Vector4_Dot_m2285943745
dyh:_Shadow_set_effectColor_m3110056844
Abh:_Physics2D_GetColliderFromInstanceID_m95920619
xbc:__Z27scripting_add_internal_callPKcPKv
Sge:_Array_InternalArray__Insert_TisUriScheme_t1876590943_m2728325409_gshared
Tnj:__ZN13Il2CppHashMapINSt3__24pairIPK9EventInfoP11Il2CppClassEEj17ReflectionMapHashIS7_ENS0_8equal_toIS7_EENS0_9allocatorINS1_IK10KeyWrapperIS7_EjEEEEEC2EjRKS9_RKSB_
lwj:__GLOBAL__sub_I_GarbageCollector_cpp
k0:__Z17GetPlayerSettingsv
k9h:__Z65RuntimeInvoker_KeyValuePair_2_t38854645_Il2CppObject_Il2CppObjectPK10MethodInfoPvPS2_
at:__ZN34BlobWriteTransferSTLStyleArrayImplI22OffsetPtrArrayTransferIiEEclERS1_17TransferMetaFlagsR9BlobWrite
tKi:_X509Store_CheckStore_m1027496478
cbi:__Z87RuntimeInvoker_Int32_t2071877448_UIVertex_t1204258818_UIVertex_t1204258818_Il2CppObjectPK10MethodInfoPvPS2_
mTf:__ZL82MethodBase_t904190842_CustomAttributesCacheGenerator_MethodBase_Invoke_m1075809207P21CustomAttributesCache
V4h:__Z93RuntimeInvoker_TextGenerationError_t780770201_Il2CppObject_TextGenerationSettings_t2543476768PK10MethodInfoPvPS2_
Vu:__ZN26AnimatorControllerPlayable18SetLayerAutoWeightEv
Kb:invoke_vffff
eRj:__ZNSt3__212basic_stringIcNS_11char_traitsIcEENS_9allocatorIcEEEC2ERKS5_jjRKS4_
zkd:_String_Contains_m4017059963
eke:_Array_swap_TisCustomAttributeNamedArgument_t94157543_TisCustomAttributeNamedArgument_t94157543_m3600072996_gshared
FMh:_DefaultComparer_Compare_m1606207039_gshared
o0c:__ZN2UI14CanvasRenderer12SyncMaterialENS0_8SyncFlagE
ZKj:__ZN6il2cpp2vm9Parameter30GetDefaultParameterValueObjectEPK10MethodInfoPK13ParameterInfoPb
Ehe:_Array_InternalArray__set_Item_TisLabelData_t3712112744_m2253365137_gshared
NMg:_MonoCMethod_get_Attributes_m3914742834
RJh:_InternalEnumerator_1__ctor_m142220063_AdjustorThunk
O9g:_MonoBehaviour_Invoke_m666563676
mGg:_ConstructorBuilder_get_DeclaringType_m4264602248
K6e:_StringReader__ctor_m643998729
NCf:_IPv6Address_TryParse_m2220524278
F_h:__Z75RuntimeInvoker_DateTime_t693205669_DateTime_t693205669_TimeSpan_t3430258949PK10MethodInfoPvPS2_
p7d:_U3CDelayedSetDirtyU3Ec__Iterator0_System_Collections_Generic_IEnumeratorU3CobjectU3E_get_Current_m2210283424
y9f:__ZL86Time_t31991979_CustomAttributesCacheGenerator_Time_get_realtimeSinceStartup_m357614587P21CustomAttributesCache
IRc:_UNITY_tt_face_done_kern
ryi:_Context_get_DefaultContext_m2211922324
fFg:_CustomAttributeData_get_NamedArguments_m708818174
Hoc:__Z59GUIStyle_CUSTOM_Internal_GetNumCharactersThatFitWithinWidth13Il2Cpp_IntPtrP12Il2CppStringf
Bqf:_RSAManaged_GetPaddedValue_m2972141669
Owh:_ScrollRect_OnDrag_m1424848249
Tvf:_TlsServerCertificate_ProcessAsSsl3_m277089231
mbe:_Array_InternalArray__IEnumerable_GetEnumerator_TisUInt16_t986882611_m3665860884_gshared
Daa:__Z19scripting_gc_enablev
LEi:_AnchorInfo__ctor_m617409099
E8a:__Z29StdTemplateConversionFunctionIihEbPvR14SafeBinaryRead
PIg:_GenericTypeParameterBuilder_GetMethodImpl_m528545634
i2c:__Z55Register_UnityEngine_CanvasRenderer_DisableRectClippingv
MKf:_Interval_CompareTo_m2909556284_AdjustorThunk
Ptb:__ZN14SafeBinaryRead21TransferSTLStyleArrayI13dynamic_arrayI11ColorRGBA32Lj4EEEEvRT_17TransferMetaFlags
yEh:_InternalEnumerator_1_System_Collections_IEnumerator_Reset_m1090540230_AdjustorThunk
fkg:__ZL83Logger_t3328995178_CustomAttributesCacheGenerator_Logger_get_logHandler_m4190583509P21CustomAttributesCache
Ysh:_Navigation_t1571958496_marshal_pinvoke
DJf:_Interpreter_GetLastDefined_m2450713313
aEi:_Parser_ParseAssertionType_m3316669790
Gxh:_Selectable_get_isPointerDown_m774209881
nNf:__ZL73Enum_t2459695545_CustomAttributesCacheGenerator_Enum_ToObject_m2460371738P21CustomAttributesCache
bXb:__ZNSt3__27__sort4IRNS_6__lessIN4core12basic_stringIcNS2_20StringStorageDefaultIcEEEES6_EEPS6_EEjT0_SA_SA_SA_T_
$Tj:dynCall_viiiifii
Fbh:_Plane_get_distance_m1834776091_AdjustorThunk
vmj:__ZN6il2cpp2gc19AppendOnlyGCHashMapINSt3__24pairIPK11Il2CppImageP11Il2CppClassEEP22Il2CppReflectionModule17ReflectionMapHashIS9_ENS2_8equal_toIS9_EEEC2Ev
O1:__Z20GetPersistentManagerv
ZYc:_UNITY_TT_Set_Var_Design
qyi:_Context_Finalize_m1386439645
eaa:__ZN21SystemInfoStringCache16StaticInitializeEPv
Yrf:_TlsStream__ctor_m4117943603
ijj:__ZN15dense_hashtableINSt3__24pairIK10KeyWrapperIPK10Il2CppTypeEjEES6_N6il2cpp8metadata14Il2CppTypeHashEN14dense_hash_mapIS6_jSB_NS6_14EqualsComparerINSA_26Il2CppTypeEqualityComparerEEENS0_9allocatorIS8_EEE9SelectKeyESF_SH_E12maybe_shrinkEv
vzh:_Text_FontTextureChanged_m4236993972
yCj:__ZN6il2cpp2gc16GarbageCollector23MakeDescriptorForObjectEPji
swj:__ZNK10KeyWrapperIP12Il2CppObjectE14EqualsComparerINSt3__28equal_toIS1_EEEclERKS2_S9_
oPg:_ParameterModifier_t1820634920_marshal_pinvoke
cDb:__ZNK13MonoBehaviour7GetNameEv
wtj:__ZN13dynamic_arrayIP12Il2CppObjectLj4EE9push_backEv
Kma:__ZN19ScriptingInvocation28AdjustArgumentsToMatchMethodEv
Tvj:__ZN15dense_hashtableI10KeyWrapperIP18Il2CppGenericClassES3_N6il2cpp8metadata22Il2CppGenericClassHashEN14dense_hash_setIS3_S6_NS3_14EqualsComparerINS5_25Il2CppGenericClassCompareEEENSt3__29allocatorIS3_EEE8IdentityESA_SD_E6insertERKS3_
dQd:_AbstractEventData_Use_m1797212290
hlb:__Z20RenderMultipleMeshesRK15RenderNodeQueueRK18RenderMultipleData17ShaderChannelMask
qhj:__ZN6il2cpp2vm4Type19GetGenericParameterEPK10Il2CppType
K1c:__Z51Register_UnityEngine_CanvasGroup_get_blocksRaycastsv
iLh:_InternalEnumerator_1_get_Current_m2826780083_gshared
L1j:b119
tvc:__ZN8JSONRead21TransferSTLStyleArrayI13dynamic_arrayI11ColorRGBA32Lj4EEEEvRT_18MemLabelIdentifier17TransferMetaFlags
osg:__ZL105LayoutUtility_t4076838048_CustomAttributesCacheGenerator_LayoutUtility_U3CGetMinHeightU3Em__4_m1769295917P21CustomAttributesCache
wmh:_Dictionary_2_GetEnumerator_m1752238884_gshared
Ekj:__ZNK15dense_hashtableINSt3__24pairIK10KeyWrapperINS1_IPK11Il2CppImageP11Il2CppClassEEEjEES9_17ReflectionMapHashIS8_EN14dense_hash_mapIS9_jSD_NS9_14EqualsComparerINS0_8equal_toIS8_EEEENS0_9allocatorISB_EEE9SelectKeyESI_SK_E3endEv
Dch:_RaycastHit2D_get_collider_m2568504212
lMh:_InternalEnumerator_1__ctor_m2782443954_AdjustorThunk
Ad:_glBeginQuery
JDg:_Assembly_GetCustomAttributes_m95309865
n1g:_GUILayoutUtility_INTERNAL_CALL_Internal_GetWindowRect_m3236664463
kNj:_BackgroundController__ctor_m3863892641
hJc:__ZN10Effector2D25CheckEffectorColliderMaskEP10Collider2DS1_
_Qa:__ZN6Camera12RenderStereoENS_10RenderFlagE8CullFlagPNS_24PerformEyeRenderFunctionE
OW:__ZN20LocalFileSystemPosix10ToAbsoluteEPKc
u1d:_GridLayoutGroup__ctor_m1099847132
xUh:__Z136RuntimeInvoker_Boolean_t3825574718_Il2CppObject_Il2CppObject_Int32_t2071877448_Int32_t2071877448_SByte_t454417549_ContextU26_t3131521781PK10MethodInfoPvPS2_
VBd:_Convert_ToBoolean_m48997236
DQa:_UNITY_png_default_flush
op:__ZN6Object17MainThreadCleanupEv
Jvd:_ArrayListWrapper_set_Capacity_m2792463350
Ckb:__Z32TransferEnumWithNameForceIntSizeI14SafeBinaryRead7HDRModeEvRT_RT0_PKc17TransferMetaFlags
uPj:_getcwd
AQg:_StringBuilder_Append_m1128243247
xBc:__ZN16b2CapsuleContact6CreateEP9b2FixtureiS1_iP16b2BlockAllocator
MEi:_AnchorInfo_get_Offset_m142119297
Nbb:__ZN25ThreadsafeLinearAllocatorD2Ev
GGd:_DateTime_get_Year_m1985210972
aba:__Z21SendMessageToEveryoneRK17MessageIdentifier11MessageData
m4g:_GUISkin_get_settings_m626844463
s7:__ZN21BillboardBatchManager16StaticInitializeEPv
q4g:_Object_get_name_m2079638459
J1j:b117
uZ:__ZN12_GLOBAL__N_138ArchiveRedirectFileSystemStaticDestroyEPv
TTi:_InvokableCall_1_add_Delegate_m3048312905_gshared
$Nd:_EventHandler_Invoke_m1137722757
a8i:__ZNK15dense_hashtableINSt3__24pairIK10KeyWrapperI13dynamic_arrayIPK10Il2CppTypeLj4EEEPFvvEEES8_N6il2cpp8metadata19Il2CppSignatureHashEN14dense_hash_mapIS8_SB_SF_NS8_14EqualsComparerINSE_22Il2CppSignatureCompareEEENS0_9allocatorISC_EEE9SelectKeyESJ_SL_E5beginEv
faf:_MonoType_IsSubclassOf_m2211166238
HPg:_TypeFilter_EndInvoke_m997625354
WHe:_Collection_1_System_Collections_ICollection_CopyTo_m2859266050_gshared
Qu:__ZN7mecanim14ValueArrayCopyEPKNS_10ValueArrayEPS0_PKNS_14ValueArrayMaskE
wNh:_Comparer_1__ctor_m2876014041_gshared
IHj:_GC_continue_reclaim
q1e:_InvalidCastException__ctor_m2730571470
YHf:_X509ChainElementCollection_System_Collections_IEnumerable_GetEnumerator_m2559704689
k2f:__ZL86BigInteger_t925946153_CustomAttributesCacheGenerator_BigInteger_op_Implicit_m622924526P21CustomAttributesCache
yng:__ZL59Dropdown_t1985816271_CustomAttributesCacheGenerator_m_ValueP21CustomAttributesCache
jKf:_InterpreterFactory_set_Gap_m2761943153
mFf:_PublicKey_get_Key_m126090744
eNc:__ZNSt3__23mapIN20TextRenderingPrivate7FontRefEP11FT_FaceRec_NS_4lessIS2_EENS_9allocatorINS_4pairIKS2_S4_EEEEEixERS9_
tJa:__ZN17ArchiveFileSystem10AddStorageEP20ArchiveStorageReader
q2i:__ZL25UnresolvedVirtualCall_104P12Il2CppObjectS0_S0_S0_iPK10MethodInfo
Xmi:_Color_Equals_m661618137
yzc:__ZNK12b2MotorJoint16GetReactionForceEf
VEa:__ZN12_GLOBAL__N_112UploadFormatE13TextureFormat
Moh:_EqualityComparer_1_System_Collections_IEqualityComparer_GetHashCode_m1203798961_gshared
Lgg:__ZL89GUIStyle_t1799908754_CustomAttributesCacheGenerator_GUIStyle_AssignRectOffset_m2998103580P21CustomAttributesCache
Y_i:__ZN6il2cpp2vm5Class15GetEnumBaseTypeEP11Il2CppClass
G2e:_DirectoryNotFoundException__ctor_m3713860966
dOh:_Comparer_1_get_Default_m4282764954_gshared
$nb:__ZNK9Texture2D16GetNpotTexelSizeEv
_Eh:_InternalEnumerator_1__ctor_m245588437_gshared
OIf:_Capture_get_Text_m3472127896
bsh:_Mask_get_rectTransform_m3304369086
Lli:_WillRenderCanvases_EndInvoke_m3215676440
SNi:_TooltipAttribute__ctor_m2640804852
B1h:__Z35RuntimeInvoker_Category_t1984577050PK10MethodInfoPvPS2_
Pti:_AnimatorControllerPlayable_INTERNAL_CALL_PlayInFixedTimeInternal_m847261734
OAa:__ZN9GfxDevice22GetDefaultVertexBufferE26GfxDefaultVertexBufferTypej
LKi:_X509Crl_get_NextUpdate_m45665244
wGe:_Collection_1__ctor_m3903788797_gshared
uQe:_ReadOnlyCollection_1_System_Collections_ICollection_CopyTo_m1129689124_gshared
MPj:___fseeko_unlocked
P8h:__Z162RuntimeInvoker_Void_t1841601450_Il2CppObject_Int32_t2071877448_SByte_t454417549_SByte_t454417549_SingleU26_t4173844468_SingleU26_t4173844468_SingleU26_t4173844468PK10MethodInfoPvPS2_
f_j:_glGetActiveUniform__wrapper
EPj:_sscanf
eLe:_Collection_1_Contains_m1999290510_gshared
gub:__ZN14SafeBinaryRead21TransferSTLStyleArrayINSt3__26vectorI17BlendShapeChannelNS1_9allocatorIS3_EEEEEEvRT_17TransferMetaFlags
aja:__Z17BeginSplashScreenv
PPi:_Vector3__ctor_m2638739322_AdjustorThunk
cVb:__ZN9ShaderLab16SerializedShader8TransferI19StreamedBinaryWriteILb0EEEEvRT_
rYg:_UInt32_Parse_m2400360707
AA:__ZN7mecanim9animation18CreateAvatarMemoryEPKNS0_14AvatarConstantERNS_6memory9AllocatorE
rBd:_Stack_Pop_m3788808882
$Oh:_Enumerator_VerifyCurrent_m4246196125_AdjustorThunk
slh:_Dictionary_2_pick_value_m3484897877_gshared
qId:_DateTime_op_Equality_m1867073872
Pt:__ZN7mecanim8skeleton16SkeletonPoseCopyIN4math4trsXENS2_7affineXEEEvPKNS0_13SkeletonPoseTIT_EEPNS5_IT0_EE
kve:_List_1_CopyTo_m1916701891_gshared
lMb:__Z18Transfer_BlittableI19StreamedBinaryWriteILb0EELb0EaEvRK29SerializationCommandArgumentsR31RuntimeSerializationCommandInfo
uAa:__ZN18GfxFramebufferGLES18GetFramebufferNameERK20GfxRenderTargetSetup
ASj:_saveSetjmp
Otj:__ZN6il2cpp6icalls8mscorlib6System2IO6MonoIO11GetFileTypeE12Il2CppIntPtrPi
hnc:__Z30Event_Get_Custom_PropCharacterP12Il2CppObject
UZ:__ZN13PlayableGraph27SchedulePlayableDestructionERK9HPlayable
nXj:_glGetFramebufferAttachmentParameteriv__wrapper
FGb:__Z22scripting_array_length17ScriptingArrayPtr
$fd:_SecurityElement_GetAttribute_m4288291176
EHi:_UriParser_get_DefaultPort_m1377931533
lXi:_IndexedSet_1_get_Count_m2839545138_gshared
Ppa:__ZN14SafeBinaryRead20TransferTypelessDataEjPvi
P$g:_RenderPipelineManager_get_currentPipeline_m679160301
VTf:__ZL66StringFreezingAttribute_t2691375565_CustomAttributesCacheGeneratorP21CustomAttributesCache
Wqc:__ZN9rapidjson13GenericReaderINS_4UTF8IcEES2_13JSONAllocatorE10ParseFalseILj1ENS_25GenericInsituStringStreamIS2_EENS_15GenericDocumentIS2_S3_S3_EEEEvRT0_RT1_
Sye:_List_1_AddCollection_m3284813601_gshared
aeb:__ZN33AssetBundleLoadFromAsyncOperation7PerformEv
Xqg:__ZL102ToggleGroup_t1030026315_CustomAttributesCacheGenerator_ToggleGroup_U3CActiveTogglesU3Em__1_m4052653494P21CustomAttributesCache
N2h:__Z69RuntimeInvoker_Single_t2076509932_Int32_t2071877448_Int32_t2071877448PK10MethodInfoPvPS2_
i0:__Z19GetActiveColorSpacev
_oh:_EqualityComparer_1__cctor_m1672307556_gshared
Jug:_SoapTypeAttribute_get_IsInteropXmlElement_m2941294827
gxb:__ZN14SpriteRenderer18UpdateCachedSpriteEv
vqe:_Enumerator_System_Collections_IEnumerator_get_Current_m3542273247_gshared
Ztd:_Char_System_IConvertible_ToUInt32_m1557991717_AdjustorThunk
ild:_Encoding_get_UTF8Unmarked_m628720656
yWe:_NumberFormatter_RoundBits_m1545255255
Q0:__Z6StrCmpPKcS0_
pKh:_InternalEnumerator_1_MoveNext_m2906956792_gshared
xWb:__Z21CheckGpuProgramUsable20ShaderGpuProgramType
Pai:__Z55RuntimeInvoker_Boolean_t3825574718_Keyframe_t1449471340PK10MethodInfoPvPS2_
EEg:_Binder__cctor_m3736115807
aCj:__ZN6il2cpp2os9Directory20GetFileSystemEntriesERKNSt3__212basic_stringIcNS2_11char_traitsIcEENS2_9allocatorIcEEEESA_iiPi
pmh:_Dictionary_2_OnDeserialization_m2160537783_gshared
sqd:_Attribute_GetHashCode_m2653962112
bMc:__ZN20TextRenderingPrivate19NativeTextGenerator5SetupEv
fAi:_AsyncResult_GetReplyMessage_m262842621
Loe:_Enumerator__ctor_m3021143890_AdjustorThunk
jzb:__ZN12AspectRatios8TransferI18StreamedBinaryReadILb0EEEEvRT_
QPf:__ZL66X509ExtensionCollection_t1640144839_CustomAttributesCacheGeneratorP21CustomAttributesCache
M4b:__ZN10GameObject14CopyPropertiesERS_
kpc:__Z44Register_UnityEngine_GUIStyle_get_fixedWidthv
zcd:_RSACryptoServiceProvider_Common_m2581564813
UIi:_X509CertificateEnumerator_MoveNext_m4060814498
L4e:_MemoryStream_CheckIfClosedThrowDisposed_m2253054610
_Bh:_ArrayReadOnlyList_1_GetEnumerator_m634288642_gshared
r7a:__ZNK13ScreenManager12IsFullScreenEv
fQj:_rand
QXj:_emscripten_glFramebufferRenderbuffer__wrapper
MCj:__ZN6il2cpp5utils9PathUtils7CombineIcEENSt3__212basic_stringIT_NS3_11char_traitsIS5_EENS3_9allocatorIS5_EEEERKNS0_10StringViewIS5_EERKSA_
zTe:_ReadOnlyCollection_1_GetEnumerator_m2481390116_gshared
Psi:_AnimatorControllerPlayable_INTERNAL_CALL_GetNextAnimatorStateInfoInternal_m1550960895
uHb:__ZN14SafeBinaryRead21TransferSTLStyleArrayINSt3__26vectorI17AnimationCurveTplIfE13stl_allocatorIS4_L18MemLabelIdentifier1ELi16EEEEEEvRT_17TransferMetaFlags
Scc:__Z60Register_UnityEngine_AsyncOperation_set_allowSceneActivationv
Ckj:__ZN15dense_hashtableINSt3__24pairIK10KeyWrapperINS1_IPK11Il2CppImageP11Il2CppClassEEEjEES9_17ReflectionMapHashIS8_EN14dense_hash_mapIS9_jSD_NS9_14EqualsComparerINS0_8equal_toIS8_EEEENS0_9allocatorISB_EEE9SelectKeyESI_SK_E12expand_arrayEjN21dense_hash_map_traits17integral_constantIbLb0EEE
Rxg:_ObjectManager_RegisterObject_m872610295
R0a:__Z22PrepareOptimizedPlanesPK5PlaneiPKN4math7_float4E
Wfi:__Z47RuntimeInvoker_Vector3_t2243707580_Il2CppObjectPK10MethodInfoPvPS2_
wdh:_RectOffset_t3387826427_marshal_pinvoke
f0d:_Graphic_SetVerticesDirty_m1607014370
q7:__ZN17UniqueIDGenerator15CreatePureIndexEv
D7b:__ZN14dense_hash_mapI12TriangleEdgei16TriangleEdgeHashNSt3__28equal_toIS0_EENS2_9allocatorINS2_4pairIKS0_iEEEEEixERS7_
jpf:_MD2__ctor_m3133818738
AB:__ZN11UnityEngine9Animation28GenericAnimationBindingCache15DidReloadDomainEv
hmf:_AppDomain_InternalGetProcessGuid_m1278588156
x5d:_InputField_MoveRight_m386206014
Qzd:_HashValues_get_Count_m234926373
x9d:_Array_InternalArray__ICollection_Remove_TisIl2CppObject_m2425110446_gshared
Svh:_ScrollRect_set_inertia_m2575649134
M1e:_BinaryReader_ReadBoolean_m2892291883
m_i:__ZN15dense_hashtableINSt3__24pairIK10KeyWrapperIPK22Il2CppGenericParameterEP11Il2CppClassEES6_N6il2cpp5utils11PointerHashIS4_EEN14dense_hash_mapIS6_S9_SE_NS6_14EqualsComparerINS0_8equal_toIS5_EEEENS0_9allocatorISA_EEE9SelectKeyESJ_SL_E14squash_deletedEv
Wzb:__ZNSt3__26__treeINS_12__value_typeIN4core12basic_stringIcNS2_20StringStorageDefaultIcEEEE4PPtrI6ObjectEEENS_19__map_value_compareIS6_SA_NS_4lessIS6_EELb1EEE13stl_allocatorISA_L18MemLabelIdentifier51ELi16EEE7destroyEPNS_11__tree_nodeISA_PvEE
Izc:__ZNK12b2MouseJoint17GetReactionTorqueEf
xXf:__ZL66DSASignatureDeformatter_t2187578719_CustomAttributesCacheGeneratorP21CustomAttributesCache
nlc:__Z14GUIClipTextureP9Texture2DPhiiii
GDh:_InternalEnumerator_1_Dispose_m1064404287_AdjustorThunk
_Ca:__ZNSt3__26vectorI27ComputeShaderBuiltinSamplerNS_9allocatorIS1_EEE21__push_back_slow_pathIKS1_EEvRT_
h9h:__Z95RuntimeInvoker_Void_t1841601450_ObjectU5BU5DU26_t3223402458_Int32_t2071877448_Int32_t2071877448PK10MethodInfoPvPS2_
Wvf:_TlsServerCertificate_validateCertificates_m1988583701
pZh:__Z52RuntimeInvoker_DateTime_t693205669_Int16_t4041245914PK10MethodInfoPvPS2_
gPf:__ZL61DllImportAttribute_t3000813225_CustomAttributesCacheGeneratorP21CustomAttributesCache
b3i:__ZL25UnresolvedVirtualCall_143P12Il2CppObjectaaPK10MethodInfo
x0:__ZNK9Transform18TransformDirectionERK8Vector3f
AMa:__ZNK17ArchiveFileSystem12GetAssetGUIDERK13FileEntryData
oWb:__ZNSt3__26vectorIN9ShaderLab20SerializedSubProgram15MatrixParameterENS_9allocatorIS3_EEE21__push_back_slow_pathIKS3_EEvRT_
_1g:_GUILayoutEntry_SetHorizontal_m1828181654
T0j:_emscripten_glClearStencil__wrapper
vph:_EqualityComparer_1_get_Default_m1852501307_gshared
a0h:__Z94RuntimeInvoker_Void_t1841601450_Il2CppObject_ByteU5BU5DU26_t790777611_ByteU5BU5DU26_t790777611PK10MethodInfoPvPS2_
W8i:__ZN15dense_hashtableINSt3__24pairIK10KeyWrapperIPK11Il2CppClassEPKcEES6_N6il2cpp5utils11PointerHashIS3_EEN14dense_hash_mapIS6_S9_SE_NS6_14EqualsComparerINS0_8equal_toIS5_EEEENS0_9allocatorISA_EEE9SelectKeyESJ_SL_E12resize_deltaEjj
RRj:__ZNK10__cxxabiv120__si_class_type_info27has_unambiguous_public_baseEPNS_19__dynamic_cast_infoEPvi
iYe:_NumberFormatInfo_get_PercentNegativePattern_m1162448153
yQf:__ZL56SyncHashtable_t1343674558_CustomAttributesCacheGeneratorP21CustomAttributesCache
Vaj:__ZN6il2cpp2vm21ThreadPoolCompartment13QueueWorkItemEP17Il2CppAsyncResult
lCb:__ZN24RingBufferMemoryFileData9SetLengthEy
BVj:_glTexSubImage3D__wrapper
_If:_FactoryCache_Add_m2602974721
UOa:__Z21WriteImageAsyncThreadPv
u6:__ZL16GetInterfaceImpl18UnityInterfaceGUID
p$i:__ZN6il2cpp2vmL17SetupFieldOffsetsENS0_15FieldLayoutKindEP11Il2CppClassjRKNSt3__26vectorIjNS4_9allocatorIjEEEE
SGe:_Collection_1_GetEnumerator_m2816357893_gshared
Sag:__ZL105RectTransform_t3349966182_CustomAttributesCacheGenerator_RectTransform_INTERNAL_get_anchorMin_m3180545469P21CustomAttributesCache
ise:_List_1_System_Collections_IList_get_Item_m936612973_gshared
jU:__ZN13EmscriptenWWW7GetSizeEv
jEj:__ZN6il2cpp6icalls8mscorlib6System15MonoCustomAttrs27GetCustomAttributesInternalEP12Il2CppObjectP20Il2CppReflectionTypeb
fZc:_UNITY_TT_Set_MM_Blend
$xg:_ObjectReader_ReadAssembly_m869834280
xkb:__ZN22RenderingCommandBufferD0Ev
TSe:_ReadOnlyCollection_1_System_Collections_IList_get_Item_m1831743662_gshared
gMe:_Collection_1_IsSynchronized_m971497175_gshared
s_:__ZNK18ScriptingObjectPtr17ToScriptingStringEv
DSd:_ExecuteEvents_Execute_m1617536317
szh:_Text_get_cachedTextGeneratorForLayout_m1357670532
wI:__ZL31InitializeAudioScriptingClassesv
rTa:__Z14SortGUIByDepthP10GUIElementS0_
L_e:_NumberFormatter_NumberToString_m126384393
tZj:_emscripten_glVertexAttrib4fv__wrapper
A6:__ZN13RuntimeStaticI13dynamic_arrayIPK31TransferFunctionScriptingTraitsLj4EELb0EE16StaticInitializeEPv
WAi:_LogicalCallContext__ctor_m3173272863
ssi:_AnimatorControllerPlayable_IsParameterControlledByCurveString_m4036987523
T8e:_MonoCustomAttrs__cctor_m2608447972
y_e:_Int32_FindSign_m3803672540
kPh:_Enumerator_System_Collections_IEnumerator_Reset_m70453843_AdjustorThunk
i4g:_GUISkin_get_scrollView_m2941173958
xX:__ZNK20LocalFileSystemPosix21GetAvailableDiskSpaceEPKcRy
haa:__ZNSt3__26__treeIiNS_4lessIiEENS_9allocatorIiEEE7destroyEPNS_11__tree_nodeIiPvEE
xTi:_Predicate_1__ctor_m2995226103_gshared
yaf:_MonoType_get_TypeHandle_m3750614457
HFf:_X509Certificate2__ctor_m1095336775
mua:__ZNK9GfxDevice14GetWorldMatrixEv
FOg:_MonoProperty_GetGetMethod_m1100580870
Vkh:_Dictionary_2__ctor_m1950568359_gshared
DDj:__ZN15dense_hashtableINSt3__24pairIK10KeyWrapperIPK19Il2CppGenericMethodEP10MethodInfoEES6_N6il2cpp8metadata23Il2CppGenericMethodHashEN14dense_hash_mapIS6_S9_SD_NS6_14EqualsComparerINSC_26Il2CppGenericMethodCompareEEENS0_9allocatorISA_EEE9SelectKeyESH_SJ_E13set_empty_keyERKSA_
bWa:__Z19scripting_array_new17ScriptingClassPtrjj
lN:__ZN11SoundHandle13CreateChannelEb
mpb:__ZN14SafeBinaryRead21TransferSTLStyleArrayI13dynamic_arrayI12LightmapDataLj4EEEEvRT_17TransferMetaFlags
Bmf:_ArgumentException__ctor_m3312963299
lgb:__ZN21AssetBundleFileSystem11CreateAsDirER13FileEntryData
GTb:__ZNSt3__26vectorIN9ShaderLab20SerializedSubProgram16TextureParameterENS_9allocatorIS3_EEE6assignIPS3_EENS_9enable_ifIXaasr21__is_forward_iteratorIT_EE5valuesr16is_constructibleIS3_NS_15iterator_traitsISA_E9referenceEEE5valueEvE4typeESA_SA_
URe:_ReadOnlyCollection_1_get_Item_m1696267180_gshared
sBj:__ZNSt3__26vectorIN6il2cpp2os10ThreadImpl10APCRequestENS_9allocatorIS4_EEE26__swap_out_circular_bufferERNS_14__split_bufferIS4_RS6_EE
lSi:_U3CCreateWhereIteratorU3Ec__Iterator1D_1_MoveNext_m3533253043_gshared
bnj:__ZN15dense_hashtableINSt3__24pairIK10KeyWrapperIPK22Il2CppGenericParameterEPK24MonoGenericParameterInfoEES6_N6il2cpp5utils11PointerHashIS4_EEN14dense_hash_mapIS6_SA_SF_NS6_14EqualsComparerINS0_8equal_toIS5_EEEENS0_9allocatorISB_EEE9SelectKeyESK_SM_E15set_deleted_keyERKSB_
OFh:_InternalEnumerator_1_System_Collections_IEnumerator_Reset_m2726857860_AdjustorThunk
Sfg:__ZL124GUILayoutUtility_t996096873_CustomAttributesCacheGenerator_GUILayoutUtility_INTERNAL_CALL_Internal_GetWindowRect_m3236664463P21CustomAttributesCache
DIf:_X509SubjectKeyIdentifierExtension__ctor_m3887138480
Doe:_Enumerator_System_Collections_IEnumerator_get_Current_m2853089017_AdjustorThunk
TAc:__ZN12b2WheelJoint24SolvePositionConstraintsERK12b2SolverData
Ng:_emscripten_exit_fullscreen
v3d:_InputField_get_mesh_m3276583786
Tvi:_GCHandle_Free_m1639542352_AdjustorThunk
Guf:_Context_set_ClientRandom_m631392719
iwi:_OutAttribute__ctor_m1447235100
GAj:__ZN6il2cpp6icalls8mscorlib6System6String19InternalAllocateStrEi
Rvc:__Z29Transfer_Blittable_ArrayFieldI8JSONRead11QuaternionfEvRT_R9ArrayInfoRK23StaticTransferFieldInfo
XVf:__ZL65SoapParameterAttribute_t2780084514_CustomAttributesCacheGeneratorP21CustomAttributesCache
$W:__ZN20LocalFileSystemPosix8SetFlagsER13FileEntryDatajj
Hdc:__Z45Register_UnityEngine_Camera_get_targetDisplayv
T2b:__ZNK24RendererAnimationBinding15GenerateBindingERKN4core12basic_stringIcNS0_20StringStorageDefaultIcEEEEbRN11UnityEngine9Animation14GenericBindingE
jkb:__Z15GetFlareManagerv
PZb:__ZN15ApplicationInfo24GetApplicationIdentifierEv
ERe:_ReadOnlyCollection_1_System_Collections_IList_Contains_m927375828_gshared
Fcb:__ZN9Behaviour8TransferI18StreamedBinaryReadILb0EEEEvRT_
gCi:_Enumerator_System_Collections_IEnumerator_get_Current_m1429268283
bOe:_ReadOnlyCollection_1_System_Collections_Generic_ICollectionU3CTU3E_Clear_m388357963_gshared
eOj:___toread
vT:__ZN19CloudServiceHandler10QueueEventEPN11UnityEngine15CloudWebService14CloudEventInfoE
sSj:___cxa_is_pointer_type
Qkd:_String_Concat_m56707527
vu:__ZN7mecanim9animation16EvaluateAvatarDXEPKNS0_14AvatarConstantEPKNS0_11AvatarInputEPNS0_12AvatarMemoryEPNS0_15AvatarWorkspaceEPNS0_12AvatarOutputE
_Da:__ZN4gles20DestroyRenderSurfaceEP7ApiGLESP17RenderSurfaceGLES
Coe:_Enumerator_System_Collections_IEnumerator_get_Current_m2853089017_gshared
Qjc:__Z34Transform_CUSTOM_SetAsFirstSiblingP12Il2CppObject
Xhj:__ZNK15dense_hashtableINSt3__24pairIK10KeyWrapperINS1_IPK14Il2CppAssemblyP11Il2CppClassEEEjEES9_17ReflectionMapHashIS8_EN14dense_hash_mapIS9_jSD_NS9_14EqualsComparerINS0_8equal_toIS8_EEEENS0_9allocatorISB_EEE9SelectKeyESI_SK_E10test_emptyEj
Mqe:_Enumerator_get_Current_m827571811_AdjustorThunk
neg:__ZL62Font_t4239498691_CustomAttributesCacheGenerator_textureRebuiltP21CustomAttributesCache
zia:__ZN17PersistentManager40GlobalToLocalSerializedFileIndexInternalERK26SerializedObjectIdentifier
hR:__ZN11UnityEngine15CloudWebService17SessionEventQueue14ParseEventDataERKN4core12basic_stringIcNS2_20StringStorageDefaultIcEEEE
nQd:_BaseEventData_get_selectedObject_m3551206992
ndf:_SimpleCollator_CompareOrdinal_m2176988387
ejg:__ZL47Rect_t3681755626_CustomAttributesCacheGeneratorP21CustomAttributesCache
OOd:_CCGregorianCalendar_GetYear_m1289900195
Y4h:__Z441RuntimeInvoker_Boolean_t3825574718_Il2CppObject_Il2CppObject_Il2CppObject_ColorU26_t3402129837_Int32_t2071877448_Single_t2076509932_Single_t2076509932_Int32_t2071877448_SByte_t454417549_SByte_t454417549_Int32_t2071877448_Int32_t2071877448_Int32_t2071877448_Int32_t2071877448_SByte_t454417549_Int32_t2071877448_Single_t2076509932_Single_t2076509932_Single_t2076509932_Single_t2076509932_SByte_t454417549_SByte_t454417549_UInt32U26_t2197289955PK10MethodInfoPvPS2_
J_e:_Int16_ToString_m2592645088
Sya:__ZN13TranslateGLES4InitERK12GraphicsCaps16GfxDeviceLevelGL
dRb:__Z29Transfer_Blittable_ArrayFieldI18StreamedBinaryReadILb0EE10ColorRGBAfEvRT_R9ArrayInfoRK23StaticTransferFieldInfo
Azg:_SerializationInfoEnumerator_Reset_m2206466680
ici:__Z48RuntimeInvoker_Void_t1841601450_Slot_t2267560602PK10MethodInfoPvPS2_
_Na:__ZZ23InitPlayerLoopCallbacksvEN33PostLateUpdateInputEndFramestruct7ForwardEv
D4c:__Z32CustomEventData_CUSTOM_AddUInt32P12Il2CppObjectP12Il2CppStringj
Ffg:__ZL78Event_t3028476042_CustomAttributesCacheGenerator_Event_get_keyCode_m3364681288P21CustomAttributesCache
rZi:_GenericEqualityComparer_1_Equals_m1934771410_gshared
JQf:__ZL57DebuggingModes_t2073970606_CustomAttributesCacheGeneratorP21CustomAttributesCache
gCb:__ZN24RingBufferMemoryFileDataD0Ev
RIe:_Collection_1_System_Collections_IList_get_IsFixedSize_m993584401_gshared
AAb:__ZNSt3__26vectorIN30RuntimeInitializeOnLoadManager15ClassMethodInfoE13stl_allocatorIS2_L18MemLabelIdentifier12ELi16EEE8__appendEj
F0b:__ZN13ProduceHelperI10TagManagerLb0EE7ProduceE18MemLabelIdentifier18ObjectCreationMode
c0h:__Z84RuntimeInvoker_Il2CppObject_Il2CppObject_Il2CppObject_Il2CppObject_Int32_t2071877448PK10MethodInfoPvPS2_
HLj:__ZN6il2cpp2os6Memory12AlignedAllocEjj
mJh:_InternalEnumerator_1__ctor_m691972083_gshared
qFj:__ZN6il2cpp8metadataL7CompareEPK10Il2CppTypeS3_
UIb:__Z18Transfer_BlittableI17RemapPPtrTransferLb0E11ColorRGBA32EvRK29SerializationCommandArgumentsR31RuntimeSerializationCommandInfo
I6f:__ZL84GameObject_t1756533147_CustomAttributesCacheGenerator_GameObject_get_tag_m1425941094P21CustomAttributesCache
w0g:_GameObject_set_layer_m2712461877
tqf:_RSAManaged__ctor_m1370411656
HPb:__Z18Transfer_BlittableI18StreamedBinaryReadILb0EELb1E10ColorRGBAfEvRK29SerializationCommandArgumentsR31RuntimeSerializationCommandInfo
knb:__ZN12CubemapArray23VirtualRedirectTransferER17RemapPPtrTransfer
Gac:__ZL27GetComponentsImplementationILb0ELi0EEbR10GameObjectbRK17CompareParametersRK39GetComponentsImplementation_ReturnValue
UDf:_WebHeaderCollection_GetObjectData_m3940120977
LDb:__ZN9Scripting36IsSystemCollectionsGenericDictionaryE17ScriptingClassPtr
nuh:_Raycast3DCallback_EndInvoke_m3234280377
gFi:_BalancingGroup__ctor_m2474435406
ZYd:_ColorTweenCallback__ctor_m3619686788
J4:__ZL16ReadTypeTreeImplILb0EEbR8TypeTreeRK16TypeTreeIteratorRPKhS6_i
Fsd:_Byte_System_IConvertible_ToInt32_m1032609763_AdjustorThunk
AWb:__ZN9ShaderLab7ProgramD0Ev
kmb:__ZNK22BuiltinResourceManager21GetResourceInstanceIDEPKN5Unity4TypeERKN4core12basic_stringIcNS4_20StringStorageDefaultIcEEEE
Cwa:__ZN9GfxDevice15BeginFrameStatsEv
Sec:__Z42Register_UnityEngine_RectOffset_set_bottomv
Tvd:_ArrayListWrapper_IndexOf_m3574835167
Inc:__Z28GUIStyleState_CUSTOM_CleanupP12Il2CppObject
mWa:__ZN28LightProbeProxyVolumeContext8CopyFromERKS_
uve:_List_1_Remove_m2660527978_gshared
QWd:_U3COnFinishSubmitU3Ec__Iterator0_System_Collections_Generic_IEnumeratorU3CobjectU3E_get_Current_m1823105495
A2a:__ZN23TransformChangeDispatch32QueueTransformChangeIfHasChangedER18TransformHierarchy
yed:_SymmetricAlgorithm_get_FeedbackSize_m544664262
e$a:__ZN18DeferredRenderLoop15RenderFinalPassEP13RenderTextureS1_
$Da:__ZN7ApiGLES18DeleteRenderbufferERj
VCa:__ZL23ProgramUniformMatrix4fvPK7ApiGLESjiihPKv
j_f:__ZL67ThreadInterruptedException_t63303933_CustomAttributesCacheGeneratorP21CustomAttributesCache
NJh:_InternalEnumerator_1_MoveNext_m3629145604_gshared
oTb:__ZN9ShaderLab20SerializedSubProgram15MatrixParameter8TransferI14SafeBinaryReadEEvRT_
v_e:_Int32_Parse_m124693431
Iac:__ZL27GetComponentsImplementationILb0ELi1EEbR10GameObjectbRK17CompareParametersRK39GetComponentsImplementation_ReturnValue
hYc:_Round_Down_To_Grid
wSg:_UTF8Decoder__ctor_m1460357288
sea:__ZN13RenderTexture7ReleaseEv
qvb:__ZN10MeshFilter23VirtualRedirectTransferER14SafeBinaryRead
a$a:__ZN19ShaderPropertySheet26SetTextureWithExplicitSizeEN9ShaderLab16FastPropertyNameE9TextureIDiiff
kCd:_Convert_ToByte_m1201588964
Avb:__ZN12MeshRenderer17MainThreadCleanupEv
Gcc:__Z36AsyncOperation_Get_Custom_PropIsDoneP12Il2CppObject
KGa:__ZN22CreateGpuProgramOutput12CreateParamsEv
$zg:_RuntimeMethodHandle_GetHashCode_m2682236001_AdjustorThunk
Pwi:_ActivationServices_AllocateUninitializedClassInstance_m3410698501
Ggj:__ZNSt3__26vectorIiNS_9allocatorIiEEE21__push_back_slow_pathIiEEvOT_
Iya:__ZNK14GfxContextGLES13GetDefaultFBOEv
H9d:_Array_InternalArray__ICollection_Remove_TisSByte_t454417549_m2474211570_gshared
vgd:_Evidence_get_IsSynchronized_m1427392003
jba:__ZN14GraphicsHelper5ClearE13GfxClearFlagsRK10ColorRGBAffjR17ShaderPassContext
Vej:_il2cpp_class_is_enum
Dqj:__ZN6il2cpp2vm6Thread49CheckCurrentThreadForInterruptAndThrowIfNecessaryEv
Pme:_GameObject_AddComponent_TisIl2CppObject_m3813873105_gshared
xga:__ZNSt3__23mapIN9ShaderLab16FastPropertyNameEN18UnityPropertySheet11UnityTexEnvENS_4lessIS2_EENS_9allocatorINS_4pairIKS2_S4_EEEEEixERS9_
xta:__ZNK13TranslateGLES25GetTextureTargetDimensionEj
w4d:_InputField_SetToCustom_m250029371
jhe:_Array_InternalArray__set_Item_TisByte_t3683104436_m1694926640_gshared
uJe:_Collection_1_System_Collections_IList_Contains_m1897568526_gshared
tIg:_FieldBuilder_get_FieldType_m2267463269
aqd:_SimpleEnumerator_Clone_m3032847657
VCi:_PatternCompiler_EmitInfo_m597931026
Knf:_ModulusRing_Multiply_m3113924743
hjc:__Z47Texture2D_CUSTOM_INTERNAL_CALL_GetPixelBilinearP12Il2CppObjectffR10ColorRGBAf
tuf:_Context_get_ServerSettings_m225713600
Mi:_emscripten_glVertexAttrib4f
qUi:_InvokableCall_1_remove_Delegate_m3576859071_gshared
HNe:_ReadOnlyCollection_1_System_Collections_IEnumerable_GetEnumerator_m531171980_gshared
_Vb:__ZNSt3__26vectorIN20GpuProgramParameters14ConstantBufferENS_9allocatorIS2_EEE8__appendEj
Pje:_Array_Sort_TisUILineInfo_t3621277874_m3105833015_gshared
TYb:__Z15tessGetElementsP14TESStesselator
DUa:__ZN11HaloManager21ReleaseGeometryJobMemEP25DynamicVBOGeometryJobData
ose:_List_1_AddEnumerable_m2489692396_gshared
feg:__ZL93TextGenerator_t647235000_CustomAttributesCacheGenerator_TextGenerator_Dispose_cpp_m1755131202P21CustomAttributesCache
XQi:_WaitForSecondsRealtime__ctor_m1734539010
PSg:_WaitHandle__ctor_m1256161634
zza:__ZN4gles10SetTextureER15DeviceStateGLESjjj19BuiltinSamplerState
Hwa:__ZN9GfxDevice18SetGlobalDepthBiasEff
Mzi:_Identity_get_ChannelSink_m3989446673
icj:__ZN6il2cpp6icalls8mscorlib6System8MonoType12get_AssemblyEP20Il2CppReflectionType
I$d:_FontData_get_richText_m2013560754
Ghd:_SecurityException_get_PermissionType_m3543350822
Zi:_emscripten_glGetPointerv
hu:__ZN8Animator22ApplyBuiltinRootMotionEv
Bvj:__ZN15dense_hashtableI10KeyWrapperIP18Il2CppGenericClassES3_N6il2cpp8metadata22Il2CppGenericClassHashEN14dense_hash_setIS3_S6_NS3_14EqualsComparerINS5_25Il2CppGenericClassCompareEEENSt3__29allocatorIS3_EEE8IdentityESA_SD_E5clearEv
D0h:__Z74RuntimeInvoker_Boolean_t3825574718_Il2CppObject_IPv6AddressU26_t2456310193PK10MethodInfoPvPS2_
Kqb:__ZN8Renderer23VirtualRedirectTransferER14SafeBinaryRead
iHg:_DerivedType_get_UnderlyingSystemType_m3904230233
wTd:_PointerEventData_get_rawPointerPress_m448871540
_sg:__ZL76BackgroundController_t3717954812_CustomAttributesCacheGenerator_leftBoundaryP21CustomAttributesCache
hWh:__Z135RuntimeInvoker_IntPtr_t_Il2CppObject_Int32_t2071877448_Int32_t2071877448_Int32_t2071877448_Int32_t2071877448_MonoIOErrorU26_t1029615899PK10MethodInfoPvPS2_
XSa:__Z27ConvertSubMeshesToTrianglesR13dynamic_arrayI7SubMeshLj4EERS_ItLj2EE
k$i:__ZN6il2cpp2vmL15GetBitmapNoInitEP11Il2CppClassPjRjj
Vab:__ZL13MotionHandleriPK27EmscriptenDeviceMotionEventPv
fHf:_X509Certificate2Collection__ctor_m819526826
iag:__ZL114PlayableHandle_t1502856514_CustomAttributesCacheGenerator_PlayableHandle_INTERNAL_CALL_IsValidInternal_m2792360706P21CustomAttributesCache
ZH:__ZN12AudioManager5ResetEv
Xof:_KeyBuilder_Key_m3814433741
Cmf:_ArgumentException__ctor_m158205422
pce:_Array_compare_TisVector3_t2243707580_m3709184876_gshared
_1d:_HorizontalLayoutGroup_SetLayoutHorizontal_m3237355818
_t:__ZN7mecanim5human14RetargetToTDoFEPKNS0_5HumanEPNS0_9HumanPoseEPNS_8skeleton13SkeletonPoseTIN4math4trsXEEESB_
JCj:__ZN6il2cpp6icalls8mscorlib6System11Environment20GetWindowsFolderPathEi
Yqg:__ZL60AspectRatioFitter_t3114550109_CustomAttributesCacheGeneratorP21CustomAttributesCache
zy:__ZN7mecanim5human18HumanPoseBlendNodeERNS0_9HumanPoseEPS1_f
ZTc:_UNITY_FT_RoundFix
hWb:__ZN9ShaderLab20SerializedSubProgram15AddTextureParamEPKcii16TextureDimension
Pr:__ZNK8Animator26GetTypeInfoVirtualInternalEv
tQ:__ZN23CloudWebServicesManager23VirtualRedirectTransferER17RemapPPtrTransfer
RFe:__ZN21InterfaceFuncInvoker1Ib40CustomAttributeTypedArgument_t1498197914E6InvokeEjP11Il2CppClassP12Il2CppObjectS0_
WGi:_Uri_get_Parser_m2250631932
tpi:_Event_GetHashCode_m2214628668
D1i:__ZL24UnresolvedVirtualCall_63P12Il2CppObjectS0_S0_S0_PK10MethodInfo
_$d:_Graphic_set_color_m646149893
Rlh:_Dictionary_2_System_Collections_ICollection_get_IsSynchronized_m960517203_gshared
Rga:__ZN14SafeBinaryRead19TransferSTLStyleMapINSt3__23mapIN4core12basic_stringIcNS3_20StringStorageDefaultIcEEEES7_NS1_4lessIS7_EE13stl_allocatorINS1_4pairIKS7_S7_EEL18MemLabelIdentifier1ELi16EEEEEEvRT_17TransferMetaFlags
vXg:_Type_MakeByRefType_m1323101575
X$c:__ZN2UI6Canvas27UpdateEventIndexesRecursiveERi
wx:__ZN7mecanim9animation18EvaluateRootMotionERKNS0_18ClipMuscleConstantERKNS0_15ClipMuscleInputEPKfS8_RNS0_12MotionOutputEb
nR:__ZN11UnityEngine15CloudWebService16SessionContainer21PrepareDataErrorEventERN4core12basic_stringIcNS2_20StringStorageDefaultIcEEEE
_Pc:_UNITY_FT_Outline_New
BDj:__ZNSt3__218uninitialized_copyIPNS_4pairIK10KeyWrapperIPK19Il2CppGenericMethodEP10MethodInfoEESB_EET0_T_SD_SC_
Lfg:__ZL85GUI_t4082743951_CustomAttributesCacheGenerator_GUI_set_nextScrollStepTime_m2724006954P21CustomAttributesCache
DMb:__Z19TransferField_ArrayI19StreamedBinaryWriteILb0EE27Converter_SimpleNativeClassI8GUIStyleEEvRK23StaticTransferFieldInfoR31RuntimeSerializationCommandInfoRT0_
D4f:__ZL101AssetBundleRequest_t2674559435_CustomAttributesCacheGenerator_AssetBundleRequest_get_asset_m624603186P21CustomAttributesCache
lW:__ZNK13ScreenManager12GetIsFocusedEv
Jqg:__ZL70SpriteState_t1353336012_CustomAttributesCacheGenerator_m_PressedSpriteP21CustomAttributesCache
pwg:_RemotingServices_RegisterInternalChannels_m1827304423
O4g:_GUIStyle_get_onNormal_m1675201777
kr:__ZL32CleanupAnimationScriptingClassesv
Kaj:__ZNSt3__213__vector_baseIN6il2cpp2os19SocketHandleWrapperENS_9allocatorIS3_EEED2Ev
Tff:_ASN1_get_Length_m3359111015
c4g:_GUISkin_get_verticalScrollbarThumb_m649633186
L6g:_GUIStyleState_Cleanup_m705006206
ic:invoke_viiffi
A7a:__ZN13sorted_vectorINSt3__24pairIN4core12basic_stringIcNS2_20StringStorageDefaultIcEEEEPK17MessageIdentifierEEN10vector_mapIS6_S9_NS0_4lessIS6_EENS0_9allocatorISA_EEE13value_compareESF_E10insert_oneERKSA_
fu:__ZNSt3__227__insertion_sort_incompleteIRPFbPKN8Animator11AnimatorJobES4_EPS4_EEbT0_S9_T_
FTg:_Thread_GetCachedCurrentUICulture_m5590127
hnb:__ZNK12CubemapArray20GetRuntimeMemorySizeEv
eQi:_Vector3_Dot_m3161182818
zxi:_CrossAppDomainSink_get_TargetDomainId_m775204051
dUb:__Z14resize_trimmedINSt3__26vectorIN9ShaderLab18SerializedPropertyENS0_9allocatorIS3_EEEEEvRT_j
q3i:__ZL25UnresolvedVirtualCall_158P12Il2CppObject18Color32_t874517518PK10MethodInfo
TBe:_List_1_CheckMatch_m4018158235_gshared
abi:__Z91RuntimeInvoker_Int32_t2071877448_UICharInfo_t3056636800_UICharInfo_t3056636800_Il2CppObjectPK10MethodInfoPvPS2_
Qdf:_Context_t2636657155_marshal_pinvoke_back
E8i:__ZN6il2cpp2vm13MetadataCache38GetMethodInfoFromMethodDefinitionIndexEi
ssd:_Byte_System_IConvertible_ToDateTime_m1583041031
I1i:__ZL24UnresolvedVirtualCall_68P12Il2CppObjectS0_iS0_S0_S0_S0_S0_S0_PK10MethodInfo
tsb:__ZN10VertexData8TransferI24GenerateTypeTreeTransferEEvRT_
tfg:__ZL98CanvasRenderer_t261436805_CustomAttributesCacheGenerator_CanvasRenderer_get_absoluteDepth_m4243141P21CustomAttributesCache
gDj:__ZN13Il2CppHashMapIPK19Il2CppGenericMethodP10MethodInfoN6il2cpp8metadata23Il2CppGenericMethodHashENS6_26Il2CppGenericMethodCompareENSt3__29allocatorINS9_4pairIK10KeyWrapperIS2_ES4_EEEEEC2EjRKS7_RKS8_
Kjf:_EncryptedData_get_EncryptionAlgorithm_m1301274243
Jph:_EqualityComparer_1_System_Collections_IEqualityComparer_Equals_m1089835085_gshared
r0a:__ZL10CullLightsRK22SceneCullingParametersR11CullResults
e$d:_Dropdown__cctor_m264401557
kdi:__Z94RuntimeInvoker_Void_t1841601450_Int32U5BU5DU26_t1341332175_Int32_t2071877448_Int32_t2071877448PK10MethodInfoPvPS2_
tpd:_Array_IndexOf_m2819632474
jOh:_Comparer_1__cctor_m3996541505_gshared
cz:__ZN7mecanim12statemachine20GetBlendTreeConstantERKNS0_13StateConstantEi
M5b:__Z40GetTemporaryCachePathApplicationSpecificv
Uua:__ZN9GfxDevice16EndAsyncJobFrameEv
g3d:_Image_get_minWidth_m1809071077
mlj:__ZNK15dense_hashtableINSt3__24pairIK10KeyWrapperINS1_IPK12PropertyInfoP11Il2CppClassEEEjEES9_17ReflectionMapHashIS8_EN14dense_hash_mapIS9_jSD_NS9_14EqualsComparerINS0_8equal_toIS8_EEEENS0_9allocatorISB_EEE9SelectKeyESI_SK_E10test_emptyERK30dense_hashtable_const_iteratorISB_S9_SD_SM_SI_SK_E
UQc:_UNITY_tt_face_load_hhea
cCb:__ZN24RingBufferMemoryFileData11SetGrowableEb
aqi:_PersistentCall__ctor_m2079279187
KBd:_Convert_ToBase64String_m1936815455
Sk:___syscall3
Vk:___syscall6
iwa:__ZN9GfxDevice15GetNextCPUFenceEv
Xk:___syscall4
BKd:_Decimal_ToString_m759431975
lKe:_Collection_1_System_Collections_IList_get_IsFixedSize_m2204750039_gshared
PWd:_ColorBlock_get_fadeDuration_m987725262
jpg:__ZL195U3CMouseDragOutsideRectU3Ec__Iterator1_t2599668326_CustomAttributesCacheGenerator_U3CMouseDragOutsideRectU3Ec__Iterator1_System_Collections_Generic_IEnumeratorU3CobjectU3E_get_Current_m2602955272P21CustomAttributesCache
Ywj:__ZN6il2cpp2vm3RCW14QueryInterfaceILb1EEEP14Il2CppIUnknownP15Il2CppComObjectRK10Il2CppGuid
oBg:_CryptographicException__ctor_m2415891459
VFc:__ZNSt3__26__sortIR24RayHitsByDepthComparitorP12RaycastHit2DEEvT0_S5_T_
Uwc:__ZN27PerformanceReportingManager23VirtualRedirectTransferER14SafeBinaryRead
$ve:_List_1_AddCollection_m3266731889_gshared
Tac:__ZN9Scripting25BroadcastScriptingMessageER10GameObjectPKc18ScriptingObjectPtr
kl:_emscripten_glShaderBinary
MGe:_Collection_1_System_Collections_IList_set_Item_m150887383_gshared
Cie:_Array_qsort_TisVector2_t2243707579_TisVector2_t2243707579_m3308480721_gshared
vod:_Array_InternalArray__RemoveAt_m1126483634
eli:_Camera_INTERNAL_CALL_RaycastTry_m1030092423
mX:__ZNK20LocalFileSystemPosix6ExistsERK13FileEntryData
OGh:_InternalEnumerator_1_Dispose_m4038440306_AdjustorThunk
ach:_RangeInt_get_end_m913869897
YAf:_DictionaryNodeEnumerator_get_DictionaryNode_m3521889822
Nu:__ZN7mecanim5human19MaskHasLeftFootGoalERKNS_6bitsetILj70EEE
D9g:_Mesh_get_colors32_m4153271224
nHc:__ZNK17Physics2DSettings26GetTypeInfoVirtualInternalEv
p3c:__Z58Register_UnityEngine_Canvas_GetETC1SupportedCanvasMaterialv
wbh:_Physics2D_INTERNAL_CALL_GetRayIntersectionAll_m161475998
GOb:__ZN17AnimationCurveTplIfE8TransferI18StreamedBinaryReadILb1EEEEvRT_
LId:_DateTimeOffset_GetHashCode_m3312197462_AdjustorThunk
Y6c:__ZN18UnityConnectClientD2Ev
ADf:_ServicePoint_set_UseNagleAlgorithm_m2618011464
mej:_il2cpp_set_data_dir
RGi:_Uri_get_IsUnc_m2111738174
Ahb:__ZN16LevelGameManager23VirtualRedirectTransferER19StreamedBinaryWriteILb0EE
psb:__Z32TransferEnumWithNameForceIntSizeI14SafeBinaryRead16GfxPrimitiveTypeEvRT_RT0_PKc17TransferMetaFlags
TMh:_DefaultComparer__ctor_m1961329658_gshared
PKg:_ParameterBuilder_get_Attributes_m2421099277
hOi:_TouchScreenKeyboard_get_done_m406461410
lMi:_DataUtility_INTERNAL_CALL_GetPadding_m1621366113
Bkj:__ZN15dense_hashtableINSt3__24pairIK10KeyWrapperINS1_IPK11Il2CppImageP11Il2CppClassEEEjEES9_17ReflectionMapHashIS8_EN14dense_hash_mapIS9_jSD_NS9_14EqualsComparerINS0_8equal_toIS8_EEEENS0_9allocatorISB_EEE9SelectKeyESI_SK_E5clearEv
S3i:__ZL25UnresolvedVirtualCall_186P12Il2CppObject20TimeSpan_t3430258949PK10MethodInfo
h6c:__ZN11UnityEngine15PlatformWrapper30GetGraphicsDriverLibraryStringEv
xeg:__ZL51UIVertex_t1204258818_CustomAttributesCacheGeneratorP21CustomAttributesCache
uPi:_Vector2_ToString_m775491729
Bwe:_List_1_get_Count_m1752597149_gshared
dqf:_EncryptedPrivateKeyInfo_Decode_m1706190306
IPb:__Z18Transfer_BlittableI18StreamedBinaryReadILb0EELb0E4AABBEvRK29SerializationCommandArgumentsR31RuntimeSerializationCommandInfo
SFd:_Convert_ToUInt16_m1665900934
jVe:_Converter_2_BeginInvoke_m898151494_gshared
V2a:__Z14DrawGUITextureRK5RectTIfEP7Texture11ColorRGBA32P8Materiali
zzh:_Text_get_supportRichText_m3291105891
geh:_RectTransform_GetParentSize_m1571597933
Ys:__ZN9BlobWrite8TransferI22OffsetPtrArrayTransferIKN4math7_float4EEEEvRT_PKc17TransferMetaFlags
ZSe:_ReadOnlyCollection_1_get_Count_m336636247_gshared
xxc:__ZNK11b2EdgeShape7RayCastEP15b2RayCastOutputRK14b2RayCastInputRK11b2Transformi
LSh:__Z52RuntimeInvoker_Decimal_t724701077_Double_t4078015681PK10MethodInfoPvPS2_
dCi:_MatchCollection_GetEnumerator_m3516985966
ntc:__ZN9JSONWrite8TransferI4AABBEEvRT_PKc17TransferMetaFlags
FRg:_UTF7Encoding__ctor_m2365939916
BKa:__ZN25MultiBlocksMemoryFileData9SetLengthEy
_M:__Z30GetAudioSpatializerDefinitionsR13dynamic_arrayIP29AudioEffectInternalDefinitionLj4EE
WMi:_TextGenerationSettings_Equals_m3944651893_AdjustorThunk
ssh:_MatEntry__ctor_m3650167335
I7h:__Z143RuntimeInvoker_Void_t1841601450_Il2CppObject_Vector2_t2243707579_Vector2_t2243707579_Color32_t874517518_Vector2_t2243707579_Vector2_t2243707579PK10MethodInfoPvPS2_
XXi:_ListPool_1_U3Cs_ListPoolU3Em__0_m441310157_gshared
XBc:__ZN10Collider2D13AwakeFromLoadE17AwakeFromLoadMode
GAb:__ZNSt3__26vectorIN30RuntimeInitializeOnLoadManager9ClassInfoE13stl_allocatorIS2_L18MemLabelIdentifier12ELi16EEE8__appendEj
Rnb:__ZNK9Texture2D20GetRuntimeMemorySizeEv
BXg:_TypeInitializationException__ctor_m2993591639
mph:_EqualityComparer_1__ctor_m3788663378_gshared
tm:_emscripten_glUniform2iv
rXf:__ZL46DES_t1353513560_CustomAttributesCacheGeneratorP21CustomAttributesCache
WZe:_Int16_System_IConvertible_ToInt64_m733340257
L$f:__ZL79Convert_t2607082565_CustomAttributesCacheGenerator_Convert_ToSingle_m2156102599P21CustomAttributesCache
RMc:_UNITY_FT_Outline_Transform
u4g:_SkinChangedDelegate_BeginInvoke_m4259161711
bjc:__Z60Register_UnityEngine_Sprites_DataUtility_Internal_GetMinSizev
D$i:__ZN6il2cpp2vm5Class10GetMethodsEP11Il2CppClassPPv
Gch:_Rect_get_x_m1393582490_AdjustorThunk
eYa:__Z30AddDefaultStreamsToMeshBuffersR9GfxDeviceR11MeshBuffersRK16DrawBuffersRange17ShaderChannelMaskS6_
jOf:__ZL65Il2CppArray_CustomAttributesCacheGenerator_Array_Sort_m3500510484P21CustomAttributesCache
Jgd:_Hash_GetObjectData_m315532943
bza:__ZN7ApiGLES17DeleteFramebufferERN2gl6HandleILNS0_10ObjectTypeE9EEES3_
s$i:__ZN13dynamic_arrayIP11Il2CppClassLj4EE7reserveEj
PFa:__ZN15UniformTFMethod13MapBoneBufferEj
qtf:_RecordProtocol_SendAlert_m2816808523
Z_c:__ZN2UI14CanvasRendererD2Ev
iBi:_MethodCall_get_LogicalCallContext_m3769562079
brj:__ZN6il2cpp6icalls8mscorlib6System5Array8SetValueEP11Il2CppArrayP12Il2CppObjectS5_
X6e:_SynchronizedReader_Read_m1399666181
fNg:_MonoEvent_get_Name_m2796714646
naa:__Z9SetupArgviPPKc
xbe:_Array_InternalArray__IEnumerable_GetEnumerator_TisHitInfo_t1761367055_m2486283755_gshared
LTd:_PointerEventData_set_worldNormal_m2025727441
xuf:_Context_get_SentConnectionEnd_m3114190867
Kcb:__ZN12ImmediatePtrI10GameObjectE8TransferI19StreamedBinaryWriteILb0EEEEvRT_
lnb:__ZN12CubemapArray23VirtualRedirectTransferER24GenerateTypeTreeTransfer
Q0i:__ZL24UnresolvedVirtualCall_22P12Il2CppObjectS0_iS0_S0_S0_PK10MethodInfo
l5:__ZN12FileAccessor4OpenER15FileSystemEntry14FilePermission16FileAutoBehavior
fPe:_ReadOnlyCollection_1__ctor_m2364452928_gshared
$Bj:__ZN6il2cpp2os9Directory6CreateERKNSt3__212basic_stringIcNS2_11char_traitsIcEENS2_9allocatorIcEEEEPi
Pha:__ZN4PPtrI6ShaderE8TransferI18StreamedBinaryReadILb0EEEEvRT_
z2a:__ZN23TransformChangeDispatch32QueueTransformChangeIfHasChangedERK15TransformAccess
oTd:_PointerEventData_set_clickTime_m3931922487
y1g:_WindowFunction__ctor_m977095815
qWe:_NumberFormatter_AppendNonNegativeNumber_m629862866
Dia:__ZNSt3__26vectorINS_4pairIN9ShaderLab16FastPropertyNameEN18UnityPropertySheet11UnityTexEnvEEENS_9allocatorIS6_EEE21__push_back_slow_pathIKS6_EEvRT_
PMa:__ZN15ArchiveReadFile5WriteEyPKvPy
Qui:_ResourceInfo__ctor_m2401359321_AdjustorThunk
TCj:__ZN6il2cpp2os26LibraryNamePrefixAndSuffixC2EPKcS3_
Qyd:_Hashtable__ctor_m392789568
oTg:_Mutex_CreateMutex_internal_m2352956576
GRg:_UTF7Encoding__cctor_m4192443836
ooc:__Z31GUIStyle_CUSTOM_SetFontInternalP12Il2CppObjectS0_
B:tempValue
r9a:__Z29StdTemplateConversionFunctionIaiEbPvR14SafeBinaryRead
_Ze:_Int16_System_IConvertible_ToSingle_m3277935657
J_:__Z29scripting_class_from_fullnamePKcS0_S0_
y6f:__ZL97GameObject_t1756533147_CustomAttributesCacheGenerator_GameObject_GetComponentInParent_m1235194528P21CustomAttributesCache
luh:_Raycast3DCallback_Invoke_m2271859924
Bz:__ZN26AnimatorControllerPlayable18DeallocateBindingsEv
vN:__ZN11AudioSource19CreateOpenALRolloffEfff
Hfg:__ZL83Event_t3028476042_CustomAttributesCacheGenerator_Event_set_displayIndex_m3631666901P21CustomAttributesCache
HRc:_UNITY_FT_Stream_ReadAt
M9f:__ZL111Object_t1021602117_CustomAttributesCacheGenerator_Object_DestroyImmediate_m3563317232____allowDestroyingAssets1P21CustomAttributesCache
fpa:__ZN9Texture3D34UpdateFileTextureUploadInstructionEP28FileTextureUploadInstructionj
o5g:_GUIStyle_get_lineHeight_m2132859383
pbi:__Z102RuntimeInvoker_Int32_t2071877448_Il2CppObject_UIVertex_t1204258818_Int32_t2071877448_Int32_t2071877448PK10MethodInfoPvPS2_
fbg:__ZL82Physics2D_t2540166467_CustomAttributesCacheGenerator_Physics2D_Raycast_m1220041042P21CustomAttributesCache
wqi:_UnityEvent_FindMethod_Impl_m3303953986
GXg:_UInt16_System_IConvertible_ToBoolean_m887616848
U4f:__ZL120ScriptableObject_t1975622470_CustomAttributesCacheGenerator_ScriptableObject_Internal_CreateScriptableObject_m1778903390P21CustomAttributesCache
ZO:__ZN11AudioModule22CreateAudioClipFromWWWEP10IWWWStreamPKcbbi
EQh:__Z142RuntimeInvoker_Boolean_t3825574718_Il2CppObject_Int32_t2071877448_Il2CppObject_SByte_t454417549_UInt32U26_t2197289955_ExceptionU26_t1467204777PK10MethodInfoPvPS2_
qQg:_StringBuilder_set_Length_m3039225444
eKe:_Collection_1_System_Collections_IList_Contains_m3870109702_gshared
S8d:_Array_InternalArray__ICollection_Contains_TisRaycastResult_t21186376_m3188614988_gshared
BGd:_CultureAwareComparer_GetHashCode_m3681260951
W0c:__Z13RegisterClassIN2UI11CanvasGroupEEvv
AXi:_U3CStartU3Ec__Iterator0__ctor_m951808111_gshared
vf:_emscripten_glClear
uuh:_Selectable__ctor_m1440593935
S2i:__ZL25UnresolvedVirtualCall_132P12Il2CppObject17Color_t2020392075faaaPK10MethodInfo
k5b:__ZNK8Playable6HandleEv
TNf:__ZL65Il2CppArray_CustomAttributesCacheGenerator_Array_Clear_m782967417P21CustomAttributesCache
pSj:___cxa_guard_abort
AFg:_CustomAttributeTypedArgument_t1498197914_marshal_pinvoke_back
y3:__ZN14MessageHandler28MessageIDToMessageIdentifierEi
pCf:_HttpRequestCreator_Create_m3607509610
_fg:__ZL50GUISkin_t1436893342_CustomAttributesCacheGeneratorP21CustomAttributesCache
k2i:__ZL24UnresolvedVirtualCall_98P12Il2CppObject8IntPtr_tPK10MethodInfo
UCe:_List_1_Shift_m3824049528_gshared
axg:_ArrayFixupRecord__ctor_m3659990982
Juf:_Context_get_RandomCS_m3946020109
PMf:__ZL72IntPtr_t_CustomAttributesCacheGenerator_IntPtr_op_Inequality_m3044532593P21CustomAttributesCache
q_d:_Dropdown_get_onValueChanged_m3334401942
TJj:__ZN6il2cpp2vm10WaitHandle19NewManualResetEventEb
yQe:_ReadOnlyCollection_1_System_Collections_IList_Contains_m3707723158_gshared
D$g:_Version_GetHashCode_m880841176
qhi:_CustomEventData_Add_m4160204358
cE:__Z51Register_UnityEngine_Animator_get_hasBoundPlayablesv
CSi:_Nullable_1_ToString_m1238126148_AdjustorThunk
Md:emscriptenWebGLGetUniform
Ao:FUNCTION_TABLE_iiiiiiiiiii
Npa:__Z32TransferEnumWithNameForceIntSizeI14SafeBinaryRead13TextureFormatEvRT_RT0_PKc17TransferMetaFlags
Lpg:__ZL86Scrollbar_t3248359358_CustomAttributesCacheGenerator_Scrollbar_ClickRepeat_m3403943364P21CustomAttributesCache
U1a:__ZL10CleanUpJobP20CullingGroupsJobData
cud:_Char_CompareTo_m3044885427_AdjustorThunk
Z2e:_FileStream_GetSecureFileName_m508045384
dYa:__Z20IsRunningNativeTestsv
PIh:_InternalEnumerator_1_System_Collections_IEnumerator_get_Current_m2035754659_AdjustorThunk
pvb:__ZN10MeshFilter23VirtualRedirectTransferER24GenerateTypeTreeTransfer
O2a:__ZN13RenderManager15BatchModeUpdateEv
cTi:_Predicate_1_EndInvoke_m973058386_gshared
P7f:__ZL52LayerMask_t3188175821_CustomAttributesCacheGeneratorP21CustomAttributesCache
NGe:_Collection_1_Add_m3985367602_gshared
qtb:__ZN14SafeBinaryRead21TransferSTLStyleArrayI13dynamic_arrayI8Vector2fLj4EEEEvRT_17TransferMetaFlags
yia:__ZN17PersistentManager51InstanceIDToLocalSerializedObjectIdentifierInternalEiR31LocalSerializedObjectIdentifier
$Dc:__ZN10ClipperLib7Clipper15SetWindingCountERNS_5TEdgeE
APg:_StrongNameKeyPair_System_Runtime_Serialization_IDeserializationCallback_OnDeserialization_m2330221363
LWc:_UNITY_FT_Create_Class_cff_services
RMh:_DefaultComparer__ctor_m1661558765_gshared
pd:_glVertexAttribIPointer
X_g:_UnhandledExceptionEventHandler_EndInvoke_m2207457167
ujh:_Dictionary_2_System_Collections_ICollection_get_IsSynchronized_m304009368_gshared
bDg:_HMAC_set_HashName_m457235014
z8b:__ZNK6Sprite10GetPaddingE20SpriteRenderDataMode
b8d:_Array_InternalArray__ICollection_Contains_TisTableRange_t2011406615_m605506746_gshared
Qjh:_Dictionary_2_Add_m1296007576_gshared
btg:__ZL76BacteriaController_t268947989_CustomAttributesCacheGenerator_horizontalSpeedP21CustomAttributesCache
AFd:_Decimal_op_Explicit_m729046406
yBg:_CryptoConfig_CreateFromName_m2169102076
y0d:_Graphic_OnEnable_m2900261811
BBg:_CryptographicUnexpectedOperationException__ctor_m3552441227
$si:_AnimatorControllerPlayable_GetAnimatorClipInfoCountInternal_m826336390
Pvd:_ArrayListWrapper_Clear_m321161741
B5d:_InputField_LineDownCharacterPosition_m2690468785
GRc:_UNITY_ft_glyphslot_alloc_bitmap
jei:__Z56RuntimeInvoker_ContentType_t1028629049_Int32_t2071877448PK10MethodInfoPvPS2_
Tje:_Array_Sort_TisVector2_t2243707579_TisVector2_t2243707579_m2582252549_gshared
GZg:_UInt64_System_IConvertible_ToDouble_m2828923873
KVh:__Z45RuntimeInvoker_Il2CppObject_Int16_t4041245914PK10MethodInfoPvPS2_
D6i:__ZN15dense_hashtableI10KeyWrapperIPK17Il2CppGenericInstES4_N6il2cpp8metadata21Il2CppGenericInstHashEN14dense_hash_setIS4_S7_NS4_14EqualsComparerINS6_24Il2CppGenericInstCompareEEENSt3__29allocatorIS4_EEE8IdentityESB_SE_E16reset_thresholdsEv
L$b:__ZZN2UI13RectTransform15InitializeClassEvEN31FunctorImpl_62kTransformChanged4CallEPviR11MessageData
Sxe:_List_1_System_Collections_IList_set_Item_m1129584681_gshared
aTc:_ft_raster1_render
eic:__Z57Register_UnityEngine_RectTransform_INTERNAL_set_anchorMaxv
Mse:_List_1_set_Capacity_m491101164_gshared
$Qj:__ZNKSt3__221__basic_string_commonILb1EE20__throw_length_errorEv
OQg:_StringBuilder_Insert_m1733097906
e0h:__Z88RuntimeInvoker_Void_t1841601450_Il2CppObject_Int32_t2071877448_Il2CppObject_Il2CppObjectPK10MethodInfoPvPS2_
mOh:_Comparer_1__ctor_m1157133632_gshared
ezf:_SslStreamBase_get_HashStrength_m480059173
cVe:_Comparison_1_EndInvoke_m2678763282_gshared
mih:_ValueCollection_System_Collections_Generic_ICollectionU3CTValueU3E_Clear_m3271993638_gshared
vBd:_Enumerator_MoveNext_m1419609883
mJ:__ZN4FMOD7Channel19setReverbPropertiesEPK29FMOD_REVERB_CHANNELPROPERTIES
Z2:__ZN13MonoBehaviour22GetScriptFullClassNameEv
jcg:__ZL145AnimatorControllerPlayable_t4078305555_CustomAttributesCacheGenerator_AnimatorControllerPlayable_INTERNAL_CALL_GetLayerWeightInternal_m3829748773P21CustomAttributesCache
URf:__ZL111DerivedType_t1016359113_CustomAttributesCacheGenerator_DerivedType_MakeGenericType_m742223168____typeArguments0P21CustomAttributesCache
VSe:_ReadOnlyCollection_1_Contains_m1816350632_gshared
zCf:_ServicePointManager_FindServicePoint_m3137356168
BQg:_StringBuilder_Append_m3541816491
Eoa:__ZN20SphericalHarmonicsL211AddWeightedERKS_f
bUd:_PointerInputModule_GetPointerData_m1695674453
yJb:__Z19TransferField_ArrayI17RemapPPtrTransfer27Converter_SimpleNativeClassI8GUIStyleEEvRK23StaticTransferFieldInfoR31RuntimeSerializationCommandInfoRT0_
d1:__ZL22StaticInitializeShaderPv
wGd:_Convert_ToUInt64_m345450801
FSi:_Predicate_1_BeginInvoke_m2559992383_gshared
$uj:__ZN6il2cpp2vm3RCW7CleanupEP15Il2CppComObject
yqc:__ZN9JSONWrite8TransferI10ColorRGBAfEEvRT_PKc17TransferMetaFlags
xci:__Z52RuntimeInvoker_Void_t1841601450_Keyframe_t1449471340PK10MethodInfoPvPS2_
COe:_ReadOnlyCollection_1_get_Item_m1909688500_gshared
s3:__Z25scripting_method_get_name18ScriptingMethodPtr
nic:__Z35Register_UnityEngine_Resources_Loadv
hIb:__Z19TransferField_ArrayI14SafeBinaryRead16Converter_StringEvRK23StaticTransferFieldInfoR31RuntimeSerializationCommandInfoRT0_
uQj:_rename
UHj:_GC_exit_check
Uaf:_NotSupportedException__ctor_m3232764727
PBf:_TypeConverterAttribute_Equals_m2330345916
Ogg:__ZL86GUIStyle_t1799908754_CustomAttributesCacheGenerator_GUIStyle_get_alignment_m3513439031P21CustomAttributesCache
X1:__Z20UnlockObjectCreationv
y1h:__Z55RuntimeInvoker_Il2CppObject_RegexOptionsU26_t3063574985PK10MethodInfoPvPS2_
z2e:_MonoIO_CreateDirectory_m379525469
ice:__ZN21InterfaceFuncInvoker2Ii22UILineInfo_t3621277874S0_E6InvokeEjP11Il2CppClassP12Il2CppObjectS0_S0_
Ps:__ZN9BlobWrite8TransferI22OffsetPtrArrayTransferI9OffsetPtrIN7mecanim12statemachine18StateMachineMemoryEEEEEvRT_PKc17TransferMetaFlags
bPc:_UNITY_ft_smooth_renderer_class_pic_free
CAe:_List_1_System_Collections_IList_Remove_m3763718607_gshared
jki:_Bounds_get_center_m129401026
mf:_emscripten_glStencilOpSeparate
Mjd:_String_Concat_m2000667605
Haj:__ZN6il2cpp2os19SocketHandleWrapperC2ERKS1_
pBj:__ZN6il2cpp2os10ThreadImpl12QueueUserAPCEPFvPvES2_
nG:__Z32TransferEnumWithNameForceIntSizeI14SafeBinaryReadN10SampleClip17CompressionFormatEEvRT_RT0_PKc17TransferMetaFlags
P6c:__ZN22BaseUnityConnectClient10QueueEventERN11UnityEngine15CloudWebService17CloudServiceEventEPKcjb
u9g:_Mesh_DefaultDimensionForChannel_m153181993
Wxe:__ZN23InterfaceActionInvoker2IP28UICharInfoU5BU5D_t2749705857iE6InvokeEjP11Il2CppClassP12Il2CppObjectS1_i
I7f:__ZL81Input_t1785128008_CustomAttributesCacheGenerator_Input_get_touchCount_m2050827666P21CustomAttributesCache
Ydd:_SHA384Managed_unpackWord_m2501009050
BYc:_UNITY_FT_Hypot
Iqd:_BitConverter_ToInt64_m1329623425
r0b:__ZN8RendererC2E12RendererType18MemLabelIdentifier18ObjectCreationMode
ZYf:__ZL95ASCIIEncoding_t3022927988_CustomAttributesCacheGenerator_ASCIIEncoding_GetByteCount_m1396020051P21CustomAttributesCache
Pej:_il2cpp_class_is_abstract
vlg:__ZL92PointerEventData_t1599784723_CustomAttributesCacheGenerator_U3CpointerDragU3Ek__BackingFieldP21CustomAttributesCache
Ff:_emscripten_glGetError
$J:__Z14FMOD_FILE_SeekPvjS_
EAi:_MethodCall_get_Properties_m1893707917
kNf:__ZL72Enum_t2459695545_CustomAttributesCacheGenerator_Enum_ToObject_m604645223P21CustomAttributesCache
_fh:_ShimEnumerator_get_Entry_m2387156530_gshared
J4c:__Z56Register_UnityEngine_Analytics_CustomEventData_AddStringv
w3a:__ZNK13RenderTexture32CalculateNeedsInvertedProjectionEv
hbb:__ZN10systeminfo18GetOperatingSystemEv
Nf:emscriptenWebGLGet
rdh:_Rect_GetHashCode_m559954498_AdjustorThunk
r5:__Z19CanReplaceComponentRN5Unity9ComponentEPKNS_4TypeEPN4core12basic_stringIcNS5_20StringStorageDefaultIcEEEE
Y1b:__ZN12CubemapArray11InitTextureEiii13TextureFormatb
Rye:_List_1_GrowIfNeeded_m2433342921_gshared
qac:__Z17GetSceneBuildInfoRKN4core12basic_stringIcNS_20StringStorageDefaultIcEEEEiR14SceneBuildInfo
z3h:__Z36RuntimeInvoker_Matrix4x4_t2933234003PK10MethodInfoPvPS2_
AJa:__ZNK15Lz4Decompressor20DecompressStreamInitEPPv
yjj:__ZN24dense_hashtable_iteratorINSt3__24pairIK10KeyWrapperIPK10Il2CppTypeEjEES6_N6il2cpp8metadata14Il2CppTypeHashEN14dense_hash_mapIS6_jSB_NS6_14EqualsComparerINSA_26Il2CppTypeEqualityComparerEEENS0_9allocatorIS8_EEE9SelectKeyESF_SH_E30advance_past_empty_and_deletedEv
pGe:_Collection_1_set_Item_m3803272710_gshared
I9g:_Mesh_SetUVs_m841280343
qOg:_MonoMethodInfo_t3646562144_marshal_pinvoke_cleanup
RFf:_X509Certificate2_get_SignatureAlgorithm_m3069898012
oCf:_HttpRequestCreator__ctor_m2513916021
WE:__Z105Register_UnityEngine_Experimental_Director_AnimatorControllerPlayable_INTERNAL_CALL_GetLayerCountInternalv
e0e:_Int64_System_IConvertible_ToSingle_m1678482180
wYh:__Z54RuntimeInvoker_Il2CppObject_IntPtr_t_Int32_t2071877448PK10MethodInfoPvPS2_
Z5g:_GUIStyle_INTERNAL_CALL_Internal_CalcSizeWithConstraints_m1203344891
xt:__ZN7mecanim5human13HumanFixTwistEPKNS0_5HumanEPNS_8skeleton13SkeletonPoseTIN4math4trsXEEES9_iiRKf
OYa:__ZL24AssignProjectorQueuesJobP30AssignProjectorQueuesJobHeader
XUg:_TimeSpan_get_Hours_m3804628138
H$d:_FontData_set_alignByGeometry_m2819509290
owj:__ZN14dense_hash_mapI10KeyWrapperIP12Il2CppObjectEN6il2cpp2gc9CachedCCWENS4_5utils11PointerHashIS1_EENS3_14EqualsComparerINSt3__28equal_toIS2_EEEENSB_9allocatorINSB_4pairIKS3_S6_EEEEEC2EjRKS9_RKSE_
mDi:_Regex__ctor_m3250610064
eWb:__ZN9ShaderLab20SerializedSubProgram14SetConstBufferEPKci
Gmf:_ArgumentNullException__ctor_m911049464
JMg:_TargetParameterCountException__ctor_m2760108938
lug:_SoapAttribute_SetReflectionObject_m2774156012
JRi:_Check_Source_m3385315029
HUi:_InvokableCall_4_Find_m1467690987_gshared
EUe:_Comparison_1_Invoke_m345024424_gshared
aVc:_cf2_getStdVW
GRe:_ReadOnlyCollection_1_System_Collections_IList_Insert_m3936197025_gshared
aOd:_EventHandler_BeginInvoke_m3027583606
IV:__Z40DebugStringToFilePostprocessedStacktraceRK21DebugStringToFileData
Zuc:__Z29Transfer_Blittable_ArrayFieldI8JSONReadjEvRT_R9ArrayInfoRK23StaticTransferFieldInfo
wMi:_StateMachineBehaviour_OnStateEnter_m1095276890
Yah:_Object_GetInstanceID_m1920497914
jzi:_ContextAttribute__ctor_m4006843177
pIh:_InternalEnumerator_1_get_Current_m314017974_AdjustorThunk
_ti:_AnimatorControllerPlayable_Play_m1337154648
sg:__setLetterbox
f4e:_MemoryStream__ctor_m1043059966
Pia:__ZNSt3__26__treeINS_12__value_typeIN9ShaderLab16FastPropertyNameEfEENS_19__map_value_compareIS3_S4_NS_4lessIS3_EELb1EEENS_9allocatorIS4_EEE12__find_equalIS3_EERPNS_16__tree_node_baseIPvEENS_21__tree_const_iteratorIS4_PNS_11__tree_nodeIS4_SE_EEiEESH_RKT_
rNi:_TextGenerator_Populate_Internal_m1817393161
iQf:__ZL57CollectionBase_t1101587467_CustomAttributesCacheGeneratorP21CustomAttributesCache
Ltg:__ZN21InterfaceFuncInvoker3IP12Il2CppObjectP6Type_t28StreamingContext_t1417235061PS1_E6InvokeEjP11Il2CppClassS1_S3_S4_S5_
kub:__ZNSt3__26vectorI17BlendShapeChannelNS_9allocatorIS1_EEE6assignINS_11__wrap_iterIPS1_EEEENS_9enable_ifIXaasr21__is_forward_iteratorIT_EE5valuesr16is_constructibleIS1_NS_15iterator_traitsISA_E9referenceEEE5valueEvE4typeESA_SA_
K6d:_LayoutElement_set_preferredWidth_m3072758716
DVi:_UnityEvent_1_AddListener_m1708363187_gshared
AEf:_AsnEncodedData_ToString_m724151831
d3a:__ZN11TimeManager11GetRealtimeEv
kFe:_Collection_1_System_Collections_IList_get_IsFixedSize_m2408637569_gshared
ASg:_UTF8Encoding_GetByteCount_m1469571127
rHj:_GC_print_block_list
mK:__ZN29AudioEffectInternalDefinitionC2EP26UnityAudioEffectDefinitionb
TMg:_MonoMethodInfo_GetDeclaringType_m4186531677
Lug:_SoapTypeAttribute_SetReflectionObject_m1566293812
mnh:_DefaultComparer__ctor_m418731767_gshared
_A:__ZN4PPtrI6AvatarE8TransferI18StreamedBinaryReadILb0EEEEvRT_
xZi:_Enumerator_System_Collections_IEnumerator_Reset_m2573763156_AdjustorThunk
ywg:_RemotingServices_CreateClientProxy_m1631035355
k_g:_UInt64_ToString_m2892887310
$gg:__ZL88GUIStyle_t1799908754_CustomAttributesCacheGenerator_GUIStyle_set_fixedHeight_m1517737608P21CustomAttributesCache
wjd:_String_System_IConvertible_ToType_m512800076
nDj:__ZN15dense_hashtableINSt3__24pairIK10KeyWrapperIPK19Il2CppGenericMethodEP10MethodInfoEES6_N6il2cpp8metadata23Il2CppGenericMethodHashEN14dense_hash_mapIS6_S9_SD_NS6_14EqualsComparerINSC_26Il2CppGenericMethodCompareEEENS0_9allocatorISA_EEE9SelectKeyESH_SJ_EC2ERKSM_j
glj:__ZN15dense_hashtableINSt3__24pairIK10KeyWrapperINS1_IPK12PropertyInfoP11Il2CppClassEEEjEES9_17ReflectionMapHashIS8_EN14dense_hash_mapIS9_jSD_NS9_14EqualsComparerINS0_8equal_toIS8_EEEENS0_9allocatorISB_EEE9SelectKeyESI_SK_E5clearEv
vvb:__ZN4PPtrI4MeshE8TransferI14SafeBinaryReadEEvRT_
FBc:__ZN24b2ChainAndCapsuleContact6CreateEP9b2FixtureiS1_iP16b2BlockAllocator
$Ja:__Z37ReadDirectoryInfo_UnityWebAndUnityRawR12FileAccessorRKN20ArchiveStorageHeader6HeaderERNS1_13DirectoryInfoE
Xae:_Array_InternalArray__IEnumerable_GetEnumerator_TisInt64_t909078037_m1219751804_gshared
L0:__ZNSt3__26__treeINS_12__value_typeIPKciEENS_19__map_value_compareIS3_S4_15compare_tstringIS3_ELb1EEENS_9allocatorIS4_EEE7destroyEPNS_11__tree_nodeIS4_PvEE
cPf:__ZL96RuntimeTypeHandle_t2330101084_CustomAttributesCacheGenerator_RuntimeTypeHandle_Equals_m452760426P21CustomAttributesCache
umh:_Dictionary_2_ToTValue_m1381983709_gshared
Laf:_MulticastDelegate_KPM_m1592985119
Ech:_RaycastHit2D_get_collider_m2568504212_AdjustorThunk
RMe:_Collection_1_ConvertItem_m3941916604_gshared
NVa:__ZN20DynamicPropertySheet14SetValueQueuedEN9ShaderLab16FastPropertyNameEN19ShaderPropertySheet12PropertyTypeEjNS2_8SetFlagsE
I$c:__ZN2UI6Canvas26MarkAllNestedCanvasesDirtyEv
Nuj:__ZN6il2cpp2vm12ReboxIfBoxedEP14Il2CppIUnknownP11Il2CppClass
zye:_List_1__ctor_m2766376432_gshared
U7a:__ZN25PathNamePersistentManagerD2Ev
Q1:__ZN17PersistentManager48IntegrateObjectAndUnlockIntegrationMutexInternalEi
oSe:_ReadOnlyCollection_1_System_Collections_IList_get_IsReadOnly_m3872065502_gshared
wSf:__ZL112TypeBuilder_t3308873219_CustomAttributesCacheGenerator_TypeBuilder_MakeGenericType_m4282022646____typeArguments0P21CustomAttributesCache
zgi:__Z89RuntimeInvoker_Il2CppObject_Scene_t1684909666_Scene_t1684909666_Il2CppObject_Il2CppObjectPK10MethodInfoPvPS2_
rp:__ZN6Object12SetHideFlagsENS_9HideFlagsE
OGc:__ZN9b2Fixture11SynchronizeEP12b2BroadPhaseRK11b2TransformS4_
RXj:_emscripten_glGetFramebufferAttachmentParameteriv__wrapper
YQa:__ZN13RendererScene15InitializeUmbraEv
Jii:_AnimatorTransitionInfo_IsName_m2561957738_AdjustorThunk
ooa:__Z28CalculateGlobalMatrixInverse23TransformAccessReadOnly
ssc:__ZN4PPtrI6ObjectE8TransferI9JSONWriteEEvRT_
Pqj:__ZN6il2cpp2vm6Thread13MemoryBarrierEv
YTd:_PointerEventData_ToString_m1218584363
ztd:_Char_System_IConvertible_ToChar_m1489061093_AdjustorThunk
ORg:_UTF7Encoding_GetCharCount_m2589913583
ykg:__ZL117RenderPipelineManager_t984453155_CustomAttributesCacheGenerator_RenderPipelineManager_set_currentPipeline_m3825706412P21CustomAttributesCache
D_h:__Z91RuntimeInvoker_DateTime_t693205669_Il2CppObject_Il2CppObject_Il2CppObject_Int32_t2071877448PK10MethodInfoPvPS2_
pQa:_UNITY_png_write_sCAL_s
Y4e:_MemoryStream_CalculateNewCapacity_m3533542025
akg:__ZL66ExcludeFromDocsAttribute_t665825653_CustomAttributesCacheGeneratorP21CustomAttributesCache
hMj:__ZN6il2cpp6icalls8mscorlib6System6Object7GetTypeEP12Il2CppObject
M5i:__ZNK15dense_hashtableINSt3__24pairIK10KeyWrapperIPKcEP11Il2CppClassEES5_N6il2cpp5utils11StringUtils12StringHasherIS4_EEN14dense_hash_mapIS5_S8_SE_NS5_14EqualsComparerINSC_21CaseSensitiveComparerEEENS0_9allocatorIS9_EEE9SelectKeyESI_SK_E5beginEv
hhg:__ZL88GUIStyle_t1799908754_CustomAttributesCacheGenerator_GUIStyle_GetFontInternal_m3509743324P21CustomAttributesCache
wVg:_TimeSpan_Equals_m4102942751_AdjustorThunk
sci:__Z59RuntimeInvoker_Void_t1841601450_X509ChainStatus_t4278378721PK10MethodInfoPvPS2_
lih:_ValueCollection_System_Collections_Generic_ICollectionU3CTValueU3E_Add_m1903672223_gshared
zG:__ZN4FMOD6SoundI7releaseEv
bwb:__ZN14SpriteRenderer13AwakeFromLoadE17AwakeFromLoadMode
xUd:_MouseButtonEventData__ctor_m618518000
PKa:__ZN10MemoryFile9SetLengthEy
wYg:_UInt16_ToString_m2038947049_AdjustorThunk
ioh:_DefaultComparer_Equals_m3143385420_gshared
jAc:__ZNK15b2RevoluteJoint10GetAnchorBEv
spb:__ZN14SafeBinaryRead21TransferSTLStyleArrayI13dynamic_arrayI7Hash128Lj8EEEEvRT_17TransferMetaFlags
_Db:__Z28scripting_class_is_interface17ScriptingClassPtr
Ih:_glTexStorage2D
TVb:__ZNK9ShaderLab10SubProgram14EnsureCompiledEv
Uyg:_ObjectManager_RecordFixup_m3572285566
ZAa:__ZN18AsyncUploadManager22WaitForActiveAsyncReadEv
$Qf:__ZL55DaylightTime_t3800227331_CustomAttributesCacheGeneratorP21CustomAttributesCache
sAd:_SortedList_InitTable_m460350503
k3:__Z18BuildScriptClassId17ScriptingClassPtr
hFh:_InternalEnumerator_1_get_Current_m4279678504_AdjustorThunk
Gq:__ZNK16LevelGameManager7GetNameEv
mFe:_Collection_1_System_Collections_IList_get_Item_m2415649949_gshared
A2b:__ZN8Renderer28HandleParentHierarchyChangesEPK23TransformAccessReadOnlyj
HJg:_ILTokenInfo_t149559338_marshal_pinvoke_cleanup
PX:__ZL31DeleteLastPathNameComponentImplRKN4core12basic_stringIcNS_20StringStorageDefaultIcEEEEPKc
i_b:__Z13RegisterClassI18DelayedCallManagerEvv
$6c:__ZN18UnityConnectClient15GetCloudServiceEv
MJb:__Z18Transfer_BlittableI24GenerateTypeTreeTransferLb0EiEvRK29SerializationCommandArgumentsR31RuntimeSerializationCommandInfo
Eaj:__ZN6il2cpp2os19SocketHandleWrapperD2Ev
jBc:__ZN15b2CircleContact6CreateEP9b2FixtureiS1_iP16b2BlockAllocator
WDb:__ZL28SerializationCommandGroupForRK31TransferFunctionScriptingTraits17ScriptingClassPtr17ScriptingFieldPtrRK20CoreScriptingClasses
aib:__ZN10TagManager32RegisterDefaultTagsAndLayerMasksEv
PXi:_TweenRunner_1_StopTween_m2135918118_gshared
Zih:_ValueCollection_get_Count_m4142113966_gshared
sig:__ZL118AttributeHelperEngine_t958797062_CustomAttributesCacheGenerator_AttributeHelperEngine_GetRequiredComponents_m120894667P21CustomAttributesCache
afb:__ZN14CachingManager12ReadInfoFileERKN4core12basic_stringIcNS0_20StringStorageDefaultIcEEEEPlPNSt3__26vectorIS4_NS8_9allocatorIS4_EEEE
Yag:__ZL105RectTransform_t3349966182_CustomAttributesCacheGenerator_RectTransform_INTERNAL_get_sizeDelta_m3975625099P21CustomAttributesCache
R4c:__Z56Register_UnityEngine_Analytics_CustomEventData_AddUInt32v
lvd:_ArrayList_InsertRange_m1478230997
Rya:__ZN4gles8InitCapsEP7ApiGLESP12GraphicsCapsR16GfxDeviceLevelGL
mja:__ZN6prcore14BlitImageFloatERK14ImageReferenceRS0_NS0_8BlitModeE
dqd:_Swapper_EndInvoke_m677693941
Pfb:__ZN21AssetBundleFileSystem4ReadER13FileEntryDatayyPvPy
U8g:_Matrix4x4_Equals_m1321236479_AdjustorThunk
k5f:__ZL99Camera_t189460977_CustomAttributesCacheGenerator_Camera_INTERNAL_CALL_ScreenToWorldPoint_m196899300P21CustomAttributesCache
pi:_glEnable
Ugb:__ZNK13Lz4Compressor29CalculateCompressedBufferSizeEj
xbj:__ZN6il2cpp2vm19SocketPollingThreadC2Ev
CTa:__ZNK25CameraStackRenderingState21GetImageEffectTextureEb
Vzg:_RuntimeMethodHandle__ctor_m2437574937_AdjustorThunk
xag:__ZL99Transform_t3275118058_CustomAttributesCacheGenerator_Transform_INTERNAL_get_localPosition_m94028171P21CustomAttributesCache
XXg:_UInt16_System_IConvertible_ToInt64_m2835280558_AdjustorThunk
Tbh:_Quaternion_GetHashCode_m2270520528_AdjustorThunk
r4f:__ZL53g_UnityEngine_Assembly_CustomAttributesCacheGeneratorP21CustomAttributesCache
nTi:_Predicate_1_BeginInvoke_m3926587117_gshared
Pzb:__ZNSt3__26vectorI4PPtrI6ObjectE13stl_allocatorIS3_L18MemLabelIdentifier51ELi16EEE6assignINS_11__wrap_iterIPS3_EEEENS_9enable_ifIXaasr21__is_forward_iteratorIT_EE5valuesr16is_constructibleIS3_NS_15iterator_traitsISD_E9referenceEEE5valueEvE4typeESD_SD_
mEg:_AssemblyName_get_Name_m1815759940
Fve:_List_1_get_Item_m1231764300_gshared
NZd:_DefaultControls_CreateToggle_m1568873127
oCe:_List_1__cctor_m1022807427_gshared
YPf:__ZL63KeyNotFoundException_t1722175009_CustomAttributesCacheGeneratorP21CustomAttributesCache
emh:_Dictionary_2_InitArrays_m2270022740_gshared
XBd:_Convert_ToBoolean_m2188088811
J5c:__ZN11UnityEngine7Connect15DeviceInfoEvent16CollectExtraInfoEv
B_h:__Z115RuntimeInvoker_Boolean_t3825574718_Il2CppObject_Int32_t2071877448_Il2CppObject_SByte_t454417549_Int32U26_t455636984PK10MethodInfoPvPS2_
$Qg:_UnicodeEncoding_GetChars_m3765282346
U0e:_IntPtr__ctor_m4104029105
BWf:__ZL114BinaryFormatter_t1866979105_CustomAttributesCacheGenerator_BinaryFormatter_get_DefaultSurrogateSelector_m219714691P21CustomAttributesCache
BJh:_InternalEnumerator_1_System_Collections_IEnumerator_get_Current_m771161214_AdjustorThunk
J9e:_MonoType_get_attributes_m1493788675
yQj:_atol
WJj:__ZN6il2cpp6icalls8mscorlib6System10Reflection9FieldInfo25internal_from_handle_typeE12Il2CppIntPtrS5_
UIj:__ZThn8_N6il2cpp2vm13CachedCCWBaseINS0_13ManagedObjectEE6AddRefEv
tEd:_Convert_ToDouble_m4236754739
jyf:_SslClientStream_get_PrivateKeyCertSelectionDelegate_m3715949545
Z_d:_Dropdown_CreateItem_m2702141380
ATe:_ReadOnlyCollection_1_IndexOf_m224962127_gshared
FQf:__ZL48Stack_t1043988394_CustomAttributesCacheGeneratorP21CustomAttributesCache
Eo:FUNCTION_TABLE_viifi
Fo:FUNCTION_TABLE_viiff
cNg:_MonoEvent_GetAddMethod_m4289563120
NOf:__ZL37Type_t_CustomAttributesCacheGeneratorP21CustomAttributesCache
QYc:_UNITY_tt_face_free_hdmx
Qoj:__ZN15dense_hashtableINSt3__24pairIK10KeyWrapperINS1_IP11Il2CppClassjEEES4_EES6_N6il2cpp8metadata14ArrayClassHashEN14dense_hash_mapIS6_S4_SB_NS6_14EqualsComparerINSA_17ArrayClassCompareEEENS0_9allocatorIS8_EEE9SelectKeyESF_SH_E5clearEv
u5i:__ZNSt3__218uninitialized_copyIPNS_4pairIK10KeyWrapperIPK11Il2CppClassEPKcEESB_EET0_T_SD_SC_
ogj:__ZN6il2cpp2vm14TypeNameParser5ParseEb
$th:_ReflectionMethodsCache__ctor_m1835220
DZh:__Z51RuntimeInvoker_Int16_t4041245914_Single_t2076509932PK10MethodInfoPvPS2_
dQf:__ZL71SynchronizedArrayListWrapper_t3317806524_CustomAttributesCacheGeneratorP21CustomAttributesCache
c9c:__ZN23UnityPurchasingSettingsC2Ev
HMd:_Double_ToString_m1864290157
RRh:__Z63RuntimeInvoker_Il2CppObject_Int16_t4041245914_Int32_t2071877448PK10MethodInfoPvPS2_
XHh:_InternalEnumerator_1_get_Current_m4154059426_AdjustorThunk
z7:__ZNSt3__26__treeINS_12__value_typeI18VertexChannelsInfo16MeshVertexFormatEENS_19__map_value_compareIS2_S4_NS_4lessIS2_EELb1EEE13stl_allocatorIS4_L18MemLabelIdentifier16ELi16EEE12__find_equalIS2_EERPNS_16__tree_node_baseIPvEENS_21__tree_const_iteratorIS4_PNS_11__tree_nodeIS4_SF_EEiEESI_RKT_
Wxj:__ZNK24NamespaceAndNamePairHashclERKNSt3__24pairIPKcS3_EE
xpa:__ZL37stbir__resample_horizontal_downsampleP11stbir__infoiPf
nHe:__ZN21InterfaceFuncInvoker1Ib18Color32_t874517518E6InvokeEjP11Il2CppClassP12Il2CppObjectS0_
Pma:__ZNK5Unity9Component38MarkGameObjectAndComponentDependenciesER27GarbageCollectorThreadState
ZX:__ZL16OutOfMemoryErrorjj18MemLabelIdentifieriPKc
rtf:_RecordProtocol_SendRecord_m132002114
NN:__ZNK7Texture21GetShadowSamplingModeEv
AW:__ZN13ScreenManager21OnWindowRegainedFocusEv
nQb:__Z18Transfer_BlittableI18StreamedBinaryReadILb0EELb1EdEvRK29SerializationCommandArgumentsR31RuntimeSerializationCommandInfo
sMc:__ZN13sorted_vectorIN20TextRenderingPrivate8FontImpl13CharacterInfoENSt3__24lessIS2_EE13stl_allocatorIS2_L18MemLabelIdentifier1ELi16EEE10insert_oneERKS2_
Kli:_WillRenderCanvases_BeginInvoke_m1914028027
QYe:_Guid__ctor_m2599802704
x3e:_FileStream_get_CanRead_m4148920720
v9c:__ZN13RuntimeStaticINSt3__26vectorIPN5physx15PxVehicleWheelsENS0_9allocatorIS4_EEEELb0EE13StaticDestroyEPv
CBa:__ZN4crnd12symbol_codec32decode_receive_static_data_modelERNS_25static_huffman_data_modelE
G$b:__ZN18ScriptingArguments8AddFloatEf
FXe:_GregorianCalendar_set_CalendarType_m2438362222
hZd:_FloatTween_get_targetValue_m2120061648_AdjustorThunk
adi:__Z71RuntimeInvoker_Void_t1841601450_Int32_t2071877448_UriScheme_t1876590943PK10MethodInfoPvPS2_
$8d:_Array_InternalArray__ICollection_Contains_TisVector2_t2243707579_m3625698589_gshared
_rc:__Z18Transfer_BlittableI9JSONWriteLb0EaEvRK29SerializationCommandArgumentsR31RuntimeSerializationCommandInfo
JQ:__ZN11UnityEngine15CloudWebService14DataDispatcher34OnSessionContainerArchivedAndReadyERNS0_16SessionContainerE
RCc:__ZN7b2World11CreateJointEPK10b2JointDef
oYe:_NumberFormatInfo_GetFormat_m3247563525
S_f:__ZL77Convert_t2607082565_CustomAttributesCacheGenerator_Convert_ToByte_m2303223565P21CustomAttributesCache
hsf:_CipherSuiteCollection__ctor_m2154226461
FLb:__Z18Transfer_BlittableI19StreamedBinaryWriteILb0EELb0E8Vector3fEvRK29SerializationCommandArgumentsR31RuntimeSerializationCommandInfo
s1g:_RectOffset__ctor_m2227510254
mSb:__ZN14SafeBinaryRead19TransferSTLStyleMapINSt3__23mapIN4core12basic_stringIcNS3_20StringStorageDefaultIcEEEEiNS1_4lessIS7_EENS1_9allocatorINS1_4pairIKS7_iEEEEEEEEvRT_17TransferMetaFlags
ykj:__ZN15dense_hashtableINSt3__24pairIK10KeyWrapperINS1_IPK11Il2CppImageP11Il2CppClassEEEjEES9_17ReflectionMapHashIS8_EN14dense_hash_mapIS9_jSD_NS9_14EqualsComparerINS0_8equal_toIS8_EEEENS0_9allocatorISB_EEE9SelectKeyESI_SK_ED2Ev
xQc:_gray_move_to
CCg:_DSAParameters_t1872138834_marshal_pinvoke
pqi:_UnityAction_BeginInvoke_m407736228
lMe:_Collection_1_System_Collections_IEnumerable_GetEnumerator_m4174600764_gshared
rAi:_ConstructionCall_InitDictionary_m4046452035
hBb:__ZN5Cache9URLToPathERKN4core12basic_stringIcNS0_20StringStorageDefaultIcEEEE7Hash128
slj:__ZN6il2cpp2vm10Reflection14GetEventObjectEP11Il2CppClassPK9EventInfo
x7h:__Z43RuntimeInvoker_VerticalWrapMode_t3668245347PK10MethodInfoPvPS2_
Atf:_TlsStream_Write_m2271546135
iac:__Z30RegisterValidateMethodCallbackiPF18ScriptingMethodPtrS_17ScriptingClassPtrP6ObjectEPKc
wY:__ZN20LocalFileSystemPosixD0Ev
EPd:_CultureInfo_ConstructInternalLocaleFromCurrentLocale_m1342751405
XZh:__Z50RuntimeInvoker_UInt16_t986882611_Int16_t4041245914PK10MethodInfoPvPS2_
Sfb:__ZN21AssetBundleFileSystem5WriteER13FileEntryDatayPvPy
Ynd:_Latin1Encoding_GetString_m3553289597
VRc:_tt_cmap_init
TCa:__ZL25ProgramUniformMatrix4x2fvPK7ApiGLESjiihPKv
wPh:_Enumerator_get_Current_m1020413567_AdjustorThunk
cte:_List_1_System_Collections_IList_get_IsFixedSize_m1122077912_gshared
Yvj:__ZN15dense_hashtableI10KeyWrapperIP18Il2CppGenericClassES3_N6il2cpp8metadata22Il2CppGenericClassHashEN14dense_hash_setIS3_S6_NS3_14EqualsComparerINS5_25Il2CppGenericClassCompareEEENSt3__29allocatorIS3_EEE8IdentityESA_SD_E12maybe_shrinkEv
Kdi:__Z48RuntimeInvoker_Link_t865133271_Int32_t2071877448PK10MethodInfoPvPS2_
m$b:__ZN9TextAssetC2E18MemLabelIdentifier18ObjectCreationMode
Soi:_Display_RecreateDisplayList_m3412638488
alj:__ZN15dense_hashtableINSt3__24pairIK10KeyWrapperINS1_IPK12PropertyInfoP11Il2CppClassEEEjEES9_17ReflectionMapHashIS8_EN14dense_hash_mapIS9_jSD_NS9_14EqualsComparerINS0_8equal_toIS8_EEEENS0_9allocatorISB_EEE9SelectKeyESI_SK_E8min_sizeEjj
t0f:__ZL79Convert_t2607082565_CustomAttributesCacheGenerator_Convert_ToUInt64_m2215781574P21CustomAttributesCache
jfi:__Z52RuntimeInvoker_KeyValuePair_2_t38854645_Il2CppObjectPK10MethodInfoPvPS2_
u1j:_emscripten_glCheckFramebufferStatus__wrapper
aqj:__ZNK15dense_hashtableINSt3__24pairIK10KeyWrapperIP11Il2CppClassES4_EES5_N6il2cpp8metadata16SZArrayClassHashEN14dense_hash_mapIS5_S4_SA_NS5_14EqualsComparerINS9_19SZArrayClassCompareEEENS0_9allocatorIS7_EEE9SelectKeyESE_SG_E12test_deletedEj
tuc:__Z18Transfer_BlittableI8JSONReadLb0EdEvRK29SerializationCommandArgumentsR31RuntimeSerializationCommandInfo
sye:_List_1_TrimExcess_m2004514756_gshared
MTg:_Thread_ClrState_m822263449
Bdf:_SimpleCollator_LastIndexOfOrdinalIgnoreCase_m550798345
S5g:_GUIStyle_INTERNAL_CALL_Internal_GetCursorStringIndex_m3074318281
Vm:FUNCTION_TABLE_viiiiiifiii
nua:__ZNK9GfxDevice13GetViewMatrixEv
$ma:__ZN17RemapPPtrTransferC2E24TransferInstructionFlagsb
H4:__ZN8TypeTree8BlobReadERPKhS1_ib
RNe:_ReadOnlyCollection_1_System_Collections_IList_get_IsFixedSize_m942145650_gshared
nla:__ZN11prophecysdk4half7convertEi
Sib:__ZN6CameraD0Ev
aff:_ModulusRing_Multiply_m386339435
f9:__ZN31CanvasBatchIntermediateRenderer16StaticInitializeEPv
s1d:_GraphicRaycaster_U3CRaycastU3Em__0_m3971200721
_Pe:_ReadOnlyCollection_1_System_Collections_IList_RemoveAt_m3004588099_gshared
$Dd:_Decimal_op_Implicit_m4246329390
Imf:_ArgumentNullException__ctor_m2252076819
$4a:__ZN10GameObjectC2E18MemLabelIdentifier18ObjectCreationMode
APc:_raccess_guess_apple_double
QAf:_ListDictionary_GetEnumerator_m1511032609
vHg:_TypeBuilder_get_FullName_m1626507516
qyg:_SerializationInfo__ctor_m4016423422
BCa:__ZL18ProgramUniform1uivPK7ApiGLESjiihPKv
g2b:__ZN14Texture2DArray13RebuildMipMapEv
W4i:__ZN13Il2CppHashSetIPK17Il2CppGenericInstN6il2cpp8metadata21Il2CppGenericInstHashENS4_24Il2CppGenericInstCompareENSt3__29allocatorI10KeyWrapperIS2_EEEEC2EjRKS5_RKS6_
bGe:_Collection_1_Clear_m2734620236_gshared
vCj:__ZN6il2cpp2gc16GarbageCollector14RemoveWeakLinkEPPv
fWb:__ZN9ShaderLab20SerializedSubProgram14AddVectorParamEPKcii15ShaderParamTypei
Nue:_List_1_System_Collections_Generic_IEnumerableU3CTU3E_GetEnumerator_m3123730956_gshared
q1c:__ZN2UI14CanvasRenderer12CleanupClassEv
HSe:_ReadOnlyCollection_1_System_Collections_IEnumerable_GetEnumerator_m1734360860_gshared
Qnh:_DefaultComparer__ctor_m1052417779_gshared
Chd:_SystemException__ctor_m2688248668
avi:_ResourceSet_ReadResources_m1669023823
cgb:__ZNK17FileSystemHandler6ParentERK13FileEntryDataRN4core12basic_stringIcNS3_20StringStorageDefaultIcEEEE
Rkf:_PKCS12_RemoveCertificate_m1590055870
Oqj:__ZN6il2cpp2vm6Thread7SetNameEP12Il2CppThreadP12Il2CppString
tHg:_TypeBuilder_get_DeclaringType_m3236598700
Zaa:__ZN13ScreenManager18SetAllowCursorLockEb
xAb:__ZN30RuntimeInitializeOnLoadManager15ClassMethodInfo8TransferI14SafeBinaryReadEEvRT_
WCb:__ZN9TextAsset8TransferI14SafeBinaryReadEEvRT_
erg:__ZL73CanvasScaler_t2574720772_CustomAttributesCacheGenerator_m_ScreenMatchModeP21CustomAttributesCache
wP:__ZL22InitializeModule_Audiov
oFc:__ZN16Physics2DManager13DynamicUpdateEv
tab:__ZN16MemoryFileSystem8IsLockedERK13FileEntryData
qPi:_Vector2_get_Item_m2792130561_AdjustorThunk
LMg:_MonoCMethod_Invoke_m931478014
hvi:_SatelliteContractVersionAttribute__ctor_m2605651717
Yk:_emscripten_glBindRenderbuffer
eIg:_EnumBuilder_HasElementTypeImpl_m1414733955
aoc:__Z32GUIStyle_Set_Custom_PropClippingP12Il2CppObjecti
Amd:_DecoderExceptionFallbackBuffer_GetNextChar_m1727394816
PHj:_GC_dirty_init
ppd:_Array_Copy_m1969461849
Kxg:_MessageFormatter_ReadMethodResponse_m4134629501
vxj:__ZN6il2cpp2vm5Field14GetValueObjectEP9FieldInfoP12Il2CppObject
L0c:__ZNK2UI6Canvas16GetTargetDisplayEv
BIi:_PKCS12_GetSymmetricAlgorithm_m3196291685
PNd:_Environment_get_OSVersion_m1247315981
Y7:__ZN6Object17FindObjectsOfTypeEPKN5Unity4TypeER13dynamic_arrayIPS_Lj4EEb
$5b:__ZNSt3__26vectorINS_4pairIiiEE13stl_allocatorIS2_L18MemLabelIdentifier1ELi16EEE21__push_back_slow_pathIKS2_EEvRT_
LIf:_Capture_get_Length_m1952322390
Dsc:__ZN9JSONWrite8TransferI4PPtrI9Texture2DEEEvRT_PKc17TransferMetaFlags
nri:_AnimationOffsetPlayable_INTERNAL_CALL_GetRotation_m2705874827
sDb:__ZN13MonoBehaviour17RemoveFromManagerEv
tjb:__ZN12ImageFilters14AddImageFilterERK11ImageFilter
z1c:__ZL23RegisterModuleICalls_UIv
Prb:__ZL11DecodeValuePPKcS0_
sgh:_ShimEnumerator_MoveNext_m2013866013_gshared
LU:__ZN13MemoryManagerC2Ev
xFa:__ZN12SkinMeshInfo10DeallocateEPS_
fAj:__ZNK6il2cpp5utils11StringUtils21CaseSensitiveComparerclEPKcS4_
ROi:_Transform_SetParent_m1963830867
aNa:__ZN20ArchiveStorageReader28AcquireAndPrefillUnusedBlockEjPNS_11CacheResultE
$_h:__Z78RuntimeInvoker_Il2CppObject_SByte_t454417549_SByte_t454417549_SByte_t454417549PK10MethodInfoPvPS2_
a2b:__Z12NHxRoughnessIA4_tEvP9Texture2DPT_iiii
YNi:_Touch_get_phase_m196706494_AdjustorThunk
r2i:__ZL25UnresolvedVirtualCall_105P12Il2CppObjecthPK10MethodInfo
ABi:_MethodDictionary_get_SyncRoot_m673971424
w8:__ZN18AsyncUploadManagerD2Ev
VXb:__ZN9Transform5ResetEv
tLb:__Z22TransferField_NonArrayI24GenerateTypeTreeTransfer16Converter_StringEvRK23StaticTransferFieldInfoR31RuntimeSerializationCommandInfoRT0_
MRc:_UNITY_FT_CMap_New
twb:__ZNK17InstancedPropInfo21RenderSpriteInstancesERK15RenderNodeQueuePK17BatchInstanceDataj17ShaderChannelMask
vCf:_HttpWebRequest_System_Runtime_Serialization_ISerializable_GetObjectData_m3671622902
Qaa:__Z17MainLoopKeepalivePv
Pri:_AnimatorControllerPlayable_INTERNAL_CALL_SetBoolString_m1232105510
XBi:_MatchCollection__ctor_m1944681790
Y9c:_HMACSHA512__ctor_m1667460019
M1a:__Z24ScheduleCullingAllGroupsR8JobFenceRK22SceneCullingParameters4PPtrI6CameraERK13CullingOutputRK13dynamic_arrayIP12CullingGroupLj4EERKS_
Ped:_ToBase64Transform_get_OutputBlockSize_m949275583
OMe:_Collection_1_set_Item_m3254085220_gshared
e1a:__Z14CalcHullBoundsPK8Vector3fPKhhRK5PlaneRK10Matrix4x4fR10MinMaxAABB
Fvg:_RealProxy__ctor_m2147093603
ych:_RaycastHit2D_get_point_m442317739_AdjustorThunk
HEb:__ZN11PreloadData39ShouldIgnoreInGarbageDependencyTrackingEv
sAe:_List_1__ctor_m3511181530_gshared
IVa:__Z19SetupLODFadeKeywordR17ShaderPassContexti
jQe:_ReadOnlyCollection_1_get_Count_m2180604490_gshared
XLb:__Z18Transfer_BlittableI19StreamedBinaryWriteILb0EELb0E5RectTIfEEvRK29SerializationCommandArgumentsR31RuntimeSerializationCommandInfo
ABj:__ZN6il2cpp2os10ThreadImpl22SetNativeThreadCleanupEPFvPvE
QEa:__ZL25CheckCopyTextureArgumentsRK7ApiGLESP11GLESTextureS3_
q8:__ZN13dynamic_arrayI26EnlightenSystemInformationLj8EE6insertEPS0_PKS0_S4_
qRc:_tt_name_entry_ascii_from_utf16
Naf:_MulticastNotSupportedException__ctor_m2164514827
WGd:_DateTime_System_IConvertible_ToChar_m2489529194_AdjustorThunk
_Kb:__Z29Transfer_Blittable_ArrayFieldI24GenerateTypeTreeTransferyEvRT_R9ArrayInfoRK23StaticTransferFieldInfo
EJ:__ZN4FMOD7SystemI9playSoundE17FMOD_CHANNELINDEXPNS_5SoundEbPPNS_7ChannelE
Dji:_AttributeHelperEngine_GetRequiredComponents_m120894667
z7f:__ZL77Input_t1785128008_CustomAttributesCacheGenerator_Input_GetAxisRaw_m4133353720P21CustomAttributesCache
SY:__GLOBAL__sub_I_runtime_graphics_mesh2_lump_cpp
ijg:__ZL68PreferBinarySerialization_t2472773525_CustomAttributesCacheGeneratorP21CustomAttributesCache
beg:__ZL127AnimationOffsetPlayable_t859920217_CustomAttributesCacheGenerator_AnimationOffsetPlayable_INTERNAL_CALL_SetRotation_m2224758383P21CustomAttributesCache
lgj:__ZN6il2cpp2os4File4ReadEPNS0_10FileHandleEPciPi
aI:__ZN12AudioManager23VirtualRedirectTransferER18StreamedBinaryReadILb0EE
Hre:_List_1_Remove_m2616693989_gshared
Stb:__ZN10VertexData13SwapEndianessEv
LQj:_realloc
Yjc:__Z57Register_UnityEngine_Transform_INTERNAL_get_localRotationv
mxh:_ScrollRect_SetLayoutVertical_m1225848090
Hpg:__ZL60Scrollbar_t3248359358_CustomAttributesCacheGenerator_m_ValueP21CustomAttributesCache
mWg:_Type_get_IsInterface_m3583817465
kAb:__ZN30RuntimeInitializeOnLoadManager23VirtualRedirectTransferER17RemapPPtrTransfer
JUj:dynCall_viif
vNg:_MonoField_get_DeclaringType_m1591666235
FCh:_InternalEnumerator_1__ctor_m2111763266_AdjustorThunk
eLf:_Enumerator_MoveNext_m4234629003
vS:__ZN11UnityEngine15CloudWebService13WWWRestClient21ParseHTTPHeaderStringEN4core12basic_stringIcNS2_20StringStorageDefaultIcEEEERNS0_16WWWRestHeaderMapERjPKc
bWc:_cf2_hint_lock
aJb:__ZL26Transfer_SimpleNativeClassI17RemapPPtrTransfer8GradientLb0EEvRK29SerializationCommandArgumentsR31RuntimeSerializationCommandInfo
R7i:__ZNK15dense_hashtableINSt3__24pairIK10KeyWrapperI13dynamic_arrayIPK10Il2CppTypeLj4EEEPFvvEEES8_N6il2cpp8metadata19Il2CppSignatureHashEN14dense_hash_mapIS8_SB_SF_NS8_14EqualsComparerINSE_22Il2CppSignatureCompareEEENS0_9allocatorISC_EEE9SelectKeyESJ_SL_E10test_emptyEj
chb:__ZNSt3__26vectorIN20ArchiveStorageHeader12StorageBlockE13stl_allocatorIS2_L18MemLabelIdentifier54ELi16EEE21__push_back_slow_pathIKS2_EEvRT_
jcj:__ZN6il2cpp6icalls8mscorlib6System8MonoType14get_attributesEP20Il2CppReflectionType
Beb:__Z43DestroyWithoutLoadingButDontDestroyFromFilei
K9e:_MonoType_GetDefaultConstructor_m925465120
bXg:_Type_IsArrayImpl_m3073208555
cTj:dynCall_viiiiiffi
jbg:__ZL95Physics2D_t2540166467_CustomAttributesCacheGenerator_Physics2D_Raycast_m2303387255____distance2P21CustomAttributesCache
Gc:_emscripten_glBlendFuncSeparate
XIg:_GenericTypeParameterBuilder_IsPrimitiveImpl_m1198748291
t_:__Z20scripting_string_newPKc
vic:__Z43Material_CUSTOM_Internal_CreateWithMaterialP12Il2CppObjectS0_
s2e:_Directory_GetCurrentDirectory_m44486537
vWh:__Z45RuntimeInvoker_RuntimeFieldHandle_t2331729674PK10MethodInfoPvPS2_
Ijg:__ZL56UnityEventBase_t828812576_CustomAttributesCacheGeneratorP21CustomAttributesCache
GDe:_Collection_1_System_Collections_ICollection_CopyTo_m1047946700_gshared
rNj:_BacteriaController__reset_m2062403076
Ffi:__Z36RuntimeInvoker_Enumerator_t975728254PK10MethodInfoPvPS2_
iFd:_Convert_ToInt64_m4057339019
HEf:_AsnEncodedData_Default_m4197142414
gF:__Z103Register_UnityEngine_Experimental_Director_AnimatorControllerPlayable_INTERNAL_CALL_ResolveHashInternalv
zpj:__ZNSt3__218uninitialized_copyIPNS_4pairIK10KeyWrapperIP11Il2CppClassES4_EES8_EET0_T_SA_S9_
bu:__ZNSt3__26__sortIRPFbPKN8Animator11AnimatorJobES4_EPS4_EEvT0_S9_T_
qH:__ZN17AudioCustomFilterD2Ev
Ymc:__ZN11IMGUIModule26SetDeveloperConsoleVisibleEb
aYb:__ZN9Transform16ResetReplacementEv
Fmc:__ZNK8GUIStyle13GetLineHeightEv
XDa:__ZN18GfxFramebufferGLES18ReleaseFramebufferEP17RenderSurfaceBaseP14GfxContextGLES
yyi:_Context_GetDynamicPropertyCollection_m1987747444
UFf:_X509Certificate2_get_Version_m1927399907
Y3b:__ZN13ProduceHelperI6CameraLb0EE7ProduceE18MemLabelIdentifier18ObjectCreationMode
_2d:_Image_RadialCut_m3229543088
MT:__ZN19CloudServiceHandler34HandleSaveFileWebRequestPlayerLoopEv
Vz:__ZN7mecanim21ValueArrayReverseCopyEPKNS_18ValueArrayConstantEPKNS_10ValueArrayES2_PS3_PKi
bH:__Z31GetParentSampleClipFromInstancePN11SoundHandle8InstanceE
M$b:__ZNK28RectTransformPropertyBinding13GetFloatValueERKN11UnityEngine9Animation10BoundCurveE
U3a:__ZN6Camera22StandaloneCustomRenderENS_10RenderFlagEP6ShaderRKN4core12basic_stringIcNS3_20StringStorageDefaultIcEEEEPNS_21PerformRenderFunctionE
CMj:__ZN6il2cpp2os16ThreadLocalValue8GetValueEPPv
h9i:__ZN6il2cpp2vm13MetadataCache14GetGenericInstEPKPK10Il2CppTypej
Qdd:_SHA384Managed_Initialize_m712692291
ADh:_InternalEnumerator_1__ctor_m2688327768_gshared
Pb:invoke_iiidii
aUf:__ZL60CallingConvention_t3354538265_CustomAttributesCacheGeneratorP21CustomAttributesCache
okc:__Z52Object_CUSTOM_GetOffsetOfInstanceIDInCPlusPlusObjectv
$cg:__ZL124AnimatorControllerPlayable_t4078305555_CustomAttributesCacheGenerator_AnimatorControllerPlayable_PlayInFixedTime_m2966168794P21CustomAttributesCache
dO:__ZN9AudioClip15InitializeClassEv
lp:setThrew
TSh:__Z36RuntimeInvoker_IntPtr_t_Il2CppObjectPK10MethodInfoPvPS2_
U1b:__ZL21BuildEmptyCubeTexturePKci11ColorRGBA3217TextureColorSpace
pSb:__ZN14SafeBinaryRead21TransferSTLStyleArrayINSt3__26vectorIN9ShaderLab20SerializedSubProgramENS1_9allocatorIS4_EEEEEEvRT_17TransferMetaFlags
bVd:_StandaloneInputModule_set_cancelButton_m2642677329
Gtc:__Z15Transfer_StringI8JSONReadLb1EEvRK29SerializationCommandArgumentsR31RuntimeSerializationCommandInfo
Eka:__ZN6prcoreL17RemapGenericFloatI17TexFormatRGBFloat15TexFormatRGHalfEEvPKNS_9InnerInfoE
lXa:__Z25DoForwardShaderRenderLoopR17RenderLoopContextR13dynamic_arrayI16RenderObjectDataLj4EERK11CullResultsbbbN6Camera10RenderFlagE
QQc:_sfnt_load_face
_jf:_PKCS12_GetSymmetricAlgorithm_m1812022677
eSg:_UTF8Encoding_GetByteCount_m2372933408
vyi:_Context_get_NeedsContextSink_m1907794755
HQc:_UNITY_ft_service_list_lookup
Wof:_ARC4Managed_GenerateKey_m716135508
VIb:__Z18Transfer_BlittableI17RemapPPtrTransferLb1E11ColorRGBA32EvRK29SerializationCommandArgumentsR31RuntimeSerializationCommandInfo
Z3h:__Z57RuntimeInvoker_Il2CppObject_PlayableHandleU26_t3483893774PK10MethodInfoPvPS2_
fmc:__ZN5IMGUI21SelectReceivingWindowER8GUIStateb
hD:__ZNK26AnimatorControllerPlayable17ValidateGoToStateERiS0_
gJh:_InternalEnumerator_1_get_Current_m3179981210_gshared
Lbb:__ZN13BaseAllocator13TryDeallocateEPv
aNb:__Z29Transfer_Blittable_ArrayFieldI19StreamedBinaryWriteILb0EEfEvRT_R9ArrayInfoRK23StaticTransferFieldInfo
$od:_Array_CreateInstance_m1054139389
r3g:_GUIStyleState_GetGUIStyleState_m2816150617
VDh:_InternalEnumerator_1__ctor_m967618647_AdjustorThunk
bab:__ZN16MemoryFileSystem5WriteER13FileEntryDatayPvPy
m2d:_LayoutGroup_GetAlignmentOnAxis_m1783063916
Ejb:__ZNSt3__26vectorIN12FlareManager10FlareEntryENS_9allocatorIS2_EEE21__push_back_slow_pathIKS2_EEvRT_
XEg:_Default_check_arguments_with_score_m1714931543
hdd:_SHA1_Create_m4086509717
PTh:__Z57RuntimeInvoker_Il2CppObject_RuntimeTypeHandle_t2330101084PK10MethodInfoPvPS2_
VVi:_UnityEvent_1_GetDelegate_m3098147632_gshared
eOg:_MonoMethodInfo_GetMethodInfo_m3298558752
NH:__ZN13AudioListener17RemoveFromManagerEv
Bd:_glAttachShader
b$d:_Dropdown_SetAlpha_m2769981009
NOa:__ZNK6Camera19GetProjectionMatrixEv
RSi:_Predicate_1_BeginInvoke_m1856151290_gshared
ZR:__ZN11UnityEngine15CloudWebService10RestClientINS0_16WWWRestHeaderMapEE6SetUrlERKN4core12basic_stringIcNS4_20StringStorageDefaultIcEEEE
m2h:__Z139RuntimeInvoker_Il2CppObject_Il2CppObject_Int32_t2071877448_SByte_t454417549_SByte_t454417549_SByte_t454417549_SByte_t454417549_Il2CppObjectPK10MethodInfoPvPS2_
HLd:_StackTrace__ctor_m2404985356
S2:__Z38PreallocateObjectFromPersistentManagerib
iHd:_DateTime_System_IConvertible_ToSingle_m3927769066
$Kf:_CostDelegate__ctor_m80452417
UY:__GLOBAL__sub_I_runtime_interfaces_lump_cpp
Ynb:__ZNK9Texture2D20GetUnscaledTextureIDEv
tFd:_Convert_ToSByte_m883113940
x_j:_glFenceSync__wrapper
jOd:_Exception_get_Message_m173095527
Dog:__ZL53InputField_t1631627530_CustomAttributesCacheGeneratorP21CustomAttributesCache
GWd:_ButtonClickedEvent__ctor_m938038541
cRb:__ZN18StreamedBinaryReadILb0EE21TransferSTLStyleArrayI13dynamic_arrayI4AABBLj4EEEEvRT_17TransferMetaFlags
RXg:_UInt16_System_IConvertible_ToDouble_m4100549304_AdjustorThunk
cWh:__Z116RuntimeInvoker_Il2CppObject_Il2CppObject_Il2CppObject_Int32_t2071877448_Int32_t2071877448_MonoIOErrorU26_t1029615899PK10MethodInfoPvPS2_
Nna:__Z29ClearRepeatingLogMessageStatev
plc:__ZN13TextRendering17TextMeshGenerator13GetTextOffsetERK5RectTIfE
c_i:_HashSet_1_OnDeserialization_m1222146673_gshared
uid:_Single_System_IConvertible_ToInt16_m962677079
K7:__ZN21EnlightenSceneMappingaSERKS_
rLe:_Collection_1_SetItem_m546457615_gshared
WMj:__ZNK6il2cpp8metadata21Il2CppGenericInstHashclEPK17Il2CppGenericInst
Iid:_Single_System_IConvertible_ToUInt32_m2447833283
CRe:_ReadOnlyCollection_1_System_Collections_IList_Add_m3806843030_gshared
QIa:__ZN7ApiGLESD2Ev
K5a:__ZN9Transform47ClearTransformHierarchyAndApplyToSerializedDataEv
DHh:_InternalEnumerator_1_get_Current_m4083613828_AdjustorThunk
pbd:_RijndaelManaged_GenerateKey_m3366247933
_1e:_BinaryReader_ReadUInt64_m1893783375
Aki:_Bounds_op_Equality_m2161830280
_7a:__ZN17PersistentManager9AddStreamEv
$Uj:dynCall_fidi
xij:__ZN15dense_hashtableINSt3__24pairIK10KeyWrapperINS1_IPK9FieldInfoP11Il2CppClassEEEjEES9_17ReflectionMapHashIS8_EN14dense_hash_mapIS9_jSD_NS9_14EqualsComparerINS0_8equal_toIS8_EEEENS0_9allocatorISB_EEE9SelectKeyESI_SK_E12resize_deltaEjj
$oc:__Z47Register_UnityEngine_GUIStyle_set_imagePositionv
Coc:__Z49GUIStyle_CUSTOM_INTERNAL_CALL_Internal_DrawCursor13Il2Cpp_IntPtrRK5RectTIfEP12Il2CppObjectiRK10ColorRGBAf
Ovh:_ScrollRect_set_movementType_m3292965850
K_f:__ZL59AttributeTargets_t1984597432_CustomAttributesCacheGeneratorP21CustomAttributesCache
Gdh:_RectTransform_set_anchorMin_m4247668187
OS:__ZN11UnityEngine15CloudWebService14RestDownloaderD2Ev
N8a:__Z29StdTemplateConversionFunctionIjhEbPvR14SafeBinaryRead
ukb:__ZN22RenderingCommandBufferC2ERKS_
h3i:__ZL25UnresolvedVirtualCall_149P12Il2CppObject23SpriteState_t1353336012S1_PK10MethodInfo
pre:_List_1_GrowIfNeeded_m2986672263_gshared
bCh:_ArrayReadOnlyList_1_Remove_m2325516426_gshared
bzd:_Hashtable_get_Count_m830088216
gbc:__ZNK13MonoBehaviour13GetScriptTypeEv
Oca:__ZN13RenderTexture12SetDimensionE16TextureDimension
oLi:_ScriptableObject_CreateInstance_m3921674852
qe:_SDL_FreeRW
pif:_PKCS1_OS2IP_m1273945439
qdd:_SHA1Internal_FillBuff_m891541953
$1f:__ZL62ResolveEventHandler_t3842432458_CustomAttributesCacheGeneratorP21CustomAttributesCache
b2c:__Z34CanvasRenderer_Get_Custom_PropCullP12Il2CppObject
FBh:_ArrayReadOnlyList_1_get_IsReadOnly_m2717922212_gshared
rN:__ZN20SoundChannelInstance8getDelayE14FMOD_DELAYTYPEPjS1_
Afb:__ZN21AssetBundleFileSystemC2EPKc
H3h:__Z113RuntimeInvoker_Int32_t2071877448_Vector2_t2243707579_Vector2_t2243707579_ContactFilter2D_t1672660996_Il2CppObjectPK10MethodInfoPvPS2_
rTh:__Z61RuntimeInvoker_Void_t1841601450_Il2CppObject_Int64_t909078037PK10MethodInfoPvPS2_
d4d:_InputField_set_customCaretColor_m3534590098
Yvh:_ScrollRect_set_viewport_m323693490
C1:__ZN10UnitySceneD0Ev
MWe:_NumberFormatter_FormatExponential_m3975285307
zLc:__ZNSt3__26vectorIN20TextRenderingPrivate8FontImpl13CharacterInfoE13stl_allocatorIS3_L18MemLabelIdentifier1ELi16EEE8__appendEj
v:tempBigInt
ye:_emscripten_glVertexAttrib1fv
QSb:__ZNSt3__26vectorIN9ShaderLab20SerializedSubProgram12UAVParameterENS_9allocatorIS3_EEE7reserveEj
Fhi:_AnimationCurve_Init_m1486386337
wni:_Component_GetComponents_m3712441745
pog:__ZL79GraphicRaycaster_t410733016_CustomAttributesCacheGenerator_U3CU3Ef__amU24cache0P21CustomAttributesCache
P4d:_InputField_get_selectionAnchorPosition_m466595604
h_f:__ZL99Thread_t241561612_CustomAttributesCacheGenerator_Thread_t241561612____ExecutionContext_PropertyInfoP21CustomAttributesCache
Gmd:_DecoderReplacementFallback_get_DefaultString_m3399348550
zVi:_UnityAction_4_Invoke_m3312096275_gshared
psg:__ZL111LayoutUtility_t4076838048_CustomAttributesCacheGenerator_LayoutUtility_U3CGetPreferredHeightU3Em__5_m1524880643P21CustomAttributesCache
Zdi:__Z57RuntimeInvoker_ResourceInfo_t3933049236_Int32_t2071877448PK10MethodInfoPvPS2_
dkj:__ZN24dense_hashtable_iteratorINSt3__24pairIK10KeyWrapperINS1_IPK10MethodInfoP11Il2CppClassEEEjEES9_17ReflectionMapHashIS8_EN14dense_hash_mapIS9_jSD_NS9_14EqualsComparerINS0_8equal_toIS8_EEEENS0_9allocatorISB_EEE9SelectKeyESI_SK_E30advance_past_empty_and_deletedEv
leh:_RectTransformUtility_ScreenPointToRay_m1842507230
f3a:__ZN16ReflectionProbes16UpdateSampleDataEv
wTh:__Z71RuntimeInvoker_Int32_t2071877448_Il2CppObject_Il2CppObject_Il2CppObjectPK10MethodInfoPvPS2_
ZEb:__ZN14SafeBinaryRead21TransferSTLStyleArrayI10vector_setI4PPtrI10MonoScriptENSt3__24lessIS4_EE13stl_allocatorIS4_L18MemLabelIdentifier76ELi16EEEEEvRT_17TransferMetaFlags
uXh:__Z103RuntimeInvoker_Il2CppObject_Il2CppObject_StreamingContext_t1417235061_ISurrogateSelectorU26_t2635255864PK10MethodInfoPvPS2_
swi:_SafeHandle_Finalize_m1839546519
Ssb:__ZN14Texture2DArray5ResetEv
evc:__ZN8JSONRead21TransferSTLStyleArrayINSt3__26vectorI10RectOffset13stl_allocatorIS3_L18MemLabelIdentifier1ELi16EEEEEEvRT_S5_17TransferMetaFlags
wLh:_InternalEnumerator_1_MoveNext_m252820768_AdjustorThunk
ezi:_Context_AllocateNamedDataSlot_m3200404053
Aqa:__ZN14BatchAllocator6CommitE18MemLabelIdentifier
SEf:_X509EnhancedKeyUsageExtension_Decode_m3866320499
IWe:_NumberFormatter_AppendIntegerStringWithGroupSeparator_m1401773574
cBe:_List_1_Remove_m1237648310_gshared
wrf:_CipherSuite_get_ServerHMAC_m3566778727
LQf:__ZL64DebuggerBrowsableState_t944457511_CustomAttributesCacheGeneratorP21CustomAttributesCache
Ve:_JS_Sound_Play
n3d:_Image_IsRaycastLocationValid_m864962354
SRb:__ZN9ShaderLab16SerializedShader8TransferI14SafeBinaryReadEEvRT_
_qa:__ZN5Mutex7TryLockEv
DSh:__Z51RuntimeInvoker_Int16_t4041245914_Decimal_t724701077PK10MethodInfoPvPS2_
zt:__ZN7mecanim8skeleton13SkeletonAlignEPKNS0_8SkeletonERKN4math7_float4ES7_i
L2b:__ZN19ShaderPropertySheet16SetVectorIndexedEN9ShaderLab16FastPropertyNameEifRK8Vector4fNS_8SetFlagsE
zq:__ZN14SafeBinaryRead21TransferSTLStyleArrayIN4core12basic_stringIcNS1_20StringStorageDefaultIcEEEEEEvRT_17TransferMetaFlags
$vg:_RemotingConfiguration_RegisterWellKnownServiceType_m2491506630
a7f:__ZL89Screen_t786852042_CustomAttributesCacheGenerator_Screen_t786852042____height_PropertyInfoP21CustomAttributesCache
WUf:__ZL55_TypeBuilder_t2783404358_CustomAttributesCacheGeneratorP21CustomAttributesCache
i4i:__ZL25UnresolvedVirtualCall_204P12Il2CppObjectPK10MethodInfo
p9a:__Z29StdTemplateConversionFunctionIayEbPvR14SafeBinaryRead
Pue:_List_1_System_Collections_IEnumerable_GetEnumerator_m2923618987_gshared
Mwe:_List_1_System_Collections_IList_IndexOf_m4061554721_gshared
sT:__ZN11UnityEngine15CloudWebService14DataDispatcher4StopEv
SSb:__ZNSt3__26vectorIN9ShaderLab20SerializedSubProgram12UAVParameterENS_9allocatorIS3_EEE8__appendEj
fGe:_Collection_1_GetEnumerator_m434271983_gshared
Ylj:__ZNK15dense_hashtableINSt3__24pairIK10KeyWrapperINS1_IPK9EventInfoP11Il2CppClassEEEjEES9_17ReflectionMapHashIS8_EN14dense_hash_mapIS9_jSD_NS9_14EqualsComparerINS0_8equal_toIS8_EEEENS0_9allocatorISB_EEE9SelectKeyESI_SK_E12test_deletedERK24dense_hashtable_iteratorISB_S9_SD_SM_SI_SK_E
yfd:_X509Certificate_ToString_m1582581274
Ohh:_Enumerator_get_Current_m2986380627_gshared
nfa:__ZN17ScriptingGCHandle7AcquireE18ScriptingObjectPtr25ScriptingGCHandleWeakness
fyi:_LifetimeServices_set_LeaseTime_m1487876644
hGg:_ConstructorBuilder_not_supported_m3687319507
KOf:__ZL48IList_t3321498491_CustomAttributesCacheGeneratorP21CustomAttributesCache
zid:_Single_System_IConvertible_ToInt64_m3555853323_AdjustorThunk
vMh:_InternalEnumerator_1__ctor_m3901400705_AdjustorThunk
STj:dynCall_iifiii
K6h:__Z48RuntimeInvoker_PersistentListenerMode_t857969000PK10MethodInfoPvPS2_
nXh:__Z87RuntimeInvoker_Il2CppObject_Il2CppObject_Il2CppObject_Il2CppObject_StringU26_t638738783PK10MethodInfoPvPS2_
mpa:__Z21HasAlphaTextureFormat13TextureFormat
IO:__ZN12AudioManager6UpdateEv
kpa:__ZN14ImageReference9BlitImageERKS_NS_8BlitModeE
VNg:_MonoMethod_get_MethodHandle_m1882915015
Xr:__ZN8Animator12AddToManagerEv
ZSf:__ZL93ConstructorInfo_t2851816542_CustomAttributesCacheGenerator_ConstructorInfo_Invoke_m2144827141P21CustomAttributesCache
qEb:__ZN23CachedSerializationDataD2Ev
G2a:__ZNK25CameraStackRenderingState31CalculateStereoCameraTargetTypeEv
Wlb:__ZN14RenderSettings23VirtualRedirectTransferER14SafeBinaryRead
Vxc:__ZNK13b2CircleShape5CloneEP16b2BlockAllocator
xBj:__ZN6il2cpp2os10ThreadImpl15CurrentThreadIdEv
ZKe:_Collection_1_System_Collections_IList_get_IsReadOnly_m4005091053_gshared
Iw:__ZN30dense_hashtable_const_iteratorINSt3__24pairIKN11UnityEngine9Animation14GenericBindingENS3_10BoundIndexEEES4_NS3_25GenericBindingHashFunctorEN14dense_hash_mapIS4_S6_S8_NS3_30GenericBindingValueArrayUniqueE13stl_allocatorIS7_L18MemLabelIdentifier1ELi16EEE9SelectKeyESA_SD_E30advance_past_empty_and_deletedEv
Q8d:_Array_InternalArray__ICollection_Contains_TisColor32_t874517518_m2818328910_gshared
Rkb:__ZN17GlobalGameManager8TransferI17RemapPPtrTransferEEvRT_
pmf:_AppDomainInitializer_EndInvoke_m4003801172
q4i:__ZL25UnresolvedVirtualCall_212P12Il2CppObjecti38CustomAttributeNamedArgument_t94157543PK10MethodInfo
xch:_RaycastHit2D_get_point_m442317739
q$h:__Z72RuntimeInvoker_Il2CppObject_Il2CppObject_Decimal_t724701077_Il2CppObjectPK10MethodInfoPvPS2_
Ilb:__ZN16LevelGameManager8TransferI18StreamedBinaryReadILb0EEEEvRT_
VYc:_UNITY_tt_face_load_fpgm
lxb:__ZN12InputManagerD0Ev
WKj:__ZN6il2cpp6icalls8mscorlib6System11Diagnostics10StackTrace9get_traceEP15Il2CppExceptionib
XXe:_NumberFormatInfo_set_NumberNegativePattern_m1050626150
T7i:__ZN15dense_hashtableINSt3__24pairIK10KeyWrapperI13dynamic_arrayIPK10Il2CppTypeLj4EEEPFvvEEES8_N6il2cpp8metadata19Il2CppSignatureHashEN14dense_hash_mapIS8_SB_SF_NS8_14EqualsComparerINSE_22Il2CppSignatureCompareEEENS0_9allocatorISC_EEE9SelectKeyESJ_SL_E8min_sizeEjj
F7h:__Z37RuntimeInvoker_FillMethod_t1640962579PK10MethodInfoPvPS2_
c5g:_GUIStyle_get_overflow_m1125058093
cui:_AnimatorControllerPlayable_Play_m4092315465
Joa:__ZNK16LightmapSettings14GetLightProbesEv
Vvh:_ScrollRect_get_scrollSensitivity_m1160815603
VQg:_UnicodeEncoding_GetBytes_m1337660232
PPb:__Z18Transfer_BlittableI18StreamedBinaryReadILb0EELb1EtEvRK29SerializationCommandArgumentsR31RuntimeSerializationCommandInfo
QQj:_posix_memalign
$2b:__ZN13ProduceHelperI12MeshRendererLb0EE7ProduceE18MemLabelIdentifier18ObjectCreationMode
gDe:_List_1_get_Count_m1249351212_gshared
tMh:_InternalEnumerator_1_get_Current_m747506907_AdjustorThunk
Mki:_Camera_get_eventMask_m4241372419
V2g:_GUILayoutUtility_LayoutFromEditorWindow_m1847418289
hyf:_SslClientStream_get_ClientCertSelectionDelegate_m2316959461
Mwd:_SynchronizedArrayListWrapper_get_SyncRoot_m1466044127
V2:__ZNK15MonoScriptCache7ReleaseEv
n$i:__ZN6il2cpp2vm5Class13HasReferencesEP11Il2CppClass
ig:_glBindTexture
cGe:_Collection_1_ClearItems_m3585785594_gshared
dPj:_snprintf
vrg:__ZL84HorizontalOrVerticalLayoutGroup_t1968298610_CustomAttributesCacheGenerator_m_SpacingP21CustomAttributesCache
DEg:_Binder__ctor_m1361613966
M4d:_InputField_set_caretPosition_m888572237
yJg:_ILGenerator__cctor_m3943061018
bwd:_ArrayListWrapper_Clone_m1506311066
ypi:_Event_get_character_m3740896233
Bma:__Z36scripting_liveness_calculation_begin17ScriptingClassPtriPFvPP12Il2CppObjectiPvES3_PFvvES7_
Lrf:_CipherSuite_set_Context_m4127897124
LGa:__ZN16UniformCacheGLES6CreateERK20GpuProgramParameters
nSg:_UTF8Encoding_Fallback_m811555654
ZZg:_UInt64_CompareTo_m3513742483
lLi:_ScriptableObject_t1975622470_marshal_pinvoke_cleanup
Gnd:_Encoding_GetString_m1894033578
xQe:_ReadOnlyCollection_1_System_Collections_IList_Clear_m1918003010_gshared
uSi:_Nullable_1_Equals_m3860982732_gshared
PXj:_emscripten_glGetProgramInfoLog__wrapper
reg:__ZL94Font_t4239498691_CustomAttributesCacheGenerator_Font_InvokeTextureRebuilt_Internal_m2007522718P21CustomAttributesCache
rSg:_UTF8Encoding_InternalGetChars_m373801468
F5:__ZN17PersistentManager23DestroyFromFileInternalEi
_9f:__ZL98Object_t1021602117_CustomAttributesCacheGenerator_Object_DoesObjectWithInstanceIDExist_m2570795274P21CustomAttributesCache
uLi:_ScrollViewState__ctor_m535685782
HNd:_Enum_ToString_m2112979707
eNi:_TextGenerator_ValidatedSettings_m1640214759
uWf:__ZL55SoapServices_t3397513225_CustomAttributesCacheGeneratorP21CustomAttributesCache
vtg:_MonoMethodMessage_get_MethodName_m3580519713
tv:__ZN26AnimatorControllerPlayable18PrepareForPlaybackERN7mecanim6memory9AllocatorE
QMd:_Enum_t2459695545_marshal_pinvoke_cleanup
iSg:_UTF8Encoding_GetBytes_m4170182058
one:_Mesh_GetAllocArrayFromChannel_TisColor32_t874517518_m2030100417_gshared
fga:__ZN22CreateGpuProgramOutputC2Ev
CHf:_X509Chain__ctor_m2242540866
j0g:_Object__ctor_m197157284
_8f:__ZL99SortingLayer_t221838959_CustomAttributesCacheGenerator_SortingLayer_GetLayerValueFromID_m4029056996P21CustomAttributesCache
K4e:_MemoryStream_InternalConstructor_m2423667240
uFi:_CapturingGroup_set_Index_m2175936006
OPh:__Z70RuntimeInvoker_Il2CppObject_Il2CppObject_Il2CppObject_SByte_t454417549PK10MethodInfoPvPS2_
tug:_SoapMethodAttribute_SetReflectionObject_m3431595769
yyh:_Slider_set_maxValue_m2951480075
E3b:__ZN8GUILayer12CleanupClassEv
_5d:_InputField_OnSubmit_m2856515494
m$i:__ZN6il2cpp2vm5Class4InitEP11Il2CppClass
ha:invoke_vidi
EPi:_Vector2_op_Subtraction_m1984215297
ekf:_DeriveBytes_Adjust_m105515328
i0c:__ZN2UI14CanvasRenderer17SyncDirtyElementsER8JobFence
MPb:__Z18Transfer_BlittableI18StreamedBinaryReadILb0EELb0ExEvRK29SerializationCommandArgumentsR31RuntimeSerializationCommandInfo
qYd:_ColorBlock_op_Inequality_m1517672458
cAj:__ZN6il2cpp5utils11StringUtils15StringDuplicateEPKc
R4a:__Z15CanAddComponentR10GameObjectPKN5Unity4TypeE
Afa:__ZNK9ShaderLab21ShaderRasterStateDesc16ToGfxRasterStateEPK19ShaderPropertySheetS3_R14GfxRasterState
yV:_tlsf_memalign
JBg:_CspParameters__ctor_m2480441577
LMj:__ZN6il2cpp2os9EventImplC2Ebb
Hyi:_DynamicPropertyCollection_NotifyMessage_m840388347
EGi:_Uri_ParseUri_m5711497
tB:__ZN4PPtrI13MonoBehaviourE8TransferI19StreamedBinaryWriteILb0EEEEvRT_
Rcb:__ZNK5Unity9Component26GetTypeInfoVirtualInternalEv
L$:__Z20IsMatrixBuiltinParamPKcPi
eHe:_Collection_1_CheckWritable_m2467777750_gshared
tpg:__ZL108MaskableGraphic_t540192618_CustomAttributesCacheGenerator_MaskableGraphic_ParentMaskStateChanged_m3643747340P21CustomAttributesCache
Ujj:__ZN15dense_hashtableINSt3__24pairIK10KeyWrapperINS1_IPK10MethodInfoP11Il2CppClassEEEjEES9_17ReflectionMapHashIS8_EN14dense_hash_mapIS9_jSD_NS9_14EqualsComparerINS0_8equal_toIS8_EEEENS0_9allocatorISB_EEE9SelectKeyESI_SK_E16reset_thresholdsEv
t2b:__ZN8Renderer19PostInitializeClassEv
nOc:__ZN20TextRenderingPrivate15DynamicFontDataD2Ev
XCh:_InternalEnumerator_1_get_Current_m1943362081_AdjustorThunk
iQi:_Vector3_get_sqrMagnitude_m1814096310_AdjustorThunk
lJj:__ZN6il2cpp6icalls8mscorlib6System8Delegate23CreateDelegate_internalEP20Il2CppReflectionTypeP12Il2CppObjectP22Il2CppReflectionMethodb
REg:_Default_check_type_m2363631305
DDb:__ZN18DelayedCallManager18CancelCallDelayed2E4PPtrI6ObjectEPF15CallObjectStatePS1_PvES7_
Gwe:_List_1__cctor_m911493842_gshared
Dsi:_AnimatorControllerPlayable_INTERNAL_CALL_GetLayerIndexInternal_m1847150746
Qbb:__ZN25ThreadsafeLinearAllocator10ReallocateEPvji
BFb:__Z18Transfer_BlittableI14SafeBinaryReadLb1E11QuaternionfEvRK29SerializationCommandArgumentsR31RuntimeSerializationCommandInfo
Kde:_Array_InternalArray__IndexOf_TisRaycastHit2D_t4063908774_m3739817942_gshared
EOg:_MonoProperty_GetAccessors_m3704698731
GWh:__Z146RuntimeInvoker_Il2CppObject_Int32_t2071877448_Il2CppObject_ObjectU5BU5DU26_t3223402458_Il2CppObject_Il2CppObject_Il2CppObject_ObjectU26_t597476745PK10MethodInfoPvPS2_
AIj:_GC_disable
dub:__ZN10Matrix4x4f8TransferI14SafeBinaryReadEEvRT_
_7e:_UnmanagedMemoryStream_ReadByte_m2501145010
Uxg:_ObjectRecord_UnchainFixup_m3025030310
qv:__ZN14AvatarPlayback8StopTimeEv
_5:__Z6AppendRKN4core12basic_stringIcNS_20StringStorageDefaultIcEEEEPKc
_Mf:__ZL60MulticastDelegate_t3201952435_CustomAttributesCacheGeneratorP21CustomAttributesCache
Ama:__ZL14OnWorldStoppedv
lNb:__Z18Transfer_BlittableI18StreamedBinaryReadILb1EELb0E8Vector3fEvRK29SerializationCommandArgumentsR31RuntimeSerializationCommandInfo
Reb:__ZN14CachingManager15ClearTempFolderEv
wog:__ZL61Image_t2042527209_CustomAttributesCacheGenerator_m_FillCenterP21CustomAttributesCache
Mza:__ZN7ApiGLES18ClearBufferSubDataEjN2gl12BufferTargetEll
_Ni:_Touch_get_type_m3264731406_AdjustorThunk
vdc:__Z37Camera_Get_Custom_PropAllCamerasCountv
ltb:__ZN14Texture2DArray8TransferI18StreamedBinaryReadILb0EEEEvRT_
Yqj:__ZN6il2cpp6icalls8mscorlib6System5Array9GetLengthEP11Il2CppArrayi
N$a:__Z18ApplyOcclusionMaskR19ProbeOcclusionCacheRK17LightProbeContextRK10RenderNodeb
zwa:__ZN13GfxDeviceGLES13AfterDrawCallEv
c4e:_FileStreamAsyncResult__ctor_m1096228032
wTc:_Split_Cubic
eb:invoke_fiiii
w9f:__ZL78Time_t31991979_CustomAttributesCacheGenerator_Time_get_unscaledTime_m862335845P21CustomAttributesCache
eJd:_DBNull_System_IConvertible_ToSByte_m1228193074
LFe:_Collection_1__ctor_m2818834331_gshared
Dme:_Array_InternalArray__get_Item_TisUICharInfo_t3056636800_m3872982785_gshared
wze:_List_1__ctor_m2168280176_gshared
zBj:__ZN6il2cpp2os10ThreadImpl22CreateForCurrentThreadEv
aJe:_Collection_1_Insert_m3041550124_gshared
E3e:_FileStream_FlushBuffer_m2594140542
upc:__Z64Register_UnityEngine_GUIStyle_GetFontInternalDuringLoadingThreadv
wMe:_Collection_1_System_Collections_IList_get_Item_m1995028750_gshared
MEj:__ZN6il2cpp2vm8Profiler12GCHeapResizeEx
hVj:dynCall_viiifi
CDa:__ZN18GfxFramebufferGLES20ActiveContextChangedEPP17RenderSurfaceBaseS2_
fZa:__ZN19ShaderPropertySheet17UpdateTextureInfoEiN9ShaderLab16FastPropertyNameEPK10TextureRef
yDa:__Z19PluginsRenderMarkeri
cag:__ZL80Object_t1021602117_CustomAttributesCacheGenerator_Object_Instantiate_m2439155489P21CustomAttributesCache
kC:__ZN10HumanTrait18InitializeBoneNameEv
oGi:__ZN23InterfaceActionInvoker1ItE6InvokeEjP11Il2CppClassP12Il2CppObjectt
Rsb:__ZN14Texture2DArray21AwakeFromLoadThreadedEv
FQb:__Z29Transfer_Blittable_ArrayFieldI18StreamedBinaryReadILb0EEyEvRT_R9ArrayInfoRK23StaticTransferFieldInfo
SIi:_X509CertificateEnumerator_get_Current_m3129374511
Toh:_EqualityComparer_1_get_Default_m875724809_gshared
Pyj:__ZNSt3__214__split_bufferIN6il2cpp2vm5Image20EmbeddedResourceDataERNS_9allocatorIS4_EEEC2EjjS7_
QQa:__ZN5Image13ReformatImageERK14ImageReferenceii13TextureFormatNS0_8BlitModeE
gUf:__ZL57DispIdAttribute_t607560947_CustomAttributesCacheGeneratorP21CustomAttributesCache
zH:__ZN12AudioManager17RemoveAudioSourceEP11AudioSource
eoi:_CullingGroup_Finalize_m3172731580
ZRi:_AesManaged_get_KeySize_m2773901127
sme:_Array_InternalArray__get_Item_TisUInt64_t2909196914_m2580870875_gshared
Noj:__ZN15dense_hashtableINSt3__24pairIK10KeyWrapperINS1_IP11Il2CppClassjEEES4_EES6_N6il2cpp8metadata14ArrayClassHashEN14dense_hash_mapIS6_S4_SB_NS6_14EqualsComparerINSA_17ArrayClassCompareEEENS0_9allocatorIS8_EEE9SelectKeyESF_SH_E4swapERSK_
I0b:__ZN13ProduceHelperI14SpriteRendererLb0EE7ProduceE18MemLabelIdentifier18ObjectCreationMode
KP:__ZN5physx14PxLightCpuTask12addReferenceEv
FFc:__Z10b2DistanceP16b2DistanceOutputP14b2SimplexCachePK15b2DistanceInput
Zpb:__ZN21EnlightenSceneMapping8TransferI19StreamedBinaryWriteILb0EEEEvRT_
Mwj:__ZN6il2cpp2gc16GarbageCollector19InitializeFinalizerEv
Klc:__ZN10GUIManager10DoGUIEventER10InputEventb
bsf:_Context_get_ClientWriteKey_m2235605337
afh:_Enumerator__ctor_m3597047336_AdjustorThunk
CFj:_GC_bl_init_no_interiors
y0:__Z20CalculateSqrDistanceRK8Vector3fRK4AABB
jZh:__Z48RuntimeInvoker_Byte_t3683104436_Int64_t909078037PK10MethodInfoPvPS2_
mzj:__ZN6il2cpp2vm12GenericClass8GetClassEP18Il2CppGenericClass
vL:__Z32AudioMixerDuckingProcessCallbackP21UnityAudioEffectStatePfS1_jii
EFg:_CustomAttributeTypedArgument_GetHashCode_m999147081_AdjustorThunk
z1b:__ZN26CustomRenderTextureManagerD2Ev
N3e:_FileStream_Read_m3880951166
fI:__ZN12AudioManager8TransferI24GenerateTypeTreeTransferEEvRT_
hja:__Z25GetBytesFromTextureFormat13TextureFormat
o4h:__Z105RuntimeInvoker_Void_t1841601450_Int32_t2071877448_Single_t2076509932_Int32_t2071877448_Single_t2076509932PK10MethodInfoPvPS2_
hpa:__ZN9Texture3D19UnloadFromGfxDeviceEb
eTj:dynCall_iiffi
Zle:_Array_InternalArray__get_Item_TisInt16_t4041245914_m2533263979_gshared
Ri:_emscripten_webgl_init_context_attributes
d1f:__ZL67Math_t2022911894_CustomAttributesCacheGenerator_Math_Min_m105057611P21CustomAttributesCache
JB:__ZN16MecanimAnimation25RegisterIAnimationBindingEPKN5Unity4TypeEiP17IAnimationBinding
R3:__Z32scripting_class_get_assemblyname17ScriptingClassPtr
KFc:__ZN9b2Simplex9ReadCacheEPK14b2SimplexCachePK15b2DistanceProxyRK11b2TransformS5_S8_
Pjh:_Dictionary_2_Resize_m2532139610_gshared
uMi:_StackTraceUtility__cctor_m1132099289
ZAe:_List_1_IndexOf_m2019441835_gshared
sVg:_TimeSpan_Equals_m2029123271_AdjustorThunk
N9i:__ZN6il2cpp2vm13MetadataCache23GetInvokerMethodPointerEPK10MethodInfoPK20Il2CppGenericContext
SHa:__ZN9GfxDevice21RegisterNativeTextureE9TextureIDi16TextureDimension
APd:_CultureInfo__ctor_m456863818
mKj:__ZN6il2cpp6icalls8mscorlib6System10Reflection4Emit11TypeBuilder20create_generic_classEP27Il2CppReflectionTypeBuilder
adj:__ZNSt3__26vectorIPK10MethodInfoNS_9allocatorIS3_EEE26__swap_out_circular_bufferERNS_14__split_bufferIS3_RS5_EE
dqe:_Enumerator_MoveNext_m2504790928_gshared
Bqg:__ZL61Slider_t297367283_CustomAttributesCacheGenerator_m_HandleRectP21CustomAttributesCache
VV:__ZN3WWW20GetCachedErrorStringEv
ULi:_SliderState__ctor_m1096533539
HWb:__ZN12ScriptMapperD2Ev
nlg:__ZL85AxisEventData_t1524870173_CustomAttributesCacheGenerator_U3CmoveDirU3Ek__BackingFieldP21CustomAttributesCache
iad:_KeyedHashAlgorithm_Dispose_m1864300576
LIi:_X509Certificate_PEM_m49854707
Fkf:_PKCS12_get_RNG_m3620550062
VEf:_X509BasicConstraintsExtension__ctor_m3320418592
VHi:_ExtendedKeyUsageExtension_Decode_m901297139
OTb:__Z32TransferEnumWithNameForceIntSizeI14SafeBinaryRead7FogModeEvRT_RT0_PKc17TransferMetaFlags
qjc:__Z52Register_UnityEngine_RenderTexture_Internal_GetWidthv
FPf:__ZL89SafeWaitHandle_t481461830_CustomAttributesCacheGenerator_SafeWaitHandle__ctor_m1710231470P21CustomAttributesCache
kHj:_GC_check_leaked
pVb:__ZN9ShaderLab20SerializedSubProgram16TextureParameter8TransferI19StreamedBinaryWriteILb0EEEEvRT_
fhe:_Array_InternalArray__Insert_TisVector4_t2243707581_m1643342708_gshared
gsh:_Mask_OnSiblingGraphicEnabledDisabled_m865494155
yBf:_KeysCollection_System_Collections_ICollection_get_SyncRoot_m2289369147
AT:__ZN11UnityEngine15CloudWebService16SessionContainer8AddEventEPNS0_14CloudEventInfoE
NGa:__Z4TrimRKN4core12basic_stringIcNS_20StringStorageDefaultIcEEEES5_
Gzh:_Text_set_resizeTextMaxSize_m4034967714
lPf:__ZL55GuidAttribute_t222072359_CustomAttributesCacheGeneratorP21CustomAttributesCache
S0g:_GUIStyle_SetDefaultFont_m2095841351
pFg:_CustomAttributeNamedArgument_Equals_m2691468532
iMf:__ZL74String_t_CustomAttributesCacheGenerator_String_Concat_m3881798623____args0P21CustomAttributesCache
mXf:__ZL103CryptoConfig_t896479599_CustomAttributesCacheGenerator_CryptoConfig_CreateFromName_m2169102076____args1P21CustomAttributesCache
gsb:__ZN10VertexData8TransferI14SafeBinaryReadEEvRT_
yJ:__ZN4FMOD8ChannelI8setDelayE14FMOD_DELAYTYPEjj
fBd:_Stack__ctor_m2410583781
eIj:_GC_malloc_atomic
PEg:_Default_GetBetterMethod_m4255740863
OD:__Z93Register_UnityEngine_Experimental_Director_AnimationClipPlayable_INTERNAL_CALL_SetApplyFootIKv
FMi:_StateMachineBehaviour_OnStateExit_m4064436078
Tfi:__Z48RuntimeInvoker_UIVertex_t1204258818_Il2CppObjectPK10MethodInfoPvPS2_
Ryj:__ZNSt3__214__split_bufferIN6il2cpp2vm5Image20EmbeddedResourceDataERNS_9allocatorIS4_EEED2Ev
veb:__ZN15dense_hashtableINSt3__24pairIKN4core12basic_stringIcNS2_20StringStorageDefaultIcEEEEP11AssetBundleEES6_20StringHash32FunctionIS6_EN14dense_hash_mapIS6_S9_SC_NS0_8equal_toIS6_EENS0_9allocatorISA_EEE9SelectKeyESF_SH_E4findERS7_
Y1:__ZL20SortItemByInstanceIDRKN18AwakeFromLoadQueue4ItemES2_
YKg:_TypeBuilder_create_runtime_class_m2719530260
mcd:_RNGCryptoServiceProvider_RngClose_m2921734810
nhg:__ZL85GUIStyle_t1799908754_CustomAttributesCacheGenerator_GUIStyle_set_richText_m1853532836P21CustomAttributesCache
cv:__ZNK34AnimationStateMachineMixerPlayable26GetInterruptedPosePlayableEv
X7c:__ZN20UnityConnectSettings8TransferI24GenerateTypeTreeTransferEEvRT_
$s:__ZN34BlobWriteTransferSTLStyleArrayImplI22OffsetPtrArrayTransferIbEEclERS1_17TransferMetaFlagsR9BlobWrite
xei:__Z37RuntimeInvoker_LabelFixup_t4090909514PK10MethodInfoPvPS2_
Wvi:_GCHandle_GetHashCode_m1664905595_AdjustorThunk
Pcf:_SimpleCollator_IsHalfKana_m4255579023
nzf:_InternalAsyncResult_get_Count_m1291942796
JDe:_Collection_1_System_Collections_IList_Contains_m3365884450_gshared
zDj:__ZNK15dense_hashtableINSt3__24pairIK10KeyWrapperIPK19Il2CppGenericMethodEP10MethodInfoEES6_N6il2cpp8metadata23Il2CppGenericMethodHashEN14dense_hash_mapIS6_S9_SD_NS6_14EqualsComparerINSC_26Il2CppGenericMethodCompareEEENS0_9allocatorISA_EEE9SelectKeyESH_SJ_E10test_emptyERK30dense_hashtable_const_iteratorISA_S6_SD_SL_SH_SJ_E
HMa:__Z16FlaggedAsSkippedIN4core12basic_stringIcNS0_20StringStorageDefaultIcEEEEEbRK13FileEntryInfoRKT_19FileEnumerationFlag
qLe:_Collection_1_set_Item_m3440986310_gshared
A7:__ZL31InitializeRendererUpdateManagerPv
yWd:_BaseMeshEffect__ctor_m2843647600
vO:__ZN13AudioListener12CleanupClassEv
Utf:_ClientSessionInfo_Dispose_m2571428025
h7d:_LayoutGroup_DelayedSetDirty_m4276695617
exf:_RecordProtocol_decryptRecordFragment_m2510859489
Xgg:__ZL105GUIStyle_t1799908754_CustomAttributesCacheGenerator_GUIStyle_INTERNAL_set_Internal_clipOffset_m2024478897P21CustomAttributesCache
Aeb:__Z28GetAbsoluteAssetBundlePrefixRKN4core12basic_stringIcNS_20StringStorageDefaultIcEEEE
kRd:_BaseRaycaster_get_sortOrderPriority_m3340181311
ayb:__ZN11TimeManager8TransferI19StreamedBinaryWriteILb0EEEEvRT_
t4e:_DelegatePInvokeWrapper_ReadDelegate_t3184826381
e4f:__ZL91HashSet_1_t2624254809_CustomAttributesCacheGenerator_HashSet_1_OnDeserialization_m627602129P21CustomAttributesCache
vUc:_compare_uni_maps
DKe:_Collection_1_get_Count_m804306016_gshared
m6c:__ZN11UnityEngine15PlatformWrapper27GetGraphicsCapsSupportFlagsEv
D_c:__ZNSt3__218__insertion_sort_3IRPFbPN2UI6CanvasES3_EPS3_EEvT0_S8_T_
AMf:__ZL80Decimal_t724701077_CustomAttributesCacheGenerator_Decimal_op_Explicit_m714968249P21CustomAttributesCache
vKd:_Decimal_Equals_m1115043331
ZMb:__ZN12NativeBufferI16Converter_StringE15SetupForWritingER9ArrayInfo
gVd:_StandaloneInputModule_DeactivateModule_m2952848884
RWj:___cxa_end_catch__wrapper
zkg:__ZL119RenderPipelineManager_t984453155_CustomAttributesCacheGenerator_RenderPipelineManager_CleanupRenderPipeline_m2242901458P21CustomAttributesCache
Oih:_ValueCollection_System_Collections_Generic_ICollectionU3CTValueU3E_Clear_m231380274_gshared
lSd:_Entry__ctor_m1176697586
Z1e:_BinaryReader_ReadUInt32_m1363572147
m0f:__ZL79Convert_t2607082565_CustomAttributesCacheGenerator_Convert_ToUInt32_m3391339025P21CustomAttributesCache
Yfi:__Z37RuntimeInvoker_Enumerator_t1147558387PK10MethodInfoPvPS2_
xlb:__ZThn268_N31CanvasBatchIntermediateRenderer20OnAssetBoundsChangedEv
v4a:__ZN13MonoBehaviour22DoScriptRebuildWarningEv
xdc:__Z38Camera_CUSTOM_INTERNAL_CALL_RaycastTryP12Il2CppObjectRK3Rayfi
Pzh:_Text_get_verticalOverflow_m3134063496
Tqj:__ZN6il2cpp6icalls8mscorlib6System5Array13ClearInternalEP11Il2CppArrayii
Nvi:_GCHandle_get_Target_m2327042781
_Ie:_Collection_1_GetEnumerator_m1417525918_gshared
FSj:_llvm_cttz_i32
oFf:_PublicKey_DecodeDSA_m1169363495
Wmc:__ZN11IMGUIModule25GetGUIStyleScriptingClassEv
tXc:_tt_get_interface
rBg:_AsymmetricKeyExchangeFormatter__ctor_m3362140205
Wrj:__ZN6il2cpp5utils9PathUtils7CombineIcEENSt3__212basic_stringIT_NS3_11char_traitsIS5_EENS3_9allocatorIS5_EEEERKSA_SC_
pBf:_NameObjectCollectionBase_BaseGet_m667273025
ytc:__ZN9JSONWrite8TransferI13dynamic_arrayIiLj4EEEEvRT_PKc17TransferMetaFlags
w_:__Z18ConvertUTF16toUTF8PPKtS0_PPhS2_15ConversionFlags
RCj:__ZN6il2cpp2os20PathErrnoToErrorCodeERKNSt3__212basic_stringIcNS1_11char_traitsIcEENS1_9allocatorIcEEEEi
JWg:_TypeLoadException__ctor_m1903359728
zWi:__ZL16my_g_bit_nth_msfj
ihh:_Transform_1_BeginInvoke_m3014766640_gshared
jad:_KeySizes__ctor_m3526899007
rpj:__ZN15dense_hashtableINSt3__24pairIK10KeyWrapperIP11Il2CppClassES4_EES5_N6il2cpp8metadata16SZArrayClassHashEN14dense_hash_mapIS5_S4_SA_NS5_14EqualsComparerINS9_19SZArrayClassCompareEEENS0_9allocatorIS7_EEE9SelectKeyESE_SG_E12expand_arrayEjN21dense_hash_map_traits17integral_constantIbLb0EEE
uWb:__ZNK12ShaderErrors11ShaderErrorltERKS0_
ujg:__ZL69ArgumentCache_t4810721_CustomAttributesCacheGenerator_m_FloatArgumentP21CustomAttributesCache
IEe:_Collection_1_CopyTo_m1578267616_gshared
bnd:_EncoderReplacementFallback__ctor_m2208438262
tUa:__Z23SetupStereoFlareElementP11FlareVertexRK8Vector2fS3_S3_RK11ColorRGBA32RK10Matrix4x4fRK8Vector3fb
A$i:__ZN6il2cpp2vm5Class15GetInstanceSizeEPK11Il2CppClass
ua:invoke_iiiifiiii
imh:_Dictionary_2_CopyTo_m1495142643_gshared
ywc:__ZN9rapidjson8internal6u64toaEyPc
oug:_SoapFieldAttribute_IsInteropXmlElement_m4243409842
aXi:_EventFunction_1_BeginInvoke_m3064802067_gshared
W0f:__ZL67IndexOutOfRangeException_t3527622107_CustomAttributesCacheGeneratorP21CustomAttributesCache
_oj:__ZNK15dense_hashtableINSt3__24pairIK10KeyWrapperINS1_IP11Il2CppClassjEEES4_EES6_N6il2cpp8metadata14ArrayClassHashEN14dense_hash_mapIS6_S4_SB_NS6_14EqualsComparerINSA_17ArrayClassCompareEEENS0_9allocatorIS8_EEE9SelectKeyESF_SH_E12test_deletedERK30dense_hashtable_const_iteratorIS8_S6_SB_SJ_SF_SH_E
D2e:_Directory_GetFiles_m4036267478
dNd:_Enum_System_IConvertible_ToType_m2669300536
TXe:_NumberFormatInfo_get_CurrencyNegativePattern_m3972163809
dEa:__ZL19BlitFramebufferImplRN4gles23BlitFramebufferDrawQuadER9GfxDevice9TextureIDRK8Vector4f
sIb:__Z18Transfer_BlittableI17RemapPPtrTransferLb0EhEvRK29SerializationCommandArgumentsR31RuntimeSerializationCommandInfo
QPh:__Z44RuntimeInvoker_Byte_t3683104436_Il2CppObjectPK10MethodInfoPvPS2_
Zij:__ZN15dense_hashtableINSt3__24pairIK10KeyWrapperIPK10Il2CppTypeEjEES6_N6il2cpp8metadata14Il2CppTypeHashEN14dense_hash_mapIS6_jSB_NS6_14EqualsComparerINSA_26Il2CppTypeEqualityComparerEEENS0_9allocatorIS8_EEE9SelectKeyESF_SH_E4findERS7_
kOe:_ReadOnlyCollection_1_System_Collections_IList_Add_m2333231354_gshared
rNc:_UNITY_FT_List_Add
OKg:_OpCodes__cctor_m939885911
W1b:__ZN14Texture2DArray11InitTextureEiii13TextureFormatb
Xpf:_PKCS1_RSASP1_m1748738009
enb:__ZN12CubemapArray21AwakeFromLoadThreadedEv
OHi:_UriParser_InitializeAndValidate_m251943319
Hed:_SymmetricAlgorithm_set_Padding_m3081984460
Lxb:__ZN9InputAxis8TransferI18StreamedBinaryReadILb0EEEEvRT_
eXf:__ZL91X509Certificate_t283079845_CustomAttributesCacheGenerator_X509Certificate_Reset_m1676863543P21CustomAttributesCache
ovd:_ArrayList_RemoveAt_m2578928333
cGb:__Z18Transfer_BlittableI14SafeBinaryReadLb0EaEvRK29SerializationCommandArgumentsR31RuntimeSerializationCommandInfo
Jri:_AnimatorControllerPlayable_INTERNAL_CALL_GetBoolString_m538178071
d8i:__ZN30dense_hashtable_const_iteratorINSt3__24pairIK10KeyWrapperI13dynamic_arrayIPK10Il2CppTypeLj4EEEPFvvEEES8_N6il2cpp8metadata19Il2CppSignatureHashEN14dense_hash_mapIS8_SB_SF_NS8_14EqualsComparerINSE_22Il2CppSignatureCompareEEENS0_9allocatorISC_EEE9SelectKeyESJ_SL_E30advance_past_empty_and_deletedEv
qNe:_ReadOnlyCollection_1_System_Collections_IList_set_Item_m1233322304_gshared
aIi:_GeneralNames_get_DNSNames_m2721668874
VMd:_Enum_System_IConvertible_ToByte_m38374586
_Me:_ReadOnlyCollection_1_System_Collections_Generic_IListU3CTU3E_RemoveAt_m1592158292_gshared
tDg:_PlatformNotSupportedException__ctor_m3301654967
cWj:_emscripten_glFrustum__wrapper
wxf:_ReceiveRecordAsyncResult_get_CompletedWithError_m2670396551
gKd:_Decimal_Equals_m1798565377
Nkb:__ZN17GlobalGameManager8TransferI24GenerateTypeTreeTransferEEvRT_
Rog:__ZL66InputField_t1631627530_CustomAttributesCacheGenerator_m_CaretColorP21CustomAttributesCache
EHg:_TypeBuilder_check_created_m2929267877
eRa:__Z20SyncFenceCullResultsR11CullResults
EFa:__ZN15TextureTFMethod20IsBoneCountSupportedEi
jD:__ZN26AnimatorControllerPlayable9GotoStateEiifff
X3g:_GUISkin_set_horizontalScrollbarThumb_m2119687595
Vlb:__ZN14RenderSettings23VirtualRedirectTransferER24GenerateTypeTreeTransfer
hHd:_DateTime_System_IConvertible_ToSByte_m2575078084_AdjustorThunk
BJb:__Z22TransferField_NonArrayI17RemapPPtrTransfer27Converter_SimpleNativeClassI8GUIStyleEEvRK23StaticTransferFieldInfoR31RuntimeSerializationCommandInfoRT0_
Dii:_AnimatorStateInfo_IsTag_m1529621725_AdjustorThunk
c0b:__ZNK17AnimationCurveTplIfE20EvaluateWithoutCacheEfRf
_Aj:__ZN6il2cpp2os6Thread12QueueUserAPCEPFvPvES2_
Jae:_Array_InternalArray__IEnumerable_GetEnumerator_TisDictionaryEntry_t3048875398_m3498834924_gshared
H6g:_GUIStyleState__ctor_m3611888666
rGe:_Collection_1_IsValidItem_m1304951912_gshared
_7b:__ZN4Mesh10SetNormalsEPK8Vector3fj
uOg:_PropertyInfo__ctor_m1808219471
ZJc:__Z66Register_UnityEngine_Physics2D_INTERNAL_CALL_GetRayIntersectionAllv
uDd:_Convert_ToDateTime_m4161927553
z1h:__Z76RuntimeInvoker_Void_t1841601450_RegexOptionsU26_t3063574985_SByte_t454417549PK10MethodInfoPvPS2_
KHg:_TypeBuilder_GetConstructors_m774120094
Neg:__ZL87Canvas_t209405766_CustomAttributesCacheGenerator_Canvas_set_overrideSorting_m3982973573P21CustomAttributesCache
Vzj:__ZNSt3__212basic_stringIDsNS_11char_traitsIDsEENS_9allocatorIDsEEE9__grow_byEjjjjjj
or:__ZN17AnimationCurveTplIfE8TransferI14SafeBinaryReadEEvRT_
fGi:_RegularExpression_set_GroupCount_m2991393456
zOd:_Calendar_get_EraNames_m452820602
xrb:__ZNSt3__26vectorIN15QualitySettings14QualitySettingENS_9allocatorIS2_EEE6assignIPS2_EENS_9enable_ifIXaasr21__is_forward_iteratorIT_EE5valuesr16is_constructibleIS2_NS_15iterator_traitsIS9_E9referenceEEE5valueEvE4typeES9_S9_
Zcb:__ZNK5Unity9Component10GetEnabledEv
uSa:__ZNK19ShaderPropertySheet11HasPropertyERKN9ShaderLab16FastPropertyNameE
UGd:_DateTime_System_IConvertible_ToByte_m2670443498_AdjustorThunk
Wej:_il2cpp_class_get_image
b5:__Z16AsyncReadRequestP16AsyncReadCommand
d2f:__ZL81BigInteger_t925946153_CustomAttributesCacheGenerator_BigInteger__ctor_m4013661868P21CustomAttributesCache
Onf:_BigInteger_op_Addition_m1734797151
k7h:__Z110RuntimeInvoker_Boolean_t3825574718_Vector2_t2243707579_Vector2_t2243707579_Single_t2076509932_SByte_t454417549PK10MethodInfoPvPS2_
mve:_List_1_CheckMatch_m1814522134_gshared
oFe:_Collection_1_System_Collections_IList_set_Item_m3488446830_gshared
dIg:_EnumBuilder_CreateNotSupportedException_m62763134
j4c:__Z24GetUnityAnalyticsManagerv
v8e:_Math_Log_m3371716878
e1g:_GUILayoutUtility_Layout_m3812180708
Cxb:__ZN9InputAxis8TransferI14SafeBinaryReadEEvRT_
l2:__ZNK21ExecutionOrderManager30GetCustomAwakeFromLoadQueueForEPKN5Unity4TypeE
f9c:__Z27RegisterModule_UnityConnectv
xqe:_Enumerator_Dispose_m3717265706_AdjustorThunk
pUg:_Scheduler_Remove_m1930366072
rki:_Bounds_get_size_m1728027642_AdjustorThunk
Avg:_RealProxy__ctor_m3041043303
aWe:_NumberFormatter_Init_m2654758994
N9c:_HMACSHA1__ctor_m1168389339
N7f:__ZL100Input_t1785128008_CustomAttributesCacheGenerator_Input_INTERNAL_get_compositionCursorPos_m2426914348P21CustomAttributesCache
UK:__ZN10ObjectPoolIN4FMOD12ChannelGroupENS0_13ChannelGroupIEE7SetSizeEi
Iff:_PrimalityTest_BeginInvoke_m966469054
RQe:_ReadOnlyCollection_1_System_Collections_Generic_ICollectionU3CTU3E_Clear_m1785953911_gshared
JZg:_UInt64_System_IConvertible_ToInt16_m2797150165_AdjustorThunk
VOa:__ZN5Image13ReformatImageEii13TextureFormatN14ImageReference8BlitModeE
eme:_Array_InternalArray__get_Item_TisLabelData_t3712112744_m863115768_gshared
z$e:_Int32_Parse_m753946802
oEc:__ZN19CollisionListener2D15ProcessContactsEP10Collider2Db
EZb:__ZN9Polygon2D7SetPathEiRK13dynamic_arrayI8Vector2fLj4EE
qV:__Z22ValidateTlsfAllocationPvjiS_
eBe:_List_1_RemoveAt_m2331128844_gshared
Wnj:__ZN14dense_hash_mapI10KeyWrapperINSt3__24pairIPK9EventInfoP11Il2CppClassEEEj17ReflectionMapHashIS8_ENS9_14EqualsComparerINS1_8equal_toIS8_EEEENS1_9allocatorINS2_IKS9_jEEEEE15set_deleted_keyERSH_
uLg:_UnmanagedMarshal_ToMarshalAsAttribute_m3695569337
wHb:__Z14resize_trimmedINSt3__26vectorI17AnimationCurveTplIfE13stl_allocatorIS3_L18MemLabelIdentifier1ELi16EEEEEvRT_j
F2a:__ZN25CameraStackRenderingState19SetupLastEyeCamerasERK11CameraStack
ihb:__Z12GUIDToStringRK9UnityGUID
H6d:_LayoutElement_get_minHeight_m2070403283
_G:__ZN11SoundHandleC2ERKS_
hsh:_Mask_OnEnable_m501850981
Qpf:_RSASslSignatureFormatter__ctor_m2530528184
xli:_Canvas_get_targetDisplay_m316548313
oJg:_GenericTypeParameterBuilder_GetGenericTypeDefinition_m2936287336
nff:_BigInteger_op_Addition_m1196561843
R8a:__Z29StdTemplateConversionFunctionItxEbPvR14SafeBinaryRead
lyi:_FormatterData__ctor_m3974986124
yRf:__ZL64FileNotFoundException_t4200667904_CustomAttributesCacheGeneratorP21CustomAttributesCache
ybd:_RijndaelManagedTransform_get_CanReuseTransform_m3735256596
qyd:_Comparer__cctor_m1327316974
y2e:_MonoIO_ExistsFile_m1421941572
rId:_DateTime_op_GreaterThanOrEqual_m3818963848
nta:__ZNSt3__26__treeINS_12__value_typeI18VertexChannelsInfoP17VertexDeclarationEENS_19__map_value_compareIS2_S5_NS_4lessIS2_EELb1EEE13stl_allocatorIS5_L18MemLabelIdentifier14ELi16EEE12__find_equalIS2_EERPNS_16__tree_node_baseIPvEENS_21__tree_const_iteratorIS5_PNS_11__tree_nodeIS5_SG_EEiEESJ_RKT_
sy:__ZN17AnimationPlayable18DeallocateBindingsEv
CZd:_DefaultControls_SetDefaultTextValues_m1707718380
BVd:_TouchInputModule_UseFakeInput_m2112019004
DRd:_EventSystem_get_baseEventDataCache_m4294741599
$lb:__ZN14RenderSettings18TransferDeprecatedI14SafeBinaryReadEEvRT_
ohg:__ZL85GUIStyle_t1799908754_CustomAttributesCacheGenerator_GUIStyle_Internal_Draw_m694122665P21CustomAttributesCache
YX:__ZN12TLSAllocatorI14StackAllocatorE8AllocateEji
j3:__ZN16ScriptingManager18GetMonoScriptCacheEi
i2g:_GUIStyle_get_stretchHeight_m3396762700
B7i:__ZN13dynamic_arrayIPK10Il2CppTypeLj4EEC2ERKS3_
d5i:__ZN15dense_hashtableINSt3__24pairIK10KeyWrapperIPK11Il2CppClassEPKcEES6_N6il2cpp5utils11PointerHashIS3_EEN14dense_hash_mapIS6_S9_SE_NS6_14EqualsComparerINS0_8equal_toIS5_EEEENS0_9allocatorISA_EEE9SelectKeyESJ_SL_E15set_deleted_keyERKSA_
I1d:_GridLayoutGroup_CalculateLayoutInputHorizontal_m2355123124
b4f:__ZL84Locale_t4255929017_CustomAttributesCacheGenerator_Locale_GetText_m512920887____args1P21CustomAttributesCache
hGb:__Z18Transfer_BlittableI14SafeBinaryReadLb1EyEvRK29SerializationCommandArgumentsR31RuntimeSerializationCommandInfo
vkg:__ZL89U3CInvokeMessageIdSubscribersU3Ec__AnonStorey0_t1899782350_CustomAttributesCacheGeneratorP21CustomAttributesCache
mqc:__ZN8JSONRead8TransferIfEEvRT_PKc17TransferMetaFlagsb
nBh:_U3CGetEnumeratorU3Ec__Iterator0_Reset_m2980566576_gshared
_ni:_Coroutine__ctor_m1253937571
JRe:_ReadOnlyCollection_1_System_Collections_ICollection_get_IsSynchronized_m4063596282_gshared
crd:__ZN21InterfaceFuncInvoker2IP12Il2CppObjectP6Type_tS1_E6InvokeEjP11Il2CppClassS1_S3_S1_
oRj:__ZNSt3__212basic_stringIcNS_11char_traitsIcEENS_9allocatorIcEEE6appendEPKcj
qSf:__ZL54TypeBuilder_t3308873219_CustomAttributesCacheGeneratorP21CustomAttributesCache
Tka:__ZN6prcoreL17RemapGenericFloatI18TexFormatARGBFloat17TexFormatRGBAHalfEEvPKNS_9InnerInfoE
RHe:_Collection_1_CheckWritable_m691269733_gshared
HIg:_GenericTypeParameterBuilder_GetAttributeFlagsImpl_m3338182267
gQ:__ZN13Simd4iFactoryIN6detail9FourTupleEEC2Eiiii
S6e:_SynchronizedReader__ctor_m1408327515
g4h:__Z67RuntimeInvoker_AnimatorTransitionInfo_t2410896200_Int32_t2071877448PK10MethodInfoPvPS2_
ifi:__Z54RuntimeInvoker_KeyValuePair_2_t3716250094_Il2CppObjectPK10MethodInfoPvPS2_
JSe:_ReadOnlyCollection_1_System_Collections_IList_Clear_m1858417639_gshared
Zzd:_Slot_t2022531261_marshal_pinvoke_cleanup
aOa:__ZZ23InitPlayerLoopCallbacksvEN38PostLateUpdateShaderHandleErrorsstruct7ForwardEv
xpb:__ZN15SerializeTraitsI33EnlightenTerrainChunksInformationE8TransferI14SafeBinaryReadEEvRS0_RT_
NGc:__ZN6b2Body12SetTransformERK6b2Vec2f
I2b:__ZNK32RendererMaterialAnimationBinding9BindValueER6ObjectRKN11UnityEngine9Animation14GenericBindingERNS3_10BoundCurveE
bVh:__Z112RuntimeInvoker_Int32_t2071877448_Il2CppObject_Int32_t2071877448_Int32_t2071877448_Il2CppObject_Int32_t2071877448PK10MethodInfoPvPS2_
Svb:__Z13GetIAnimationv
Dpa:__ZL18stbir__support_onef
Xte:_List_1_System_Collections_IList_Remove_m2040310137_gshared
WBi:_Match_get_Regex_m3526002767
KRf:__ZL49Stream_t3255436806_CustomAttributesCacheGeneratorP21CustomAttributesCache
ksc:__Z26Transfer_UnityEngineObjectI9JSONWriteLb0EEvRK29SerializationCommandArgumentsR31RuntimeSerializationCommandInfo
Nba:__ZN9ShaderLab4Pass9ApplyPassEjPK19ShaderPropertySheetR17ShaderPassContextP6ShaderiPKNS_10GrabPassesEPNS_11SubProgramsE
hnd:_EncoderReplacementFallback_CreateFallbackBuffer_m3579126537
QYg:_UInt32_System_IConvertible_ToInt16_m2251335934_AdjustorThunk
w$c:__ZNSt3__27__sort5IRNS_6__lessIN2UI14DepthSortEntryES3_EEPS3_EEjT0_S7_S7_S7_S7_T_
A5i:__ZN14dense_hash_mapI10KeyWrapperIPKcEP11Il2CppClassN6il2cpp5utils11StringUtils12StringHasherIS2_EENS3_14EqualsComparerINS8_21CaseSensitiveComparerEEENSt3__29allocatorINSE_4pairIKS3_S5_EEEEE13set_empty_keyERSH_
EPh:__Z31RuntimeInvoker_Void_t1841601450PK10MethodInfoPvPS2_
Oqd:_Boolean_System_IConvertible_ToType_m3990189691
Ikj:__ZNSt3__218uninitialized_copyIPNS_4pairIK10KeyWrapperINS1_IPK11Il2CppImageP11Il2CppClassEEEjEESC_EET0_T_SE_SD_
LHc:__ZN17PolygonCollider2D12SetPolygon2DEP9Polygon2D
Da:invoke_vdd
An:FUNCTION_TABLE_fiii
_Ih:_InternalEnumerator_1_Dispose_m3838127340_AdjustorThunk
CHc:__ZNK17PolygonCollider2D26GetTypeInfoVirtualInternalEv
U5h:__Z36RuntimeInvoker_FontStyle_t2764949590PK10MethodInfoPvPS2_
tMd:_Double_System_IConvertible_ToUInt32_m624993430
Dn:FUNCTION_TABLE_fiif
Jlg:__ZL89PointerEventData_t1599784723_CustomAttributesCacheGenerator_U3CdraggingU3Ek__BackingFieldP21CustomAttributesCache
Z0b:__ZNK30SpriteRendererAnimationBinding12GetPPtrValueERKN11UnityEngine9Animation10BoundCurveE
nUg:_Scheduler_Add_m376749205
hvd:_ArrayList_IndexOf_m2092981366
Zxj:__ZN15dense_hashtableINSt3__24pairIK10KeyWrapperINS1_IPKcS4_EEEiEES6_24NamespaceAndNamePairHashN14dense_hash_mapIS6_iS9_NS6_14EqualsComparerI26NamespaceAndNamePairEqualsEENS0_9allocatorIS8_EEE9SelectKeyESD_SF_E12resize_deltaEjj
K1b:__Z14RandomRotationP9Texture2DPhiiii
Bwg:_SingleCallIdentity__ctor_m1512303454
CHh:_InternalEnumerator_1_MoveNext_m1594563423_AdjustorThunk
Ycf:_SimpleCollator_IsIgnorable_m2485013022
Reg:__ZL86Canvas_t209405766_CustomAttributesCacheGenerator_Canvas_get_sortingLayerID_m1396307660P21CustomAttributesCache
MVh:__Z35RuntimeInvoker_TimeSpan_t3430258949PK10MethodInfoPvPS2_
Hye:_List_1_System_Collections_IList_Insert_m2036969360_gshared
i5d:_InputField_GetUnclampedCharacterLineFromPosition_m1912794077
U3e:_ReadDelegate__ctor_m885671467
QId:_DateTimeOffset_ToString_m2121173678_AdjustorThunk
A2f:__ZL50X509Crl_t1699034837_CustomAttributesCacheGeneratorP21CustomAttributesCache
z9i:__ZN24dense_hashtable_iteratorINSt3__24pairIK10KeyWrapperIPKcEP11Il2CppClassEES5_N6il2cpp5utils11StringUtils12StringHasherIS4_EEN14dense_hash_mapIS5_S8_SE_NS5_14EqualsComparerINSC_21CaseSensitiveComparerEEENS0_9allocatorIS9_EEE9SelectKeyESI_SK_E30advance_past_empty_and_deletedEv
kj:_JS_WebRequest_SetResponseHandler
iU:__ZNK13EmscriptenWWW14GetPartialDataEv
g0j:_glDeleteProgram__wrapper
Edc:__Z50Register_UnityEngine_Camera_INTERNAL_get_pixelRectv
iri:_AnimationOffsetPlayable_set_position_m3583285645
fai:__Z53RuntimeInvoker_UIVertex_t1204258818_Int32_t2071877448PK10MethodInfoPvPS2_
jka:__ZN6prcoreL18BlitFloatToIntegerERK14ImageReferenceRS0_
Odi:__Z57RuntimeInvoker_KeyValuePair_2_t38854645_Int32_t2071877448PK10MethodInfoPvPS2_
hlf:_X509CertificateCollection_get_Item_m410866272
p2g:_Rect_get_yMax_m2915146103
gig:__ZL94CustomEventData_t1269126727_CustomAttributesCacheGenerator_CustomEventData_AddInt32_m103138778P21CustomAttributesCache
eHc:__ZN7b2Timer5ResetEv
SS:__ZN11UnityEngine15CloudWebService14RestDownloader17OnCompleteContentEv
a2d:_LayoutGroup_SetChildAlongAxis_m1615929339
Ra:invoke_viffi
Gs:__ZN11UnityEngine9Animation40SetFlattenedSkeletonTransformsMainThreadER9TransformRKNS0_21AvatarBindingConstantEb
s$:__ZNSt3__26vectorI20ProcessCallbackGroupNS_9allocatorIS1_EEEC2ERKS4_
kA:__ZN17AnimationPlayable28UpdateInternalStateRecursiveILi1ELb0EEEvPK35AnimationPlayableEvaluationConstant
CBe:_List_1_System_Collections_ICollection_get_SyncRoot_m1429670979_gshared
Ua:invoke_vifff
fgc:__Z53Register_UnityEngine_Input_INTERNAL_get_mousePositionv
bCi:_MatchCollection_get_SyncRoot_m2567236647
Ue:_emscripten_request_fullscreen
Pch:_Rect_get_xMin_m1161102488
cX:__ZN20LocalFileSystemWebGL6DeleteER13FileEntryDatab
UJd:_Decimal_System_IConvertible_ToUInt16_m1621568250
We:_emscripten_glDisableVertexAttribArray
aag:__ZL79Object_t1021602117_CustomAttributesCacheGenerator_Object_Instantiate_m938141395P21CustomAttributesCache
Ym:FUNCTION_TABLE_iiiifiiii
iVg:_TimeSpan_get_TotalMinutes_m1645177229_AdjustorThunk
qc:invoke_fifffi
Qhh:_Enumerator__ctor_m3539306986_gshared
oAa:__ZN4gles23ClearCurrentFramebufferEP7ApiGLESbbbRK10ColorRGBAffi
dz:__ZN7mecanim12statemachine20CreateStateWorkspaceEjjjRNS_6memory9AllocatorE
wgf:__ZN21InterfaceFuncInvoker3IP22ByteU5BU5D_t3397334013S1_iiE6InvokeEjP11Il2CppClassP12Il2CppObjectS1_ii
u2c:__Z64Register_UnityEngine_CanvasRenderer_SplitIndiciesStreamsInternalv
r2h:__Z34RuntimeInvoker_Vector3_t2243707580PK10MethodInfoPvPS2_
ff:_emscripten_glDeleteObjectARB
ag:_IMG_Load
I7e:_UnexceptionalStreamReader_Read_m3839775235
Ala:__ZN6prcoreL27StretchGenericFloatBilinearI18TexFormatARGBFloatEEvPKNS_9InnerInfoE
rjc:__Z53Register_UnityEngine_RenderTexture_Internal_GetHeightv
Ovg:_RealProxy_SetTargetDomain_m3940877656
kla:__ZN6prcoreL17RemapGenericFloatI17TexFormatRGBAHalf18TexFormatARGBFloatEEvPKNS_9InnerInfoE
$Md:_Enum_System_IConvertible_ToInt32_m2459904362
ymc:__ZNK8GUIStyle21DrawWithTextSelectionER8GUIStateRK5RectTIfER10GUIContentbbbbbiiRK10ColorRGBAfSA_
Mmc:__Z14GetBuiltinSkini
Nqf:_ContentInfo__ctor_m3871771681
YJh:_InternalEnumerator_1_MoveNext_m607849555_AdjustorThunk
zQd:_BaseInput_set_compositionCursorPos_m2632248731
wZi:_Enumerator_System_Collections_IEnumerator_Reset_m2573763156_gshared
m2e:_DirectoryInfo_Initialize_m2216118894
lhd:_WindowsIdentity_Dispose_m2649088337
rXb:__ZN2UI13RectTransform23VirtualRedirectTransferER14SafeBinaryRead
bUi:_InvokableCall_1__ctor_m54675381_gshared
Z9e:_MonoType_GetMethodImpl_m593754598
jre:_List_1_System_Collections_ICollection_get_SyncRoot_m3733894943_gshared
rxe:_List_1_Reverse_m302978607_gshared
NO:__ZZL31InitializeAudioManagerCallbacksvEN33FixedUpdateAudioFixedUpdatestruct7ForwardEv
YTb:__ZNSt3__26vectorIN9ShaderLab20SerializedSubProgramENS_9allocatorIS2_EEE6assignIPS2_EENS_9enable_ifIXaasr21__is_forward_iteratorIT_EE5valuesr16is_constructibleIS2_NS_15iterator_traitsIS9_E9referenceEEE5valueEvE4typeES9_S9_
duc:__Z18Transfer_BlittableI8JSONReadLb0E8BitFieldEvRK29SerializationCommandArgumentsR31RuntimeSerializationCommandInfo
Nwg:_SoapServices_RegisterInteropXmlType_m2949236705
zjj:__ZNK15dense_hashtableINSt3__24pairIK10KeyWrapperIPK10Il2CppTypeEjEES6_N6il2cpp8metadata14Il2CppTypeHashEN14dense_hash_mapIS6_jSB_NS6_14EqualsComparerINSA_26Il2CppTypeEqualityComparerEEENS0_9allocatorIS8_EEE9SelectKeyESF_SH_E10test_emptyERK24dense_hashtable_iteratorIS8_S6_SB_SJ_SF_SH_E
T7a:__ZN17PersistentManagerC2Eii
$Nb:__ZL17Transfer_GUIStyleI18StreamedBinaryReadILb1EELb0EEvRK29SerializationCommandArgumentsR31RuntimeSerializationCommandInfo
Hld:_String_CharCopy_m2550399897
d_b:__ZN11TypeManager20RegisterNonClassTypeEiP4RTTIPKcS3_
lSb:__ZN9ShaderLab14SerializedPass8TransferI14SafeBinaryReadEEvRT_
Enc:__Z71Register_UnityEngine_GUILayoutUtility_INTERNAL_CALL_Internal_MoveWindowv
GO:__ZN12AudioManager16SetListenerPauseEb
OHc:__ZThn160_N17PolygonCollider2DD0Ev
jDc:__ZNSt3__26__sortIRN10ClipperLib12LocMinSorterEPNS1_12LocalMinimumEEEvT0_S6_T_
dsj:__ZN6il2cpp2vm9Exception25RaiseOutOfMemoryExceptionERKNS_5utils10StringViewIDsEE
GFe:_Collection_1_IsValidItem_m2254106115_gshared
THg:_TypeBuilder_GetEvent_m3876348075
Wyh:_Slider_OnMove_m641164662
ea:invoke_viiiiiiiiiii
QNj:___syscall_ret
qUg:_Scheduler__ctor_m3716265742
lif:_MACAlgorithm_Final_m4076939925
IZb:__ZN14qsort_internal30FindAndMovePivotToLastPositionIP8Vector2fi26PointDistanceSortPredicateEEvT_S4_T0_T1_
U4c:__Z56Register_UnityEngine_Analytics_CustomEventData_AddDoublev
Isb:__ZN11ChannelInfo8TransferI19StreamedBinaryWriteILb0EEEEvRT_
jDh:_InternalEnumerator_1_System_Collections_IEnumerator_get_Current_m3583252352_gshared
XBb:__ZN23ArchiveStorageConverter24ReadHeaderFromMemoryFileEv
uHg:_EnumBuilder_get_FullName_m2818393911
mVa:__ZN14qsort_internal13Partition3WayIP17RODataReplacementi19ROSorterReplacementEENSt3__24pairIT_S6_EES6_S6_T0_T1_
R5e:_StreamAsyncResult_get_Done_m2858832609
Afc:__Z34Register_UnityEngine_Gradient_Initv
sYi:_ObjectPool_1_set_countAll_m1742773675_gshared
jzg:_SerializationEntry_get_Value_m1628109884_AdjustorThunk
aRd:_BaseInputModule_GetAxisEventData_m3903709281
tme:_Array_InternalArray__get_Item_TisUriScheme_t1876590943_m1821482697_gshared
sje:_Array_Sort_TisIl2CppObject_m1954851512_gshared
Rmf:_BigInteger__ctor_m3239748086
zW:__ZN13ScreenManager23SetIsOrientationEnabledE18EnabledOrientationb
x1i:__ZL24UnresolvedVirtualCall_57P12Il2CppObjectiPK10MethodInfo
O$f:__ZL79Convert_t2607082565_CustomAttributesCacheGenerator_Convert_ToUInt16_m1043031438P21CustomAttributesCache
Mu:__ZN7mecanim5human25HumanPoseAddOverrideLayerERNS0_9HumanPoseERKS1_fRKNS_6bitsetILj70EEE
Y$b:__ZN13ProduceHelperI9TransformLb0EE7ProduceE18MemLabelIdentifier18ObjectCreationMode
vpc:__Z45Register_UnityEngine_GUIStyle_GetFontInternalv
Shi:_AnimationEvent_set_floatParameter_m4139544688
v2i:__ZL25UnresolvedVirtualCall_109P12Il2CppObjectS0_S0_iiPK10MethodInfo
BEi:_Alternation_get_Alternatives_m1445219249
Omh:_DefaultComparer_GetHashCode_m2506382068_gshared
Dni:_Component_SendMessageUpwards_m19741277
uqh:_EqualityComparer_1_System_Collections_IEqualityComparer_GetHashCode_m1012273405_gshared
Yee:_Array_InternalArray__ICollection_Add_TisHitInfo_t1761367055_m2956071622_gshared
O8f:__ZL74Random_t1170710517_CustomAttributesCacheGenerator_Random_Range_m2884721203P21CustomAttributesCache
uJh:_InternalEnumerator_1_MoveNext_m470170271_AdjustorThunk
k5a:__ZN10GameObject23VirtualRedirectTransferER18StreamedBinaryReadILb0EE
Joe:_Enumerator_get_Current_m2577424081_gshared
gMh:_InternalEnumerator_1_Dispose_m2270401482_AdjustorThunk
wg:_glFrontFace
Iyg:_ObjectRecord_get_IsUnsolvedObjectReference_m2202692850
$If:_FactoryCache_Cleanup_m4130035987
UC:__ZN26AnimatorControllerPlayable14SetLayerWeightEif
__b:__ZN13ProduceHelperI19LowerResBlitTextureLb0EE7ProduceE18MemLabelIdentifier18ObjectCreationMode
B_a:__ZNSt3__26vectorI16ShadowCasterData13stl_allocatorIS1_L18MemLabelIdentifier2ELi16EEE21__push_back_slow_pathIKS1_EEvRT_
zcj:__ZN6il2cpp6icalls8mscorlib6SystemL16GetFieldFromTypeINS_5utils10functional6FilterINSt3__212basic_stringIcNS7_11char_traitsIcEENS7_9allocatorIcEEEENS4_11StringUtils23CaseInsensitiveComparerEEEEEP21Il2CppReflectionFieldP11Il2CppClassSK_iRKT_
RUi:_UnityAction_1_Invoke_m1279802577_gshared
sZg:_UInt32_ToString_m1783596809
DOi:_Vector3_get_forward_m1201659139
dCe:_List_1_Sort_m269561757_gshared
rhg:__ZL110GUIStyle_t1799908754_CustomAttributesCacheGenerator_GUIStyle_INTERNAL_CALL_Internal_DrawPrefixLabel_m557487542P21CustomAttributesCache
WZc:__Z51Register_UnityEngine_TextGenerator_GetLinesInternalv
RZi:_HashSet_1_Init_m1258286688_gshared
jlf:_X509CertificateEnumerator_System_Collections_IEnumerator_get_Current_m1643583406
CKi:_X509ExtensionCollection_get_Item_m4212651995
qOe:_ReadOnlyCollection_1_System_Collections_IList_RemoveAt_m525136953_gshared
uce:__ZN21InterfaceFuncInvoker1Ii19Vector4_t2243707581E6InvokeEjP11Il2CppClassP12Il2CppObjectS0_
Jmi:_Collision2D_get_gameObject_m4234358314
Bka:__ZN6prcoreL17RemapGenericFloatI17TexFormatRGBFloat18TexFormatRGBAFloatEEvPKNS_9InnerInfoE
xZg:_UInt64_System_IConvertible_ToBoolean_m3012279573_AdjustorThunk
xXh:__Z48RuntimeInvoker_Il2CppObject_StringU26_t638738783PK10MethodInfoPvPS2_
lXg:_Type_get_IsGenericTypeDefinition_m2147901038
pLa:__ZN12HandlerChain10ToAbsoluteEPKc
mzi:_ContextAttribute_Freeze_m4133346275
yVe:_GregorianCalendar__ctor_m3794576475
nZg:_UInt32_TryParse_m4283512434
Cvj:__ZN15dense_hashtableI10KeyWrapperIP18Il2CppGenericClassES3_N6il2cpp8metadata22Il2CppGenericClassHashEN14dense_hash_setIS3_S6_NS3_14EqualsComparerINS5_25Il2CppGenericClassCompareEEENSt3__29allocatorIS3_EEE8IdentityESA_SD_E8min_sizeEjj
RG:__ZN9AudioClip11CreateSoundEv
Zfh:_ShimEnumerator_MoveNext_m3313047792_gshared
sGe:_Collection_1_ConvertItem_m2185647560_gshared
PVg:_TimeSpan_op_Inequality_m257547441
aTg:_ExecutionContext_GetObjectData_m1456913356
ioj:__ZN14dense_hash_mapI10KeyWrapperINSt3__24pairIPK9FieldInfoP11Il2CppClassEEEj17ReflectionMapHashIS8_ENS9_14EqualsComparerINS1_8equal_toIS8_EEEENS1_9allocatorINS2_IKS9_jEEEEEC2EjRKSB_RKSF_
oah:_Object_set_hideFlags_m2204253440
Kjj:__ZNK15dense_hashtableINSt3__24pairIK10KeyWrapperINS1_IPK10MethodInfoP11Il2CppClassEEEjEES9_17ReflectionMapHashIS8_EN14dense_hash_mapIS9_jSD_NS9_14EqualsComparerINS0_8equal_toIS8_EEEENS0_9allocatorISB_EEE9SelectKeyESI_SK_E13find_positionERSA_
mHg:_EnumBuilder_get_Assembly_m4285228003
fYb:__Z10tesvertLeqP10TESSvertexS0_
HLb:__Z18Transfer_BlittableI19StreamedBinaryWriteILb0EELb0E8Vector2fEvRK29SerializationCommandArgumentsR31RuntimeSerializationCommandInfo
rXe:_DateTimeFormatInfo_get_RoundtripPattern_m562440017
y8c:__ZN11UnityEngine7Connect16PersistentValues13RestoreValuesER8JSONRead
XMa:__ZN20ArchiveStorageReader31TryToReadDirectoryFromBlockDataEyPKvj
Nnh:_DefaultComparer__ctor_m3947565964_gshared
_Ld:_Double_System_IConvertible_ToByte_m3004284950_AdjustorThunk
Rwg:_TypeEntry_get_AssemblyName_m1762285107
Suj:__ZN6il2cpp2vmL11GetIdentityEP14Il2CppIUnknown
Mhf:_SmallXmlParser_ReadCDATASection_m2558307107
VGj:_GC_push_gc_structures
iWd:_AspectRatioFitter_get_aspectRatio_m3023618874
YBf:_ServicePointManager_get_ServerCertificateValidationCallback_m1409951209
xdj:__ZN6il2cpp6icalls8mscorlib6SystemL8IsPublicEPK9EventInfo
ZKf:_Enumerator__ctor_m3782962052
$Ad:_Enumerator_get_Current_m1271212567
zEj:__ZThn4_N6il2cpp2vm13ComObjectBase18ReleaseMarshalDataEP13Il2CppIStream
QGa:__Z22GetShaderCachePathGLESv
WZa:__Z33GenerateShadowCasterPartsSortDataRK16ShadowCasterDatajRK15RenderNodeQueueRKNSt3__26vectorI20ShadowCasterPartData13stl_allocatorIS7_L18MemLabelIdentifier2ELi16EEEERK10Matrix4x4fRjP20ShadowCasterSortData
x7g:_Input_set_compositionCursorPos_m1615567306
MCf:_IPAddress_ParseIPV6_m2209709575
Avh:_U3CClickRepeatU3Ec__Iterator0_MoveNext_m1747924386
IUe:_Comparison_1_Invoke_m1670081898_gshared
pAh:_Toggle_set_group_m3833595685
A7d:_LayoutRebuilder_ForceRebuildLayoutImmediate_m566681977
DGa:__ZNSt3__26vectorIPN19ConstantBuffersGLES11ConstBufferENS_9allocatorIS3_EEE21__push_back_slow_pathIKS3_EEvRT_
dfe:_Array_InternalArray__ICollection_Add_TisVector4_t2243707581_m698578249_gshared
P0:__ZN8keywords6CreateEPKc
QRh:__Z89RuntimeInvoker_Il2CppObject_Il2CppObject_Int32_t2071877448_Int32_t2071877448_Il2CppObjectPK10MethodInfoPvPS2_
dLb:__ZN24GenerateTypeTreeTransfer8TransferINSt3__26vectorI17AnimationCurveTplIfE13stl_allocatorIS4_L18MemLabelIdentifier1ELi16EEEEEEvRT_PKc17TransferMetaFlags
S:Math_imul
N4g:_GUIStyle_set_active_m2896743432
fxb:__ZN14SpriteRenderer15SetupPropertiesEv
Lrb:__ZN11PlayerPrefs6GetIntERKN4core12basic_stringIcNS0_20StringStorageDefaultIcEEEEi
Phd:_SecurityFrame_t1002202659_marshal_pinvoke_back
EZc:__Z45TextGenerator_CUSTOM_INTERNAL_get_rectExtentsP12Il2CppObjectP5RectTIfE
nui:_PlayableHandle_Equals_m1435096530
y$e:_Int32_Equals_m321398519_AdjustorThunk
shg:__ZL102GUIStyle_t1799908754_CustomAttributesCacheGenerator_GUIStyle_Internal_GetCursorFlashOffset_m3177259302P21CustomAttributesCache
kae:_SetPropertyUtility_SetStruct_TisChar_t3454481338_m2333420724_gshared
JFe:_Collection_1_IsSynchronized_m2601980439_gshared
uzd:_Hashtable_ContainsKey_m2716576664
xCi:_PatternCompiler_EmitCategory_m1696942454
dKd:_Decimal_decimalFloorAndTrunc_m3655683429
wfe:_Array_InternalArray__ICollection_CopyTo_TisInt32_t2071877448_m984622488_gshared
l_:__ZN18ScriptingArguments9AddObjectE18ScriptingObjectPtr
E1c:__Z39CanvasGroup_Get_Custom_PropInteractableP12Il2CppObject
DQ:__ZN11UnityEngine15CloudWebService16SessionContainerD2Ev
olg:__ZL97AxisEventData_t1524870173_CustomAttributesCacheGenerator_AxisEventData_get_moveVector_m1338727516P21CustomAttributesCache
cYj:_emscripten_glStencilOpSeparate__wrapper
qWc:_cf2_getLanguageGroup
BAa:__ZN17GenericDynamicVBOC2ER9GfxDevice13GfxBufferModejj
Lyi:_Context_get_HasDynamicSinks_m1998518649
GGc:__Z28GetPhysics2DScriptingClassesv
U8i:__ZN15dense_hashtableINSt3__24pairIK10KeyWrapperIPKcEP11Il2CppClassEES5_N6il2cpp5utils11StringUtils12StringHasherIS4_EEN14dense_hash_mapIS5_S8_SE_NS5_14EqualsComparerINSC_21CaseSensitiveComparerEEENS0_9allocatorIS9_EEE9SelectKeyESI_SK_E6insertERKS9_
WR:__ZN11UnityEngine15CloudWebService17SessionEventQueue10PurgeItemsEj
Beh:_UpdatedEventHandler_BeginInvoke_m4238510153
eQd:_AbstractEventData_get_used_m4208553917
T3a:__ZN6Camera16StandaloneRenderENS_10RenderFlagEP6ShaderRKN4core12basic_stringIcNS3_20StringStorageDefaultIcEEEE
cod:_Array_System_Collections_IList_get_Item_m2088124007
wod:_Array_GetLength_m2083296647
PYf:__ZL58SecurityElement_t2325568386_CustomAttributesCacheGeneratorP21CustomAttributesCache
tnb:__ZNK12CubemapArray13GetIsReadableEv
dxd:_SynchronizedArrayListWrapper_ToArray_m1522185111
F$h:__Z55RuntimeInvoker_TimeSpan_t3430258949_DateTime_t693205669PK10MethodInfoPvPS2_
ANb:__Z18Transfer_BlittableI18StreamedBinaryReadILb1EELb1EtEvRK29SerializationCommandArgumentsR31RuntimeSerializationCommandInfo
qhd:_SecurityContext_get_FlowSuppressed_m420202521
yva:__ZN9GfxDevice20DeallocRenderSurfaceEP17RenderSurfaceBase
l$g:_ValueType_ToString_m3796301715
Xvj:__ZNK15dense_hashtableI10KeyWrapperIP18Il2CppGenericClassES3_N6il2cpp8metadata22Il2CppGenericClassHashEN14dense_hash_setIS3_S6_NS3_14EqualsComparerINS5_25Il2CppGenericClassCompareEEENSt3__29allocatorIS3_EEE8IdentityESA_SD_E12test_deletedEj
dZh:__Z62RuntimeInvoker_Int64_t909078037_Il2CppObject_Int32_t2071877448PK10MethodInfoPvPS2_
wgc:__Z53Register_UnityEngine_Quaternion_INTERNAL_CALL_Inversev
xie:_Array_qsort_TisUICharInfo_t3056636800_m2607408901_gshared
r1g:_GUILayoutGroup__ctor_m992523271
Dcg:__ZL139AnimatorControllerPlayable_t4078305555_CustomAttributesCacheGenerator_AnimatorControllerPlayable_CrossFadeInFixedTime_m1082259778____layer2P21CustomAttributesCache
Gib:__ZN12BaseRenderer23RendererBecameInvisibleEv
ILc:__ZN20TextRenderingPrivate8FontImpl13CharacterInfo8TransferI18StreamedBinaryReadILb0EEEEvRT_
uLb:__Z29Transfer_Blittable_ArrayFieldI24GenerateTypeTreeTransferfEvRT_R9ArrayInfoRK23StaticTransferFieldInfo
VZh:__Z51RuntimeInvoker_Single_t2076509932_Int16_t4041245914PK10MethodInfoPvPS2_
P6a:__ZN19CustomRenderTexture9AddParentE4PPtrIS_E
Zqb:__ZN8Gradient8TransferI14SafeBinaryReadEEvRT_
zWh:__Z41RuntimeInvoker_StackBehaviour_t1390406961PK10MethodInfoPvPS2_
pWi:_UnityEvent_1_Invoke_m1533100983_gshared
Aha:__ZNSt3__26vectorIN4core12basic_stringIcNS1_20StringStorageDefaultIcEEEE13stl_allocatorIS5_L18MemLabelIdentifier1ELi16EEE7reserveEj
aCf:_FileWebRequest__ctor_m4003648606
Kqg:__ZL71SpriteState_t1353336012_CustomAttributesCacheGenerator_m_DisabledSpriteP21CustomAttributesCache
Lei:__Z34RuntimeInvoker_HitInfo_t1761367055PK10MethodInfoPvPS2_
bNd:_Enum_System_IConvertible_ToSByte_m3488526280
kLg:_TypeBuilder_ToString_m1952363535
Qzi:_Identity_set_Disposed_m628843469
cah:_MonoBehaviour_StopAllCoroutines_m1675795839
Tqa:__ZN18IDCollectorFunctorD0Ev
W9f:__ZL82Object_t1021602117_CustomAttributesCacheGenerator_Object_DestroyObject_m2343493981P21CustomAttributesCache
XW:__ZNK20LocalFileSystemPosix9IsSymLinkERK13FileEntryData
PFj:_GC_new_free_list_inner
Amh:_DefaultComparer_Equals_m85211180_gshared
wJe:_Collection_1_System_Collections_IList_IndexOf_m1950953062_gshared
R9e:_MonoType_InternalGetEvent_m532443236
pIe:_Collection_1_IndexOf_m2700825189_gshared
LNh:_Comparer_1_get_Default_m2605397692_gshared
Puc:__ZN8JSONRead8TransferI10RectOffsetEEvRT_PKc17TransferMetaFlagsb
Sxj:__ZNK15dense_hashtableINSt3__24pairIK10KeyWrapperINS1_IPKcS4_EEEiEES6_24NamespaceAndNamePairHashN14dense_hash_mapIS6_iS9_NS6_14EqualsComparerI26NamespaceAndNamePairEqualsEENS0_9allocatorIS8_EEE9SelectKeyESD_SF_E12test_deletedERK24dense_hashtable_iteratorIS8_S6_S9_SH_SD_SF_E
ER:__ZN9JSONWrite8TransferIN11UnityEngine15CloudWebService14DataErrorEvent15FileErrorDetailEEEvRT_PKc17TransferMetaFlags
lmd:_Decoder__ctor_m2623573910
Eqa:__Z21ClearFenceWithoutSyncR8JobFence
kPe:_ReadOnlyCollection_1_System_Collections_Generic_IListU3CTU3E_RemoveAt_m1731148677_gshared
NJ:__ZN12SoundManager20RegisterModifiedClipEP10SampleClip
zTh:__Z108RuntimeInvoker_Void_t1841601450_Il2CppObject_Int64_t909078037_Il2CppObject_Int64_t909078037_Int64_t909078037PK10MethodInfoPvPS2_
lM:__ZN11AudioSource4PlayEd
bzj:__ZN6il2cpp2vm6Object16GetVirtualMethodEP12Il2CppObjectPK10MethodInfo
oy:__ZN22AnimationMixerPlayable11DerivesFromE17ScriptingClassPtr
x6i:__ZN15dense_hashtableI10KeyWrapperIPK17Il2CppGenericInstES4_N6il2cpp8metadata21Il2CppGenericInstHashEN14dense_hash_setIS4_S7_NS4_14EqualsComparerINS6_24Il2CppGenericInstCompareEEENSt3__29allocatorIS4_EEE8IdentityESB_SE_E13set_empty_keyERKS4_
WW:__ZNK20LocalFileSystemPosix8IsHiddenERK13FileEntryData
pph:_EqualityComparer_1_System_Collections_IEqualityComparer_Equals_m3589836321_gshared
Yhf:_SmallXmlParser_IsNameChar_m1561000202
uJi:_X501__cctor_m2610532554
dfh:_Enumerator_VerifyState_m3173176371_gshared
Jld:_StringComparer__ctor_m2275216983
lhj:__ZNSt3__214__split_bufferINS_12basic_stringIcNS_11char_traitsIcEENS_9allocatorIcEEEERNS4_IS6_EEED2Ev
bBe:_List_1_CheckCollection_m2220107869_gshared
Tnb:__ZN7Cubemap23VirtualRedirectTransferER18StreamedBinaryReadILb0EE
ytf:_RecordProtocol_EncodeRecord_m3884270352
Ddd:_SHA256_Create_m896954069
ZXc:_Read_CVT
gGd:_Convert_ToUInt32_m776714429
RJa:__ZN12FileAccessor4SeekEx10FileOrigin
uKb:__ZL26Transfer_SimpleNativeClassI24GenerateTypeTreeTransfer17AnimationCurveTplIfELb0EEvRK29SerializationCommandArgumentsR31RuntimeSerializationCommandInfo
D6h:__Z54RuntimeInvoker_Boolean_t3825574718_Vector2_t2243707579PK10MethodInfoPvPS2_
V7i:__ZN15dense_hashtableINSt3__24pairIK10KeyWrapperI13dynamic_arrayIPK10Il2CppTypeLj4EEEPFvvEEES8_N6il2cpp8metadata19Il2CppSignatureHashEN14dense_hash_mapIS8_SB_SF_NS8_14EqualsComparerINSE_22Il2CppSignatureCompareEEENS0_9allocatorISC_EEE9SelectKeyESJ_SL_E4swapERSO_
Xni:_Coroutine_t2299508840_marshal_pinvoke
I7:__ZN16LightmapSettings20DidChangeActiveSceneEP10UnitySceneS1_
NEg:_Default_ReorderParameters_m1877749093
Xsg:__ZL59g_AssemblyU2DCSharp_Assembly_CustomAttributesCacheGeneratorP21CustomAttributesCache
jlb:__ZNK17InstancedPropInfo15RenderInstancesERK15RenderNodeQueuePK17BatchInstanceDataj17ShaderChannelMask
Jbj:__ZN6il2cpp5utils9PathUtils8BasenameIcEENSt3__212basic_stringIT_NS3_11char_traitsIS5_EENS3_9allocatorIS5_EEEERKSA_
eL:__ZN10AudioMixer11SetupGroupsEv
R8f:__ZL91Resources_t339470017_CustomAttributesCacheGenerator_Resources_GetBuiltinResource_m582410469P21CustomAttributesCache
qnc:__Z35Register_UnityEngine_Event_get_typev
Lif:_PrivateKeyInfo_DecodeRSA_m1427048948
psj:__ZN6il2cpp2vm9Exception23GetInvalidCastExceptionERKNS_5utils10StringViewIDsEE
Ynf:_BigInteger_op_GreaterThanOrEqual_m2643115413
RDg:_Assembly_FillName_m1934025015
vPa:_UNITY_png_free
p1e:_IntPtr_op_Explicit_m1073656736
eWj:_emscripten_glDepthRange__wrapper
jkd:_String_IndexOf_m2126171214
O0e:_Int64_ToString_m1544341651_AdjustorThunk
jA:__ZN8Animator28BuildControllerPlayableCacheEv
NYe:_Guid_CheckNull_m2903986431
T1f:__ZL62CrossContextDelegate_t754146990_CustomAttributesCacheGeneratorP21CustomAttributesCache
gki:_Bounds__ctor_m1202659404
a2:__Z63ThreadAndSerializationSafeCheckGetMonoBehaviourBeingTransferredv
zIj:_GC_enable
tvf:_TlsClientCertificateVerify_ProcessAsSsl3_m3377063356
RTh:__Z97RuntimeInvoker_Il2CppObject_Il2CppObject_Int32_t2071877448_Il2CppObject_Il2CppObject_Il2CppObjectPK10MethodInfoPvPS2_
VUd:_StandaloneInputModule_set_repeatDelay_m2820945738
R2e:_EndOfStreamException__ctor_m4268387737
xYg:_UInt16_ToString_m4213290405
agc:__Z37Register_UnityEngine_Input_GetAxisRawv
RCe:_List_1_GetIndex_m433539411_gshared
ZWf:__ZL59StreamingContext_t1417235061_CustomAttributesCacheGeneratorP21CustomAttributesCache
fxi:_ChannelServices_RegisterChannel_m3832858065
iNd:_Enum_GetName_m1226611481
uVe:_Func_2_Invoke_m4121137703_gshared
_L:__ZN11AudioSource5ResetEv
Wsb:__ZN14Texture2DArray23VirtualRedirectTransferER18StreamedBinaryReadILb0EE
aFi:_Literal_CompileLiteral_m276843152
iXb:__ZN2UI13RectTransform13AwakeFromLoadE17AwakeFromLoadMode
YEi:_Reference__ctor_m4110013284
YZa:__ZN14qsort_internal30FindAndMovePivotToLastPositionIP20ShadowCasterSortDatai26ShadowCasterSortDataSorterEEvT_S4_T0_T1_
pFb:__Z18Transfer_BlittableI14SafeBinaryReadLb1EiEvRK29SerializationCommandArgumentsR31RuntimeSerializationCommandInfo
qra:__ZN17PersistentManager13GetAllFileIDsERKN4core12basic_stringIcNS0_20StringStorageDefaultIcEEEER13dynamic_arrayIxLj8EE
eZh:__Z72RuntimeInvoker_Il2CppObject_IntPtr_t_Int32_t2071877448_Int32_t2071877448PK10MethodInfoPvPS2_
hQe:_ReadOnlyCollection_1_GetEnumerator_m713393110_gshared
Hvg:_ProxyAttribute_GetPropertiesForNewContext_m3587421540
wpd:_Array_LastIndexOf_m4096535198
evd:_ArrayList_Add_m1719188324
oMd:_Double_System_IConvertible_ToSByte_m1653690240_AdjustorThunk
Ek:_glGetStringi
E6g:_GUIStyleState_t3801000545_marshal_pinvoke
Pyg:_ObjectManager_AddFixup_m4148241867
TPd:_CultureInfo_set_NumberFormat_m1618950525
rtb:__ZN18StreamedBinaryReadILb0EE21TransferSTLStyleArrayI13dynamic_arrayI8Vector4fLj4EEEEvRT_17TransferMetaFlags
JGf:_X509Store__ctor_m1573680316
YGf:_X509Chain_get_CertificateCollection_m324631835
Hph:_EqualityComparer_1__cctor_m1011898363_gshared
TVd:_AnimationTriggers__ctor_m2623627182
Tce:_Array_InternalArray__IndexOf_TisClientCertificateType_t4001384466_m1168139450_gshared
Abi:__Z49RuntimeInvoker_Int32_t2071877448_Link_t2723257478PK10MethodInfoPvPS2_
uIg:_FieldBuilder_get_Name_m2243491233
UTa:__ZN9Coroutine16SetCurrentMethodE18ScriptingMethodPtr
ys:__ZN8Animator9WriteStepEv
Nrb:__ZNSt3__23mapIN4core12basic_stringIcNS1_20StringStorageDefaultIcEEEE9PrefValueNS_4lessIS5_EENS_9allocatorINS_4pairIKS5_S6_EEEEEixERSB_
Wkc:__ZN15DirectorManager22ConstructPlayableGraphEv
kW:__ZN13ScreenManager16SetScreenTimeoutEi
kJb:__Z18Transfer_BlittableI17RemapPPtrTransferLb0EdEvRK29SerializationCommandArgumentsR31RuntimeSerializationCommandInfo
Aed:_SymmetricAlgorithm_set_IV_m4262655606
pzh:_StencilMaterial__cctor_m2963056855
hrh:_EqualityComparer_1_System_Collections_IEqualityComparer_Equals_m315020809_gshared
yFg:_CustomAttributeNamedArgument_GetHashCode_m3715408876_AdjustorThunk
LZc:__Z38Register_UnityEngine_Font_HasCharacterv
bGf:_X509Certificate2_AppendBuffer_m3517242299
W1a:__Z35IntersectSpherePlaneBoundsOptimizedRKN4math7_float4EPS1_i
PPd:_CultureInfo_get_IsNeutralCulture_m3874876470
TKd:_Delegate_CreateDelegate_m3813023227
AXh:__Z46RuntimeInvoker_WellKnownObjectMode_t2630225581PK10MethodInfoPvPS2_
lHi:_Uri_get_AbsoluteUri_m2120317928
Izj:__ZN6il2cpp2os5posix15PosixWaitObject13InterruptWaitEv
VYd:_ColorTween_TweenValue_m3279916815
hRd:_BaseInputModule_IsModuleSupported_m4272494372
l7:__Z22CleanupLODGroupManagerPv
Zee:_Array_InternalArray__ICollection_Add_TisContentType_t1028629049_m2984242302_gshared
mnc:__Z21Event_CUSTOM_PopEventP12Il2CppObject
cwj:__ZN6il2cpp8metadata15GenericMetadata20RegisterGenericClassEP18Il2CppGenericClass
ml:_glUniform3fv
Jzb:__ZNSt3__218__insertion_sort_3IRN15ResourceManager10Dependency6SorterEPS2_EEvT0_S6_T_
Fqe:_Enumerator_System_Collections_IEnumerator_Reset_m3796537546_AdjustorThunk
iZc:_UNITY_FT_Init_Class_tt_service_gx_multi_masters
WIh:_InternalEnumerator_1_System_Collections_IEnumerator_Reset_m3249248421_AdjustorThunk
A9e:_IntComparer_Compare_m3057931085
FYa:__ZNK16LightmapSettings31GetRealtimeLightmapDecodeValuesEv
BL:__ZN5audio5mixer12SetSuspendedERNS0_16AudioMixerMemoryEb
ena:__ZN17PersistentManager21UnloadNonDirtyStreamsEv
vSh:__Z78RuntimeInvoker_Int32_t2071877448_DecimalU26_t1613489971_DecimalU26_t1613489971PK10MethodInfoPvPS2_
ftj:__ZN6il2cpp2vm13LivenessStateC2EP11Il2CppClassjPFvPP12Il2CppObjectiPvES7_PFvvESB_
p7h:__Z41RuntimeInvoker_ColorTweenMode_t1328781136PK10MethodInfoPvPS2_
hSa:__ZN12ImageFilters4BlitER17ShaderPassContextP7TextureP13RenderTextureiPK18SharedMaterialDataPKcP6ShaderiNS_9BlitFlagsE11CubemapFaceRK8Vector2fSH_
rEf:_Oid__ctor_m1936781897
Hah:_Object_INTERNAL_CALL_Internal_InstantiateSingleWithParent_m1401308849
Uui:_ResourceSet__ctor_m1222864106
J_g:_UIntPtr_op_Explicit_m1113914169
SDe:_Collection_1_System_Collections_IList_get_Item_m3376056117_gshared
WPh:__Z44RuntimeInvoker_Int64_t909078037_Il2CppObjectPK10MethodInfoPvPS2_
Jl:_emscripten_glDepthMask
oSd:__ZN23InterfaceActionInvoker1IP28PointerEventData_t1599784723E6InvokeEjP11Il2CppClassP12Il2CppObjectS1_
QLf:__ZL76UInt16_t986882611_CustomAttributesCacheGenerator_UInt16_TryParse_m1818885113P21CustomAttributesCache
Eqe:_Enumerator_VerifyState_m3639069574_gshared
GBa:__ZN4crnd25static_huffman_data_model22prepare_decoder_tablesEv
qDe:_Enumerator_MoveNext_m689054299_gshared
lje:_Array_Sort_TisIl2CppObject_TisIl2CppObject_m1915706600_gshared
vnf:_ModulusRing_Difference_m662924064
xIh:_InternalEnumerator_1_MoveNext_m1869236997_gshared
xXd:_CanvasUpdateRegistry_ObjectValidForUpdate_m855695984
l4d:_InputField_set_onValueChanged_m2406388125
mbg:__ZL95Physics2D_t2540166467_CustomAttributesCacheGenerator_Physics2D_Raycast_m2303387255____maxDepth5P21CustomAttributesCache
mNe:_ReadOnlyCollection_1_System_Collections_ICollection_get_SyncRoot_m2702046016_gshared
kZ:__ZL22CleanupUnityWebStreamsPv
Lbg:__ZL92AudioSource_t1135106623_CustomAttributesCacheGenerator_AudioSource_Play_m889724421____delay0P21CustomAttributesCache
GPb:__Z18Transfer_BlittableI18StreamedBinaryReadILb0EELb0E10ColorRGBAfEvRK29SerializationCommandArgumentsR31RuntimeSerializationCommandInfo
TAf:_ListDictionary_Add_m4276262662
N7:__Znaj
_bd:_RIPEMD160Managed_GGG_m1639995340
G0j:_emscripten_glEnableClientState__wrapper
xZ:__ZN17MessageIdentifierC2EPKcNS_7OptionsEPKN5Unity4TypeES1_
yE:__Z76AnimatorControllerPlayable_CUSTOM_INTERNAL_CALL_CrossFadeInFixedTimeInternalR9HPlayableifif
uhh:_Enumerator_System_Collections_IEnumerator_get_Current_m1648049763_gshared
iLj:__ZN6il2cpp6icalls8mscorlib4Mono8Security12Cryptography18KeyPairPersistence15_ProtectMachineEP12Il2CppString
eae:_Enumerable_Any_TisIl2CppObject_m2208185096_gshared
VUh:__Z57RuntimeInvoker_DSAParameters_t1872138834_SByte_t454417549PK10MethodInfoPvPS2_
Aib:__ZN11GameManager15ThreadedCleanupEv
vze:_List_1__ctor_m1337392449_gshared
pod:_Array_System_Collections_IList_Remove_m2438892375
t6e:_TextWriter__ctor_m2225796097
Txi:__ZN21InterfaceFuncInvoker0IP24StringU5BU5D_t1642385972E6InvokeEjP11Il2CppClassP12Il2CppObject
xdb:__ZN14SafeBinaryRead8TransferI14ConstantStringEEvRT_PKc17TransferMetaFlags
nLi:_ScriptableObject_Internal_CreateScriptableObject_m1778903390
Hea:__ZNK6Camera16GetStereoEnabledEv
k2b:__ZN12LightManager15InitializeClassEv
Hfa:__ZN9ShaderLab11shaderprops16GetComputeBufferEPK19ShaderPropertySheetS3_NS_16FastPropertyNameE
G3:__ZN23ManagedAttributeManager35CallManagedGetDefaultExecutionOrderE17ScriptingClassPtr
ibc:__ZN18ScriptingArgumentsC2Ev
XVg:_TimeZone_IsDaylightSavingTime_m875882154
qCh:_ArrayReadOnlyList_1_Insert_m503707439_gshared
aYj:_emscripten_glBlendFuncSeparate__wrapper
MSh:__Z52RuntimeInvoker_Single_t2076509932_Decimal_t724701077PK10MethodInfoPvPS2_
ksf:_CipherSuiteCollection_System_Collections_IList_set_Item_m750275607
BTa:__ZNK25CameraStackRenderingState27GetStereoImageEffectTextureEb
idd:_SHA1CryptoServiceProvider__ctor_m3127563759
Tp:__ZN8Vector3f8TransferI14SafeBinaryReadEEvRT_
s9b:__ZN13BuildSettings13GetSceneIndexERKN4core12basic_stringIcNS0_20StringStorageDefaultIcEEEE
zsg:__ZL103BaseVertexEffect_t2504093552_CustomAttributesCacheGenerator_BaseVertexEffect_ModifyVertices_m3446986347P21CustomAttributesCache
Co:FUNCTION_TABLE_ii
hih:_Enumerator_MoveNext_m335649778_AdjustorThunk
qT:__ZNSt3__26__treeINS_12__value_typeIN4core12basic_stringIcNS2_20StringStorageDefaultIcEEEES6_EENS_19__map_value_compareIS6_S7_NS_4lessIS6_EELb1EEENS_9allocatorIS7_EEE16__construct_nodeERKNS_4pairIKS6_S6_EE
Qrc:__Z18Transfer_BlittableI9JSONWriteLb0E8BitFieldEvRK29SerializationCommandArgumentsR31RuntimeSerializationCommandInfo
rZg:_UInt32_ToString_m3894907091_AdjustorThunk
pTi:_Predicate_1__ctor_m2863314033_gshared
vWj:b44
JPd:_CultureInfo_get_TextInfo_m1582311326
S6b:__ZNK6Sprite15GenerateOutlineEfhbRNSt3__26vectorI13dynamic_arrayI8Vector2fLj4EENS0_9allocatorIS4_EEEEi
n6g:_GUIStyle_get_contentOffset_m1904924583
ggh:_ShimEnumerator_get_Key_m616785465_gshared
Chf:_SmallXmlParser_Error_m1832158746
XJf:_RepeatContext_get_IsLazy_m1620488045
Dk:_glDeleteVertexArrays
P9a:__Z24CreateDirectoryRecursiveRKN4core12basic_stringIcNS_20StringStorageDefaultIcEEEE
sWj:b41
TUb:__ZN9ShaderLab20SerializedSubProgram8TransferI18StreamedBinaryReadILb0EEEEvRT_
V5e:_StreamAsyncResult_get_AsyncWaitHandle_m4218169359
ahg:__ZL89GUIStyle_t1799908754_CustomAttributesCacheGenerator_GUIStyle_get_stretchWidth_m1223411161P21CustomAttributesCache
Blc:__Z22MonoGUIContentToNative18ScriptingObjectPtrR10GUIContent
F0a:__Z9EndJobSetR8JobFence11JobPriority
wme:_Array_InternalArray__get_Item_TisContactPoint2D_t3659330976_m825151777_gshared
n_c:__ZN2UI13CanvasManager9AddCanvasEPNS_6CanvasE
bqa:__ZN9Texture3D8TransferI19StreamedBinaryWriteILb0EEEEvRT_
PUa:__ZNK6Camera22CalculateRenderingPathEv
etc:__ZN9JSONWrite8TransferI5RectTIfEEEvRT_PKc17TransferMetaFlags
ju:__ZN11UnityEngine9Animation37SetGenericRootTransformPropertyValuesERKNS0_30AnimatorGenericBindingConstantERKN7mecanim10ValueArrayER9Transformbb
Vsi:_AnimatorControllerPlayable_INTERNAL_CALL_GetCurrentAnimatorClipInfoInternal_m3542665271
Qqf:_ContentInfo_get_Content_m1802070908
oJb:__ZL12InvokeMethodI17RemapPPtrTransferEvRK29SerializationCommandArgumentsR31RuntimeSerializationCommandInfo
_kf:_X509Certificate_get_PublicKey_m714501701
s6d:_U3CMouseDragOutsideRectU3Ec__Iterator1_System_Collections_IEnumerator_get_Current_m561728752
BRc:_tt_sbit_decoder_load_image
ykd:_String_LastIndexOf_m290475879
$yc:__ZN15b2DistanceJointD0Ev
jce:__ZN21InterfaceFuncInvoker1Ii22UILineInfo_t3621277874E6InvokeEjP11Il2CppClassP12Il2CppObjectS0_
m3d:_Image_get_layoutPriority_m2151045813
Cpj:__ZN15dense_hashtableINSt3__24pairIK10KeyWrapperIP11Il2CppClassES4_EES5_N6il2cpp8metadata16SZArrayClassHashEN14dense_hash_mapIS5_S4_SA_NS5_14EqualsComparerINS9_19SZArrayClassCompareEEENS0_9allocatorIS7_EEE9SelectKeyESE_SG_EC2EjRKSA_RKSE_RKSI_
TZf:__ZL58ManualResetEvent_t926074657_CustomAttributesCacheGeneratorP21CustomAttributesCache
L9h:__Z71RuntimeInvoker_Void_t1841601450_CornerU26_t4129226442_Int32_t2071877448PK10MethodInfoPvPS2_
j7e:_TextReader_Read_m975794707
Tlc:__ZNSt3__24listIN10GUIManager12SortedScriptE11memory_poolIS2_EE6__sortI13OldSortScriptEENS_15__list_iteratorIS2_PvEESA_SA_jRT_
BZg:_UInt64_System_IConvertible_ToChar_m1930853313_AdjustorThunk
ovf:_TlsClientCertificate_SendCertificates_m1096074091
RVd:_UIBehaviour_OnCanvasHierarchyChanged_m762109874
gAd:_SyncHashtable_get_Item_m408601391
tXf:__ZL45DSA_t903174880_CustomAttributesCacheGeneratorP21CustomAttributesCache
pPe:_ReadOnlyCollection_1_System_Collections_IEnumerable_GetEnumerator_m1401363518_gshared
bdb:__ZNK9Behaviour26GetTypeInfoVirtualInternalEv
wDe:_Stack_1_System_Collections_ICollection_CopyTo_m2104527616_gshared
LQg:_StringBuilder_AppendFormat_m1666670800
Y_a:__ZN18DeferredRenderLoop13RenderGBufferEP13RenderTexturePS1_b8JobFencePK25DeferredRenderLoopScratchRi
XIb:__Z18Transfer_BlittableI17RemapPPtrTransferLb1E8BitFieldEvRK29SerializationCommandArgumentsR31RuntimeSerializationCommandInfo
orj:__ZN6il2cpp6icalls8mscorlib6System9ThreadingL11ThreadStartEPv
F$:__ZN15DirectorManager12OnSampleTimeEv
HRe:_ReadOnlyCollection_1_System_Collections_IList_Remove_m3878418841_gshared
q4d:_InputField_EnforceContentType_m1902926812
iA:__ZN8Animator13ClearBindingsEv
eea:__ZN12CachedReader10Align4ReadEv
REc:__ZN15b2WorldManifold10InitializeEPK10b2ManifoldRK11b2TransformfS5_f
DMe:_Collection_1_CopyTo_m42272870_gshared
G3h:__Z154RuntimeInvoker_RaycastHit2D_t4063908774_Vector2_t2243707579_Vector2_t2243707579_Single_t2076509932_Int32_t2071877448_Single_t2076509932_Single_t2076509932PK10MethodInfoPvPS2_
Jsj:__ZN6il2cpp2vm9Exception28GetMarshalDirectiveExceptionEPKc
Faf:_MulticastDelegate_GetObjectData_m3187757658
YWd:_CanvasScaler_set_referencePixelsPerUnit_m1188599784
pSe:_ReadOnlyCollection_1_System_Collections_IList_get_Item_m887129009_gshared
uUe:_Comparison_1_EndInvoke_m179917407_gshared
A$b:__ZNK28MonoBehaviourPropertyBinding12SetPPtrValueERKN11UnityEngine9Animation10BoundCurveEi
cWa:__Z21GetScriptingArraySize17ScriptingArrayPtr
$Kc:__ZN20TextRenderingPrivate8FontImpl8TransferI14SafeBinaryReadEEvRT_
j9h:__Z59RuntimeInvoker_Boolean_t3825574718_KeyValuePair_2_t38854645PK10MethodInfoPvPS2_
GEi:__ZN23InterfaceActionInvoker1IP19LinkRef_t2090853131E6InvokeEjP11Il2CppClassP12Il2CppObjectS1_
hia:__Z35UnityPropertySheet_MakeSortedColorsRKNSt3__23mapIN9ShaderLab16FastPropertyNameE10ColorRGBAfNS_4lessIS2_EENS_9allocatorINS_4pairIKS2_S3_EEEEEER10vector_mapIS2_S3_S5_NS6_INS7_IS2_S3_EEEEE
s5g:_GUIStyle_Draw_m4006459684
qwa:__ZN9GfxDevice17ImmediateTexCoordEifff
uDi:_Parser_ParseRegularExpression_m2390577313
fTc:_ft_black_new
ODc:__ZN10ClipperLib7Clipper13AppendPolygonEPNS_5TEdgeES2_
Vpd:_Array_double_swapper_m1175307080
P6f:__ZL102GameObject_t1756533147_CustomAttributesCacheGenerator_GameObject_Internal_CreateGameObject_m3428198595P21CustomAttributesCache
DEi:_Alternation_AddAlternative_m623421443
yHf:_X509CertificateEnumerator_System_Collections_IEnumerator_Reset_m327358896
Jfi:__Z36RuntimeInvoker_Enumerator_t402048720PK10MethodInfoPvPS2_
Igd:_Hash__ctor_m2554411450
xWe:_NumberFormatter_AppendDigits_m1308372770
pgb:__ZN17FileSystemHandler4CopyER13FileEntryDataS1_
pid:_Single_System_IConvertible_ToDateTime_m2510003459_AdjustorThunk
kLd:_Delegate_RemoveImpl_m3666700529
WVj:_emscripten_glUniform4f__wrapper
lBf:_NameObjectCollectionBase_OnDeserialization_m3478980442
pii:_AnimatorControllerParameter_get_name_m1366583724
c4d:_InputField_set_caretColor_m2252440840
aB:__ZN8Animator8TransferI19StreamedBinaryWriteILb0EEEEvRT_
yXa:__ZNK6Camera16GetProjectionFarEv
$3a:__Z24InverseTransformRotationRK23TransformAccessReadOnlyRKN4math7_float4E
OYf:__ZL68SecurityCriticalAttribute_t2312050089_CustomAttributesCacheGeneratorP21CustomAttributesCache
D8e:_MissingFieldException__ctor_m1161042282
dde:_Array_InternalArray__IndexOf_TisSlot_t2267560602_m1912863273_gshared
k9c:__Z31GetPerformanceReportingSettingsv
gqa:__ZN7Texture34CreateFileTextureUploadInstructionE18TextureUploadFlagsj
yMi:_StateMachineBehaviour_OnStateExit_m1490844990
ewa:__ZN9GfxDevice21ResetDynamicResourcesEv
YRa:__ZN13ComputeShader14SetBufferParamEjRKN9ShaderLab16FastPropertyNameE15ComputeBufferID
vLj:__ZN6il2cpp2os9FastMutex4LockEv
SUe:_Comparison_1_EndInvoke_m4174686984_gshared
Dzg:_StreamingContext__ctor_m3063421596_AdjustorThunk
uRe:_ReadOnlyCollection_1_System_Collections_Generic_IListU3CTU3E_Insert_m3054305464_gshared
d$b:__ZN19LowerResBlitTexture13ApplySettingsEv
QMf:__ZL70IntPtr_t_CustomAttributesCacheGenerator_IntPtr_op_Explicit_m3896766622P21CustomAttributesCache
TA:__ZN8Animator8TransferI14SafeBinaryReadEEvRT_
mpj:__ZN15dense_hashtableINSt3__24pairIK10KeyWrapperIP11Il2CppClassES4_EES5_N6il2cpp8metadata16SZArrayClassHashEN14dense_hash_mapIS5_S4_SA_NS5_14EqualsComparerINS9_19SZArrayClassCompareEEENS0_9allocatorIS7_EEE9SelectKeyESE_SG_E4swapERSJ_
Nhb:__ZN17GlobalGameManager23VirtualRedirectTransferER18StreamedBinaryReadILb0EE
ude:_Array_InternalArray__IndexOf_TisTypeTag_t141209596_m2882894956_gshared
Byh:_Slider_get_value_m4182660424
Dxc:__ZNK14b2CapsuleShape5CloneEP16b2BlockAllocator
gx:__ZN17AnimationPlayable34CollectAnimatorControllerPlayablesER13dynamic_arrayIP26AnimatorControllerPlayableLj4EE
mP:__ZN16BaseVideoTexture19UpdateVideoTexturesEv
mlb:__Z28BuildSingleStreamChannelInfo17ShaderChannelMaskRK20VertexChannelsLayoutS_S2_P11ChannelInfo
F3h:__Z79RuntimeInvoker_RaycastHit2D_t4063908774_Vector2_t2243707579_Vector2_t2243707579PK10MethodInfoPvPS2_
Loa:__ZNK16LightmapSettings23HasLightProbeTetrahedraEv
Buf:_Context_get_WriteSequenceNumber_m243492531
Vrb:__ZN6Sprite23VirtualRedirectTransferER19StreamedBinaryWriteILb0EE
CSf:__ZL51Assembly_t4268412390_CustomAttributesCacheGeneratorP21CustomAttributesCache
qkd:_String_LastIndexOfAny_m1473637802
Bjc:__Z38Transform_CUSTOM_INTERNAL_set_positionP12Il2CppObjectRK8Vector3f
Lve:_List_1_System_Collections_ICollection_CopyTo_m3062449209_gshared
Nij:__ZNK15dense_hashtableINSt3__24pairIK10KeyWrapperINS1_IPK9FieldInfoP11Il2CppClassEEEjEES9_17ReflectionMapHashIS8_EN14dense_hash_mapIS9_jSD_NS9_14EqualsComparerINS0_8equal_toIS8_EEEENS0_9allocatorISB_EEE9SelectKeyESI_SK_E5beginEv
Zfa:__ZNK9ShaderLab7Program19HasMatchingVariantsERK13dynamic_arrayI16ShaderKeywordSetLj4EE
qt:__ZN15SerializeTraitsIN4math4trsXEE8TransferI8BlobSizeEEvRS1_RT_
Fza:__ZN14DataBufferGLES11CopySubDataEPKS_jjj
me:_emscripten_glVertexPointer
VIa:__ZNSt3__26__treeI20DeviceDepthStateGLES11memcmp_lessIS1_S1_ENS_9allocatorIS1_EEE7destroyEPNS_11__tree_nodeIS1_PvEE
b0c:__ZN2UI13PrepareOutputERNS_7BatchesEjjNS_30AdditionalCanvasShaderChannelsE
Yte:_List_1_System_Collections_Generic_ICollectionU3CTU3E_get_IsReadOnly_m1614481629_gshared
Wbj:__ZN6il2cpp2vm7Runtime47RaiseExecutionEngineExceptionIfMethodIsNotFoundEPK10MethodInfo
F_a:__Z17GetFrustumPortionPK8Vector3fffPS_
Q_g:_UnauthorizedAccessException__ctor_m259001183
ouj:__ZN15dense_hashtableINSt3__24pairIK10KeyWrapperIP14Il2CppIUnknownEjEES5_N6il2cpp5utils11PointerHashIS3_EEN14dense_hash_mapIS5_jSB_NS5_14EqualsComparerINS0_8equal_toIS4_EEEENS0_9allocatorIS7_EEE9SelectKeyESG_SI_E14squash_deletedEv
dOi:_TouchScreenKeyboard_set_text_m3456054179
oF:__Z96Register_UnityEngine_Experimental_Director_AnimatorControllerPlayable_INTERNAL_CALL_PlayInternalv
SZd:_DefaultControls_CreateDropdown_m1384069408
NTd:_PointerEventData_get_clickCount_m4064532478
RPe:_ReadOnlyCollection_1_System_Collections_Generic_ICollectionU3CTU3E_get_IsReadOnly_m3508872969_gshared
ZNd:_EventArgs__cctor_m1350395667
Lch:_Rect_get_position_m24550734_AdjustorThunk
aWi:_UnityEvent_1_GetDelegate_m4062537313_gshared
DOd:_CCGregorianCalendar_is_leap_year_m567513478
YEf:_Oid_get_Value_m2271181078
uqd:_Attribute_IsDefined_m2118467641
oSa:__ZN14GraphicsHelper8DrawQuadER9GfxDevice17ShaderChannelMaskbRK5RectTIfE
Kif:_PrivateKeyInfo_Normalize_m3959595934
tDh:_InternalEnumerator_1_System_Collections_IEnumerator_get_Current_m3125080595_gshared
dKe:_Collection_1_System_Collections_IList_Add_m2091889616_gshared
O5b:__ZN16StreamedResource8TransferI24GenerateTypeTreeTransferEEvRT_
rzc:__ZN11b2GearJoint4DumpEv
m$d:_DropdownItem_OnPointerEnter_m761897861
a4h:__Z75RuntimeInvoker_Int32_t2071877448_PlayableHandleU26_t3483893774_Il2CppObjectPK10MethodInfoPvPS2_
_Fa:__ZN10Matrix3x3f15InvertTransposeEv
Ygj:__ZNSt3__213__vector_baseIN6il2cpp2vm17TypeNameParseInfoENS_9allocatorIS3_EEED2Ev
k9d:_Array_InternalArray__ICollection_Remove_TisKeyValuePair_2_t1174980068_m2768765894_gshared
OAb:__ZN24GenerateTypeTreeTransfer8TransferINSt3__26vectorIN4core12basic_stringIcNS3_20StringStorageDefaultIcEEEE13stl_allocatorIS7_L18MemLabelIdentifier12ELi16EEEEEEvRT_PKc17TransferMetaFlags
NHe:_Collection_1_set_Item_m2199807215_gshared
L6f:__ZL96GameObject_t1756533147_CustomAttributesCacheGenerator_GameObject_SendMessage_m71956653____value1P21CustomAttributesCache
gIb:__Z29Transfer_Blittable_ArrayFieldI14SafeBinaryRead8Vector3fEvRT_R9ArrayInfoRK23StaticTransferFieldInfo
DYg:_UInt32_System_IConvertible_ToBoolean_m91295134
iTg:_Monitor_Monitor_test_synchronised_m1542589500
D6f:__ZL85GameObject_t1756533147_CustomAttributesCacheGenerator_GameObject_get_layer_m725607808P21CustomAttributesCache
Oig:__ZL68RuntimePlatform_t1869584967_CustomAttributesCacheGenerator_WP8PlayerP21CustomAttributesCache
VLc:__ZN20TextRenderingPrivate8FontImpl18ResetCachedTextureEv
jMf:__ZL75String_t_CustomAttributesCacheGenerator_String_Concat_m626692867____values0P21CustomAttributesCache
M6f:__ZL98GameObject_t1756533147_CustomAttributesCacheGenerator_GameObject_SendMessage_m71956653____options2P21CustomAttributesCache
xjf:_SymmetricTransform_TransformFinalBlock_m4192185386
AYe:_TextInfo__ctor_m1263401274
t$g:_Version_get_Major_m3385239713
ZXi:_ListPool_1_Release_m3047738410_gshared
bOi:_TouchScreenKeyboard_Open_m913506328
xGj:_GC_print_finalization_stats
puf:_Context_get_SecurityProtocolFlags_m3295551796
Mih:_ValueCollection__ctor_m927733289_gshared
Qea:__ZN11NamedObject15ThreadedCleanupEv
MAc:__ZNK12b2WheelJoint10GetAnchorBEv
dji:_LowMemoryCallback__ctor_m4181659636
dJh:_InternalEnumerator_1__ctor_m2981879621_AdjustorThunk
gdc:__Z53Register_UnityEngine_Behaviour_get_isActiveAndEnabledv
bDb:__ZNK13MonoBehaviour26GetTypeInfoVirtualInternalEv
Rqh:_EqualityComparer_1__ctor_m3971803374_gshared
xq:__ZNSt3__26vectorIN4core12basic_stringIcNS1_20StringStorageDefaultIcEEEENS_9allocatorIS5_EEE8__appendEj
hfj:_il2cpp_gc_collect
gzb:__ZN26PlayerSettingsSplashScreen8TransferI17RemapPPtrTransferEEvRT_
FLc:__ZN20TextRenderingPrivate8FontImpl8TransferI17RemapPPtrTransferEEvRT_
WGh:_InternalEnumerator_1_get_Current_m3922357178_gshared
Hcj:__ZN6il2cpp6icalls8mscorlib6SystemL17CollectTypeFieldsINS_5utils10functional10TrueFilterEEEvP11Il2CppClassPKS7_iRNSt3__26vectorIP9FieldInfoNSB_9allocatorISE_EEEERKT_
nng:__ZL72ColorBlock_t2652774230_CustomAttributesCacheGenerator_m_HighlightedColorP21CustomAttributesCache
nWg:_Type_get_IsValueType_m1733572463
W3g:_GUISkin_get_horizontalScrollbarThumb_m4062590908
tZb:__Z13GetTagManagerv
iEh:_InternalEnumerator_1_Dispose_m1748410190_AdjustorThunk
WVh:__Z127RuntimeInvoker_Void_t1841601450_IntPtr_t_Int32_t2071877448_SByte_t454417549_Int32_t2071877448_SByte_t454417549_SByte_t454417549PK10MethodInfoPvPS2_
M9d:_Array_InternalArray__ICollection_Remove_TisUInt16_t986882611_m65494986_gshared
iQe:_ReadOnlyCollection_1_IndexOf_m3054637117_gshared
iu:__ZN11UnityEngine9Animation37HasGenericRootTransformPropertyValuesERKNS0_30AnimatorGenericBindingConstantEb
nQ:__ZN11UnityEngine15CloudWebService17CloudJobSchedulerD0Ev
ljd:_String_System_IConvertible_ToBoolean_m2696751322
nna:__ZN18LoadSceneOperation7PerformEv
P1g:_GUILayer_INTERNAL_CALL_HitTest_m693512502
vG:__ZL16FMOD_ErrorString11FMOD_RESULT_468
tkd:_String_LastIndexOfAny_m4281325295
MDc:__ZN10ClipperLib7Clipper14IntersectEdgesEPNS_5TEdgeES2_RNS_8IntPointE
VE:__Z113Register_UnityEngine_Experimental_Director_AnimatorControllerPlayable_INTERNAL_CALL_GetAnimatorControllerInternalv
lmc:__Z21CleanupGlobalGUIStatev
RUg:_TimeSpan__ctor_m1888018443_AdjustorThunk
bAd:_SyncHashtable_get_Count_m3694444082
$gj:__ZNSt3__26vectorINS_12basic_stringIcNS_11char_traitsIcEENS_9allocatorIcEEEENS4_IS6_EEE8allocateEj
tHa:__ZN22VertexDeclarationCache5ClearEv
z$j:_emscripten_glUniform2i__wrapper
N7a:__ZN17PersistentManager12SetPathRemapERKN4core12basic_stringIcNS0_20StringStorageDefaultIcEEEES6_
j0a:__ZN6Camera24PrepareCullingParametersERK23CameraCullingParameters13RenderingPathR11CullResults
zna:__ZN19RuntimeSceneManager22EndIntegrateMainThreadEP10UnitySceneNS_11LoadingModeE
vYf:__ZL84Evidence_t1407710183_CustomAttributesCacheGenerator_Evidence_GetHashCode_m1260371757P21CustomAttributesCache
$Pe:_ReadOnlyCollection_1_System_Collections_ICollection_get_IsSynchronized_m2344337514_gshared
qJb:__Z26Transfer_UnityEngineObjectI17RemapPPtrTransferLb0EEvRK29SerializationCommandArgumentsR31RuntimeSerializationCommandInfo
Akd:_String_IsNullOrEmpty_m2802126737
ftd:_Byte_Parse_m1442736478
Sxa:__ZN13GfxDeviceGLES15OnDeviceCreatedEb
w0e:_Int64_Parse_m3258022240
kkd:_String_IndexOfOrdinal_m3591623977
KNi:_Texture2D_get_whiteTexture_m1979591766
CBg:_CryptoConfig_EncodeLongNumber_m2352037787
UWg:_Type_GetMethod_m475234662
Xid:_Single_GetHashCode_m3102305584
Vne:_KeyValuePair_2__ctor_m1877755778_AdjustorThunk
Dwi:_ActivationServices_get_ConstructionActivator_m1726426854
nLb:__Z29Transfer_Blittable_ArrayFieldI24GenerateTypeTreeTransfer4AABBEvRT_R9ArrayInfoRK23StaticTransferFieldInfo
Z_f:__ZL76Convert_t2607082565_CustomAttributesCacheGenerator_Convert_ToChar_m245844937P21CustomAttributesCache
s_f:__ZL52Activator_t1850728717_CustomAttributesCacheGeneratorP21CustomAttributesCache
zHj:_GC_adj_bytes_allocd
ezh:_SpriteState_t1353336012_marshal_pinvoke_cleanup
Vee:_Array_InternalArray__ICollection_Add_TisKeyframe_t1449471340_m887263954_gshared
fPi:_UIVertex__cctor_m803910084
tge:_Array_InternalArray__Insert_TisDateTime_t693205669_m1484996356_gshared
Rve:_List_1_System_Collections_IList_Remove_m3933652540_gshared
Onh:_DefaultComparer_GetHashCode_m926674183_gshared
g5e:_MonoIO_get_ConsoleInput_m2976499023
KKg:_OpCode_get_Size_m481593949_AdjustorThunk
xxd:_BitArrayEnumerator_checkVersion_m3839504595
Kod:_Array_GetUpperBound_m1352329707
gOa:__ZZ23InitPlayerLoopCallbacksvEN36UpdateScriptRunBehaviourUpdatestruct7ForwardEv
ple:_Mesh_SetListForChannel_TisIl2CppObject_m2261448912_gshared
n0h:__Z61RuntimeInvoker_Void_t1841601450_Byte_t3683104436_Il2CppObjectPK10MethodInfoPvPS2_
Xjd:_String_TrimEnd_m3153143011
HId:_DateTimeOffset_Equals_m3728302791_AdjustorThunk
F6g:_GUIStyleState_t3801000545_marshal_pinvoke_back
q_a:__ZN20SphericalHarmonicsL219AddDirectionalLightERKN4math7_float3ERKNS0_7_float4E
OVg:_TimeSpan_op_GreaterThanOrEqual_m3997050520
Q$f:__ZL77Convert_t2607082565_CustomAttributesCacheGenerator_Convert_ToUInt16_m36213644P21CustomAttributesCache
u$:__Z26ScheduleJobForEachInternalR8JobFencePFvPvjES1_iPFvS1_E11JobPriority
hFf:_OidEnumerator_MoveNext_m1889267785
F9b:__ZN9Scripting18RaiseMonoExceptionEPKcz
Iob:__ZN9Texture2D8TransferI19StreamedBinaryWriteILb0EEEEvRT_
iCb:__ZN24RingBufferMemoryFileData6UnlockEPv
z3g:_GUISkin_set_box_m877476512
p$d:_OptionData__ctor_m3070653720
OXi:_TweenRunner_1_StartTween_m3792842064_gshared
J2b:__ZN9ShaderLab16FastPropertyName15InitBy28BitHashEj
xid:_Single_System_IConvertible_ToInt32_m3269519527_AdjustorThunk
H$i:__ZN6il2cpp2vm5Class7GetNameEP11Il2CppClass
odd:_SHA1Internal_ProcessBlock_m4070037334
hJj:__ZN6il2cpp6icalls8mscorlib6System10Reflection14MonoMethodInfo15get_method_infoE12Il2CppIntPtrP16Il2CppMethodInfo
k7f:__ZL87RectOffset_t3387826427_CustomAttributesCacheGenerator_RectOffset_get_bottom_m4112328858P21CustomAttributesCache
whe:_Array_InternalArray__set_Item_TisDouble_t4078015681_m24756265_gshared
cvg:_ObjRef_GetObjectData_m3081609242
I$b:__ZN13ProduceHelperIN2UI13RectTransformELb0EE7ProduceE18MemLabelIdentifier18ObjectCreationMode
_tb:__ZN17PackedFloatVector12UnpackFloatsEPfiiii
dZf:__ZL113EncoderReplacementFallback_t4228544112_CustomAttributesCacheGenerator_EncoderReplacementFallback__ctor_m517300448P21CustomAttributesCache
xNe:_ReadOnlyCollection_1__ctor_m3671019970_gshared
Iv:__ZN17AnimationPlayable28UpdateInternalStateRecursiveILi3ELb0EEEvPK35AnimationPlayableEvaluationConstant
jxa:__ZN13GfxDeviceGLES21DestroyComputeProgramER12ObjectHandleI18ComputeProgram_TagPvE
NDd:_Convert_ToDecimal_m2007036836
o7:__ZN17UniqueIDGenerator16DestroyPureIndexEj
S3:__ZL21AppendNestedClassName17ScriptingClassPtrRN4core17string_with_labelILi1EEE
NSb:__ZN14SafeBinaryRead21TransferSTLStyleArrayINSt3__26vectorIN9ShaderLab20SerializedSubProgram12UAVParameterENS1_9allocatorIS5_EEEEEEvRT_17TransferMetaFlags
Kyi:_Context_NotifyDynamicSinks_m1367144344
bV:__ZNK13BaseAllocator10IsAssignedEv
wR:__ZN24TextDOMTransferWriteBaseI9JSONWriteE12PushMetaFlagEi
VPh:__Z45RuntimeInvoker_Int16_t4041245914_Il2CppObjectPK10MethodInfoPvPS2_
ctf:_TlsClientCertificateVerify__ctor_m110646389
Ela:__ZN6prcoreL26RemapGenericIntegerToFloatI17TexFormatARGB888815TexFormatRFloatEEvPKNS_9InnerInfoE
TU:__ZN5Mutex6UnlockEv
Tyi:_Context_GetServerContextSinkChain_m390126977
Ogj:__ZN6il2cpp2vm17TypeNameParseInfoD2Ev
rje:_Array_Sort_TisIl2CppObject_m143182644_gshared
Ngg:__ZL89GUIStyle_t1799908754_CustomAttributesCacheGenerator_GUIStyle_set_imagePosition_m327170707P21CustomAttributesCache
O6e:_StringReader_Read_m513112775
qqb:__ZNK8Renderer8GetLayerEv
MDe:_Collection_1_System_Collections_IList_Insert_m266942173_gshared
kkb:__ZN12FlareManager11DeleteFlareEi
pFe:_Collection_1_Add_m2613548553_gshared
bA:__ZN7mecanim9animation22DestroyBlendTreeOutputEPNS0_15BlendTreeOutputERNS_6memory9AllocatorE
LWa:__ZNK6Camera20GetReplacementShaderEv
DXj:_glProgramBinary__wrapper
rJd:_Decimal__ctor_m569480123_AdjustorThunk
GLa:__ZN12HandlerChain11MoveToTrashER13FileEntryData
uCf:_HttpWebRequest__cctor_m3013631978
FKj:__ZNSt3__26__treeINS_12__value_typeINS_12basic_stringIcNS_11char_traitsIcEENS_9allocatorIcEEEEPFvvEEENS_19__map_value_compareIS7_SA_NS_4lessIS7_EELb1EEENS5_ISA_EEE4findIS7_EENS_15__tree_iteratorISA_PNS_11__tree_nodeISA_PvEEiEERKT_
VSb:__ZNSt3__26vectorIN9ShaderLab20SerializedSubProgram14ConstantBufferENS_9allocatorIS3_EEE7reserveEj
tpa:__ZL23stbir__calculate_memoryP11stbir__info
h1h:__Z90RuntimeInvoker_Boolean_t3825574718_Int32_t2071877448_Int32U26_t455636984_Int32_t2071877448PK10MethodInfoPvPS2_
fkj:__ZNK15dense_hashtableINSt3__24pairIK10KeyWrapperINS1_IPK10MethodInfoP11Il2CppClassEEEjEES9_17ReflectionMapHashIS8_EN14dense_hash_mapIS9_jSD_NS9_14EqualsComparerINS0_8equal_toIS8_EEEENS0_9allocatorISB_EEE9SelectKeyESI_SK_E12test_deletedERK24dense_hashtable_iteratorISB_S9_SD_SM_SI_SK_E
lRf:__ZL90BinaryReader_t2491843768_CustomAttributesCacheGenerator_BinaryReader_ReadSByte_m1712621355P21CustomAttributesCache
rvh:_Scrollbar_FindSelectableOnRight_m3219495255
hAb:__ZNK30RuntimeInitializeOnLoadManager26GetTypeInfoVirtualInternalEv
E_c:__ZNSt3__227__insertion_sort_incompleteIRPFbPN2UI6CanvasES3_EPS3_EEbT0_S8_T_
iwc:__ZNK9rapidjson12GenericValueINS_4UTF8IcEE13JSONAllocatorE6AcceptINS_12PrettyWriterI16TempBufferWriterS2_S2_S3_EEEEbRT_
r6h:__Z55RuntimeInvoker_AnalyticsResult_t3037633135_Il2CppObjectPK10MethodInfoPvPS2_
dge:_Array_InternalArray__ICollection_CopyTo_TisVector3_t2243707580_m509487340_gshared
$pc:__Z59Register_UnityEngine_GUIUtility_Internal_GetKeyboardControlv
Grf:_CipherSuite_get_KeyBlockSize_m2993514247
TE:__Z82AnimatorControllerPlayable_CUSTOM_INTERNAL_CALL_IsParameterControlledByCurveStringR9HPlayableP12Il2CppString
muc:__ZL26Transfer_SimpleNativeClassI8JSONRead10RectOffsetLb1EEvRK29SerializationCommandArgumentsR31RuntimeSerializationCommandInfo
M1c:__Z44CanvasRenderer_CUSTOM_INTERNAL_CALL_SetColorP12Il2CppObjectRK10ColorRGBAf
_Fj:_GC_should_collect
Rwi:_UrlAttribute_Equals_m1587451932
fCj:__ZNSt3__26__treeINS_12basic_stringIcNS_11char_traitsIcEENS_9allocatorIcEEEENS_4lessIS6_EENS4_IS6_EEE12__find_equalIS6_EERPNS_16__tree_node_baseIPvEESG_RKT_
Drc:__Z18Transfer_BlittableI9JSONWriteLb1EsEvRK29SerializationCommandArgumentsR31RuntimeSerializationCommandInfo
EDc:__ZN10ClipperLib8JoinHorzEPNS_5OutPtES1_S1_S1_NS_8IntPointEb
X4c:__Z48UnityAnalyticsHandler_CUSTOM_SendCustomEventNameP12Il2CppObjectP12Il2CppString
ECg:_DSAParameters_t1872138834_marshal_pinvoke_cleanup
Sea:__ZN6ObjectD2Ev
Zbc:__ZN9Transform16SetLocalRotationERK11Quaternionf
GCd:_DateTime_Parse_m1628430317
RQa:__ZN13RenderManager37RenderCamerasWithScriptableRenderLoopEi
_ff:_ASN1_Element_m2600236165
OY:__GLOBAL__sub_I_runtime_graphics5_lump_cpp
C8:__ZN23InstancedPropInfoStaticL16RegisterCallbackEPv
ofi:__Z37RuntimeInvoker_Enumerator_t2983962278PK10MethodInfoPvPS2_
At:__ZN7mecanim8skeleton25SkeletonPoseComputeLocalQEPKNS0_8SkeletonEPKNS0_13SkeletonPoseTIN4math4trsXEEEPS7_ii
oBi:_MethodCall_Init_m3987198685
hxj:__ZN6il2cpp2os19ReleaseSocketHandleEj
sYf:__ZL59ApplicationTrust_t3968282840_CustomAttributesCacheGeneratorP21CustomAttributesCache
EPf:__ZL128SafeHandleZeroOrMinusOneIsInvalid_t1177681199_CustomAttributesCacheGenerator_SafeHandleZeroOrMinusOneIsInvalid__ctor_m3340306667P21CustomAttributesCache
rDj:__ZN15dense_hashtableINSt3__24pairIK10KeyWrapperIPK19Il2CppGenericMethodEP10MethodInfoEES6_N6il2cpp8metadata23Il2CppGenericMethodHashEN14dense_hash_mapIS6_S9_SD_NS6_14EqualsComparerINSC_26Il2CppGenericMethodCompareEEENS0_9allocatorISA_EEE9SelectKeyESH_SJ_E5clearEv
bLg:_TypeBuilder_GetPropertyImpl_m1854119335
DGg:_TypeBuilder_get_next_table_index_m1415870184
rSj:___cxa_can_catch
gof:_SequentialSearchPrimeGeneratorBase_GenerateNewPrime_m296245934
kud:_Char_GetUnicodeCategory_m4273361321
l9h:__Z68RuntimeInvoker_Boolean_t3825574718_Il2CppObject_ObjectU26_t597476745PK10MethodInfoPvPS2_
dXa:__ZN6Camera28DefaultPerformRenderFunctionD0Ev
r8e:_Math_Round_m565516458
Byi:_Identity_get_ClientDynamicProperties_m767245959
rDh:_InternalEnumerator_1__ctor_m675130983_AdjustorThunk
Rjh:_Dictionary_2_Clear_m899854001_gshared
Bzj:__ZN6il2cpp2os5posix15PosixWaitObjectC2ENS2_4TypeE
KBb:__Z23AppendPathNameExtensionRKN4core12basic_stringIcNS_20StringStorageDefaultIcEEEES5_
Geg:__ZL83Canvas_t209405766_CustomAttributesCacheGenerator_Canvas_get_scaleFactor_m1115379735P21CustomAttributesCache
UKg:_TypeBuilder_create_generic_class_m986834171
a1i:__ZL24UnresolvedVirtualCall_34P12Il2CppObjectS0_PK10MethodInfo
TXj:_emscripten_glVertexPointer__wrapper
wsa:__ZN23ShaderVariantCollection13WarmupShadersEv
ouf:_Context_set_ProtocolNegotiated_m1177527245
Ssi:_AnimatorControllerPlayable_INTERNAL_CALL_GetAnimatorTransitionInfoInternal_m2259454958
HYg:_UInt32_System_IConvertible_ToChar_m1056040486
z3:__Z25GetCommonScriptingClassesv
Xzf:_TlsStream_get_Length_m1562309511
Pna:__Z27scripting_gc_collect_unsafei
XO:__ZN11AudioModule20SuspendVideoTexturesEv
Axd:_CaseInsensitiveComparer__ctor_m1125492797
f2b:__ZN12CubemapArrayC2E18MemLabelIdentifier18ObjectCreationMode
lCd:_Convert_ToByte_m395020137
MKb:__Z26Transfer_UnityEngineObjectI24GenerateTypeTreeTransferLb0EEvRK29SerializationCommandArgumentsR31RuntimeSerializationCommandInfo
vWc:_UNITY_FT_GlyphLoader_CheckPoints
Cye:_List_1_System_Collections_ICollection_CopyTo_m1995866425_gshared
oBc:__ZN16b2PolygonContact7DestroyEP9b2ContactP16b2BlockAllocator
B7e:_TextWriter_WriteLine_m1754475888
gkb:__ZN15SharedLightData7PrecalcEv
yoa:__ZN10Matrix4x4fmLERKS_
VTi:_InvokableCall_1_Invoke_m769918017_gshared
Vp:__ZN4PPtrI9TransformE8TransferI18StreamedBinaryReadILb0EEEEvRT_
Yle:_Array_InternalArray__get_Item_TisDouble_t4078015681_m2215331088_gshared
BYf:__ZL57PrincipalPolicy_t289802916_CustomAttributesCacheGeneratorP21CustomAttributesCache
Xdb:__ZN19StreamedBinaryWriteILb0EE19TransferSTLStyleMapINSt3__28multimapIN4core12basic_stringIcNS4_20StringStorageDefaultIcEEEEN11AssetBundle9AssetInfoENS2_4lessIS8_EENS2_9allocatorINS2_4pairIKS8_SA_EEEEEEEEvRT_17TransferMetaFlags
XIe:_Collection_1_ClearItems_m3446813399_gshared
Jjh:_Dictionary_2_Init_m3666073812_gshared
Uze:_List_1_AsReadOnly_m1681105545_gshared
JMa:__ZN15ArchiveReadFileD0Ev
qjf:_SymmetricTransform_TransformBlock_m1524716432
x8:__ZN18ConcurrentFreeListI28FileTextureUploadInstructionE7CleanUpEv
$be:_Array_compare_TisColor32_t874517518_m3842009370_gshared
s6c:__ZN11UnityEngine15PlatformWrapper18GetOperatingSystemEv
ACa:__ZNSt3__26vectorIP14DataBufferGLESNS_9allocatorIS2_EEE21__push_back_slow_pathIKS2_EEvRT_
pLh:_InternalEnumerator_1__ctor_m2458691472_AdjustorThunk
BSe:_ReadOnlyCollection_1_System_Collections_Generic_ICollectionU3CTU3E_Remove_m974176789_gshared
QKd:_Delegate_return_type_match_m4278947849
S5d:_InputField_GenerateHightlight_m1346735465
MGi:_Uri_ParseNoExceptions_m1151989845
EBd:_GC_SuppressFinalize_m953228702
rWc:_FT_MSB
Ryf:_InternalAsyncResult_get_ProceedAfterHandshake_m552962842
l6g:_GUIStyle_get_clipping_m2754700641
Upj:__ZN15dense_hashtableINSt3__24pairIK10KeyWrapperINS1_IP11Il2CppClassjEEES4_EES6_N6il2cpp8metadata14ArrayClassHashEN14dense_hash_mapIS6_S4_SB_NS6_14EqualsComparerINSA_17ArrayClassCompareEEENS0_9allocatorIS8_EEE9SelectKeyESF_SH_E3endEv
MZh:__Z50RuntimeInvoker_SByte_t454417549_Double_t4078015681PK10MethodInfoPvPS2_
kgg:__ZL72GUISkin_t1436893342_CustomAttributesCacheGenerator_m_verticalSliderThumbP21CustomAttributesCache
gLj:__ZN6il2cpp6icalls8mscorlib4Mono8Security12Cryptography18KeyPairPersistence10_CanSecureEP12Il2CppString
fig:__ZL96CustomEventData_t1269126727_CustomAttributesCacheGenerator_CustomEventData_AddUInt16_m3349298376P21CustomAttributesCache
fBh:_Action_1_Invoke_m4180501989_gshared
jyh:_Slider__ctor_m3124136916
aNh:_DefaultComparer__ctor_m3180706193_gshared
vAe:_List_1_System_Collections_Generic_IEnumerableU3CTU3E_GetEnumerator_m3625278020_gshared
Yta:__ZN13GfxDeviceGLES14SetRasterStateEPK17DeviceRasterState
Oya:__ZNK13TranslateGLES11BlendFactorE9BlendMode
nGb:__Z30TransferField_LinearCollectionI14SafeBinaryReadEvRK29SerializationCommandArgumentsR31RuntimeSerializationCommandInfo
I4d:_InputField_set_caretPositionInternal_m231166704
WOi:_Transform_InverseTransformPoint_m2648491174
Ktf:_TlsServerHello__ctor_m3032108168
xda:__ZN14SafeBinaryRead11EndTransferEv
fSf:__ZL98ILGenerator_t99948092_CustomAttributesCacheGenerator_ILGenerator_Mono_GetCurrentOffset_m3553856682P21CustomAttributesCache
DU:__ZNK3WWW12GetAudioClipEv
CGb:__ZN14SafeBinaryRead8TransferI8MonoPPtrEEvRT_PKc17TransferMetaFlags
Xlh:_Dictionary_2_System_Collections_Generic_ICollectionU3CSystem_Collections_Generic_KeyValuePairU3CTKeyU2CTValueU3EU3E_Remove_m1705959559_gshared
fNa:__ZN24dense_hashtable_iteratorINSt3__24pairIKN4core12basic_stringIcNS2_20StringStorageDefaultIcEEEEP20ArchiveStorageReaderEES6_20StringHash32FunctionIS6_EN14dense_hash_mapIS6_S9_SC_NS0_8equal_toIS6_EE13stl_allocatorISA_L18MemLabelIdentifier54ELi16EEE9SelectKeyESF_SI_EppEv
ZKh:_InternalEnumerator_1_System_Collections_IEnumerator_get_Current_m1533037706_gshared
E8f:__ZL111MonoBehaviour_t1158329972_CustomAttributesCacheGenerator_MonoBehaviour_StartCoroutine_Auto_Internal_m1014513456P21CustomAttributesCache
IFa:__ZN21UniformBufferTFMethod13MapBoneBufferEj
Axf:_RecordProtocol_SendChangeCipherSpec_m3542001341
fie:_Array_InternalArray__set_Item_TisVector3_t2243707580_m1390667454_gshared
xlc:__ZN12GUIClipState10BeginOnGUIER10InputEvent
Mrj:__ZNSt3__26vectorIcNS_9allocatorIcEEEC2Ej
nhf:_KeyPairPersistence_CanSecure_m2251009700
JNa:__ZZ23InitPlayerLoopCallbacksvEN27FixedUpdateClearLinesstruct7ForwardEv
NCb:__ZN9TextAsset15ThreadedCleanupEv
Ytg:_ReturnMessage_get_Properties_m531965085
EIg:_GenericTypeParameterBuilder_IsSubclassOf_m563999142
oOd:_Exception_ToString_m627574695
AMc:__ZNSt3__26vectorIN20TextRenderingPrivate8FontImpl7IntRectE13stl_allocatorIS3_L18MemLabelIdentifier34ELi16EEE21__push_back_slow_pathIKS3_EEvRT_
v$:__Z21CompleteFenceInternalR8JobFence
gnc:__Z30Event_Get_Custom_PropModifiersP12Il2CppObject
Qij:__ZN30dense_hashtable_const_iteratorINSt3__24pairIK10KeyWrapperINS1_IPK9FieldInfoP11Il2CppClassEEEjEES9_17ReflectionMapHashIS8_EN14dense_hash_mapIS9_jSD_NS9_14EqualsComparerINS0_8equal_toIS8_EEEENS0_9allocatorISB_EEE9SelectKeyESI_SK_E30advance_past_empty_and_deletedEv
nmh:_Dictionary_2_ContainsValue_m2375979648_gshared
ux:__ZN7mecanim9animation16CreateClipOutputEPKNS0_4ClipERNS_6memory9AllocatorE
ru:__ZN7mecanim9animation23ClearAnimationNodeStateEPNS0_18AnimationNodeStateEb
uge:_Array_InternalArray__Insert_TisDecimal_t724701077_m1429254816_gshared
iYi:_ListPool_1_Get_m2998644518_gshared
GQb:__ZN18StreamedBinaryReadILb0EE21TransferSTLStyleArrayI13dynamic_arrayIyLj8EEEEvRT_17TransferMetaFlags
KBa:__ZN18AsyncUploadManager17DoScaledPaddedJobEP28FileTextureUploadInstruction
asa:__ZNSt3__218__stable_sort_moveIRN10vector_mapI17ScriptingClassPtrPKN5Unity4TypeENS_4lessIS2_EENS_9allocatorINS_4pairIS2_S6_EEEEE13value_compareENS_11__wrap_iterIPSB_EEEEvT0_SJ_T_NS_15iterator_traitsISJ_E15difference_typeEPNSM_10value_typeE
HRb:__ZN6Shader21AwakeFromLoadThreadedEv
Fka:__ZN6prcoreL17RemapGenericFloatI17TexFormatRGBFloat17TexFormatRGBAHalfEEvPKNS_9InnerInfoE
Nog:__ZL70InputField_t1631627530_CustomAttributesCacheGenerator_m_CharacterLimitP21CustomAttributesCache
kBe:_List_1_get_Capacity_m2443158653_gshared
Vvc:__ZN8JSONRead21TransferSTLStyleArrayI13dynamic_arrayI8Vector2fLj4EEEEvRT_18MemLabelIdentifier17TransferMetaFlags
R7g:_LayerMask_op_Implicit_m2135076047
y9c:__ZN13RuntimeStaticINSt3__26vectorIjNS0_9allocatorIjEEEELb0EE16StaticInitializeEPv
kMj:__ZN6il2cpp2os9SemaphoreC2Eii
pDh:_InternalEnumerator_1_get_Current_m2960188445_AdjustorThunk
EGb:__ZNSt3__26vectorI8MonoPPtr13stl_allocatorIS1_L18MemLabelIdentifier1ELi16EEE8__appendEj
Kzh:_Text_set_alignByGeometry_m1514652028
oVa:__ZN14qsort_internal30FindAndMovePivotToLastPositionIP17RODataReplacementi19ROSorterReplacementEEvT_S4_T0_T1_
TFa:__ZN15UniformTFMethod20IsBoneCountSupportedEi
Eah:_Object_Internal_InstantiateSingle_m2776302597
rfd:_X509Certificate_GetExpirationDateString_m2351894475
G3e:_FileStream_get_Position_m465478322
R6i:__ZN14dense_hash_setI10KeyWrapperIPK19Il2CppGenericMethodEN6il2cpp8metadata23Il2CppGenericMethodHashENS4_14EqualsComparerINS6_26Il2CppGenericMethodCompareEEENSt3__29allocatorIS4_EEEC2EjRKS7_RKSA_
kUj:dynCall_viidi
yge:_Array_InternalArray__Insert_TisInt64_t909078037_m3039874636_gshared
urd:_Convert_ToInt16_m1787678274
uAh:_ToggleGroup_NotifyToggleOn_m997426227
Kxf:_RSASslSignatureDeformatter_SetKey_m1150106904
yfg:__ZL74Event_t3028476042_CustomAttributesCacheGenerator_Event_Cleanup_m1195902101P21CustomAttributesCache
H_:__ZN24ScriptingMethodFiltering17FilterOnSignatureENS_18MethodSearchFilterE
WFg:_TypeBuilder_get_Module_m1668298460
bvh:_Scrollbar_ClickRepeat_m3403943364
nO:__ZN13ProduceHelperI9AudioClipLb0EE7ProduceE18MemLabelIdentifier18ObjectCreationMode
gW:__ZN18ScreenManagerWebGL13SetLockCursorE14CursorLockMode
PVc:_cf2_arrstack_finalize
X9e:_MonoType_GetMethodsByName_m1854415088
MGg:_DerivedType_GetMethods_m165266904
Xif:_RSAManaged_EncryptValue_m4089823119
t$b:__ZN13MonoBehaviour19HandleNotificationsEPviR11MessageData
NMj:__ZN6il2cpp2os9EventImpl5ResetEv
bnh:_DefaultComparer_GetHashCode_m926363525_gshared
V4g:_GUIStyle_set_focused_m1547304893
bwh:_ScrollRect_get_verticalScrollbar_m2455612493
y6h:__Z69RuntimeInvoker_Void_t1841601450_Int32_t2071877448_HitInfo_t1761367055PK10MethodInfoPvPS2_
Vea:__ZNK11NamedObject26GetTypeInfoVirtualInternalEv
u4e:_ReadDelegate_Invoke_m2091885836
VHg:_TypeBuilder_GetField_m2112455315
bXj:b58
cXj:b59
LWj:b52
MWj:b53
JWj:b50
G7h:__Z51RuntimeInvoker_Vector4_t2243707581_SByte_t454417549PK10MethodInfoPvPS2_
$Wj:b56
aXj:b57
XWj:b54
_Wj:b55
Tef:_Kernel_Multiply_m3585610531
hrf:_CertificateSelectionCallback_EndInvoke_m3525317639
ML:__ZN4PPtrI15AudioMixerGroupE8TransferI18StreamedBinaryReadILb0EEEEvRT_
PRh:__Z67RuntimeInvoker_Void_t1841601450_Int32_t2071877448_Int16_t4041245914PK10MethodInfoPvPS2_
OGd:_DateTime__ctor_m3604679583_AdjustorThunk
vag:__ZL96Transform_t3275118058_CustomAttributesCacheGenerator_Transform_INTERNAL_get_position_m1881704498P21CustomAttributesCache
big:__ZL94CustomEventData_t1269126727_CustomAttributesCacheGenerator_CustomEventData_AddChar_m1103619816P21CustomAttributesCache
$pd:_SimpleEnumerator_Reset_m1341779532
jhj:__ZNSt3__214__split_bufferINS_12basic_stringIcNS_11char_traitsIcEENS_9allocatorIcEEEERNS4_IS6_EEEC2EjjS8_
kif:_MACAlgorithm_Core_m2390605245
bKh:_InternalEnumerator_1_System_Collections_IEnumerator_get_Current_m30488070_gshared
n_b:__ZN10GameObject12CleanupClassEv
KGh:_InternalEnumerator_1_System_Collections_IEnumerator_Reset_m2624612805_AdjustorThunk
DOf:__ZL108ArrayReadOnlyList_1_t3367196019_CustomAttributesCacheGenerator_ArrayReadOnlyList_1_GetEnumerator_m3031680693P21CustomAttributesCache
Gvi:_DllImportAttribute__ctor_m1165454237
Bua:__ZN9GfxDevice25SetShaderPropertiesSharedERK19ShaderPropertySheet
gXi:_IndexedSet_1_GetEnumerator_m3646001838_gshared
tCb:__ZN10MonoScript17MainThreadCleanupEv
t7b:__ZN19SpriteMeshGenerator4path9clip_edgeEi
xth:_VertexHelper_AddUIVertexTriangleStream_m4009409241
INh:_Comparer_1__ctor_m844571340_gshared
r3b:__ZL25InitializeDefaultMaterialv
Ngb:__ZN21ArchiveStorageCreatorD2Ev
IUg:_WaitHandle_Dispose_m441403862
jKa:__ZN19FileAccessorHandlerD2Ev
qOh:_Comparer_1__ctor_m2941434245_gshared
YAh:_VertexHelper_AddVert_m3290455716
eYf:__ZL56SHA256Managed_t2029745292_CustomAttributesCacheGeneratorP21CustomAttributesCache
bSf:__ZL126GenericTypeParameterBuilder_t1370236603_CustomAttributesCacheGenerator_GenericTypeParameterBuilder_MakeGenericType_m2955814622P21CustomAttributesCache
nra:__ZN17PersistentManager12UnloadStreamERKN4core12basic_stringIcNS0_20StringStorageDefaultIcEEEEb
THc:__ZN19CompositeCollider2D22SimplifyCompositePathsERKNSt3__26vectorINS1_IN10ClipperLib8IntPointENS0_9allocatorIS3_EEEENS4_IS6_EEEERS8_
ZV:__ZN13ScreenManager17RequestResolutionEiibi
ZBg:_DESTransform__ctor_m4096028381
sfj:_il2cpp_unity_liveness_calculation_from_statics
iUg:_Scheduler_get_Instance_m1989471839
b2h:__Z61RuntimeInvoker_Void_t1841601450_CullingGroupEvent_t1057617917PK10MethodInfoPvPS2_
lEf:_WebRequest_System_Runtime_Serialization_ISerializable_GetObjectData_m3377822910
Tqb:__ZN8Renderer8TransferI17RemapPPtrTransferEEvRT_
mIe:_Collection_1_Contains_m1299140035_gshared
ZWj:_glBlitFramebuffer__wrapper
yne:_ExecuteEvents_ExecuteHierarchy_TisIl2CppObject_m2541874163_gshared
_ee:_Array_InternalArray__ICollection_Add_TisUICharInfo_t3056636800_m968274080_gshared
qYi:_ObjectPool_1__ctor_m1532275833_gshared
Axa:__ZN13GfxDeviceGLES19SetSinglePassStereoE16SinglePassStereo
L1i:__ZL24UnresolvedVirtualCall_71P12Il2CppObjectS0_S0_iS0_S0_S0_PK10MethodInfo
JMf:__ZL64IntPtr_t_CustomAttributesCacheGenerator_IntPtr__ctor_m3803259710P21CustomAttributesCache
_ze:_List_1_GetIndex_m3262928832_gshared
owi:_SafeHandle_DangerousRelease_m2167699172
H3a:__Z24LookRotationToQuaternionRK8Vector3fS1_P11Quaternionf
F3a:__ZN16ReflectionProbes9GetCameraEv
WVb:__ZL18IsGpuProgramUsable20ShaderGpuProgramTypePK6Shader
zmf:_ArgumentException__ctor_m2105824819
N0c:__ZN2UI6Canvas17SetSortingLayerIDEi
zWd:_BaseMeshEffect_get_graphic_m3358796463
yzj:__ZN6il2cpp2vm11MethodStack23CleanupForCurrentThreadEv
Q4i:__ZL25UnresolvedVirtualCall_238P12Il2CppObject19Vector4_t2243707581PK10MethodInfo
ESi:_Predicate_1_Invoke_m695569038_gshared
Goe:_Enumerator_VerifyState_m825848279_AdjustorThunk
Pkb:__ZN20TierGraphicsSettings8TransferI24GenerateTypeTreeTransferEEvRT_
whi:_UnityAnalyticsHandler_t3238795095_marshal_pinvoke_back
_Hb:__ZN14SafeBinaryRead21TransferSTLStyleArrayI13dynamic_arrayI4AABBLj4EEEEvRT_17TransferMetaFlags
cia:__ZN18UnityPropertySheet8TransferI19StreamedBinaryWriteILb0EEEEvRT_
Yvf:_TlsServerCertificate_checkServerIdentity_m3836435780
p9:__ZNSt3__26__treeINS_12__value_typeIiN11TypeManager18TypeCallbackStructEEENS_19__map_value_compareIiS4_NS_4lessIiEELb1EEENS_9allocatorIS4_EEE7destroyEPNS_11__tree_nodeIS4_PvEE
Zjf:_PKCS12_Decrypt_m2353135969
mqi:_PersistentCallGroup_Initialize_m3908067069
gNg:_MonoEvent_ToString_m386956596
Kig:__ZL70RuntimePlatform_t1869584967_CustomAttributesCacheGenerator_FlashPlayerP21CustomAttributesCache
qCb:__ZN39AssetBundleLoadFromStreamAsyncOperationC2ERKN4core12basic_stringIcNS0_20StringStorageDefaultIcEEEE
WTd:_PointerEventData_get_pointerPress_m880101744
Iea:__ZL19GetCameraTargetRectRK6Camerabb
Egh:_Transform_1_BeginInvoke_m1786442111_gshared
q_e:_Int32_GetFormatException_m1729046182
B4a:__ZN13dynamic_arrayIN10GameObject13ComponentPairELj4EE6insertEPS1_RKS1_
fEe:_Collection_1_get_Count_m3834276648_gshared
bcb:__ZN21UnityDefaultAllocatorI17LowLevelAllocatorE10DeallocateEPv
DY:__GLOBAL__sub_I_runtime_camera2_lump_cpp
ur:__ZN15PackedIntVector8TransferI14SafeBinaryReadEEvRT_
FLg:_FieldInfo_get_IsLiteral_m267898096
jCa:__ZN17SharedTextureDataD0Ev
Yyf:_SslStreamBase_EndNegotiateHandshake_m1732321201
Qgh:_Transform_1_BeginInvoke_m1167293475_gshared
PH:__ZN13AudioListener8DoUpdateEv
ILf:__ZL71SByte_t454417549_CustomAttributesCacheGenerator_SByte_Parse_m1620039654P21CustomAttributesCache
gCd:__Z13bankers_roundd
Zyb:__ZN14SafeBinaryRead8TransferI5RectTIfEEEvRT_PKc17TransferMetaFlags
vi:_emscripten_glGenFramebuffers
mzd:_Hashtable_CopyTo_m2778915805
k9:__ZN17BaseObjectManager16StaticInitializeEPv
aGg:_ConstructorBuilder_get_IsCompilerContext_m2796899803
G5f:__ZL97Component_t3819376471_CustomAttributesCacheGenerator_Component_GetComponentsInChildren_m843288020P21CustomAttributesCache
Mei:__Z37RuntimeInvoker_UICharInfo_t3056636800PK10MethodInfoPvPS2_
Oce:_Array_IndexOf_TisUIVertex_t1204258818_m613887160_gshared
aAb:__ZN18StreamedBinaryReadILb0EE19TransferSTLStyleMapINSt3__28multimapIN4core12basic_stringIcNS4_20StringStorageDefaultIcEEEE4PPtrI6ObjectENS2_4lessIS8_EE13stl_allocatorINS2_4pairIKS8_SB_EEL18MemLabelIdentifier51ELi16EEEEEEvRT_17TransferMetaFlags
wZd:_FloatTween_GetDuration_m1757342579_AdjustorThunk
HCd:_DateTime_CoreParse_m2014268103
Cxe:_List_1__ctor_m3698273726_gshared
SFc:__ZN24ParticleIntersectQuery2D18ReportFixtureProxyEPK14b2FixtureProxy
S3c:__ZN21UnityAnalyticsManager23VirtualRedirectTransferER19StreamedBinaryWriteILb0EE
csc:__Z18Transfer_BlittableI9JSONWriteLb0EyEvRK29SerializationCommandArgumentsR31RuntimeSerializationCommandInfo
Oea:__ZN13RenderTexture15ThreadedCleanupEv
T6:__ZN15dense_hashtableINSt3__24pairIKiiEEi21InstanceIDHashFunctorN14dense_hash_mapIiiS4_NS0_8equal_toIiEE13stl_allocatorIS3_L18MemLabelIdentifier130ELi16EEE9SelectKeyES7_SA_E9copy_fromERKSD_j
mnb:__ZN12CubemapArray23VirtualRedirectTransferER14SafeBinaryRead
EBg:_CryptographicException__ctor_m1012314467
ISe:_ReadOnlyCollection_1_System_Collections_IList_Add_m616574295_gshared
r_e:_Int32_ProcessTrailingWhitespace_m2812079777
Xna:__ZN18ProceduralMaterial9ReloadAllEbb
Zhc:__Z43RectTransform_CUSTOM_INTERNAL_set_sizeDeltaP12Il2CppObjectRK13Vector2fIcall
$Df:_WebProxy__ctor_m3679722173
IFh:_InternalEnumerator_1_Dispose_m2743309309_AdjustorThunk
Nxj:__ZN15dense_hashtableINSt3__24pairIK10KeyWrapperINS1_IPKcS4_EEEiEES6_24NamespaceAndNamePairHashN14dense_hash_mapIS6_iS9_NS6_14EqualsComparerI26NamespaceAndNamePairEqualsEENS0_9allocatorIS8_EEE9SelectKeyESD_SF_E6insertERKS8_
Tda:__ZN24GenerateTypeTreeTransfer18BeginArrayTransferEPKcS1_Ri17TransferMetaFlags
dBa:__Z16DecompressCrunchPKhRjR13TextureFormatiiii18MemLabelIdentifier
mCe:_List_1__ctor_m2082969060_gshared
nm:___syscall51
rm:___syscall54
Iyj:__ZNSt3__26__treeINS_12__value_typeIP24Il2CppReflectionAssemblyPvEENS_19__map_value_compareIS3_S5_NS_4lessIS3_EELb1EEENS_9allocatorIS5_EEE12__find_equalIS3_EERPNS_16__tree_node_baseIS4_EESH_RKT_
cQh:__Z107RuntimeInvoker_Boolean_t3825574718_SByte_t454417549_Il2CppObject_Int32_t2071877448_ExceptionU26_t1467204777PK10MethodInfoPvPS2_
jVi:_UnityAction_2_Invoke_m1994351568_gshared
Ahi:_UnityAnalyticsHandler_Dispose_m1048126775
oMb:__Z18Transfer_BlittableI19StreamedBinaryWriteILb0EELb1EjEvRK29SerializationCommandArgumentsR31RuntimeSerializationCommandInfo
gs:__ZNK8Animator20IsAnyRendererVisibleEv
u2i:__ZL25UnresolvedVirtualCall_108P12Il2CppObjectS0_28StreamingContext_t1417235061PK10MethodInfo
wWc:_cff_builder_add_point1
Syj:__ZN6il2cpp2vm5Image21GetCachedResourceDataEPK11Il2CppImageRKNSt3__212basic_stringIcNS5_11char_traitsIcEENS5_9allocatorIcEEEE
j2d:_HorizontalOrVerticalLayoutGroup_set_childControlWidth_m4209477792
Oee:_Array_InternalArray__ICollection_Add_TisUInt32_t2149682021_m2629016323_gshared
CFb:__Z18Transfer_BlittableI14SafeBinaryReadLb0E10ColorRGBAfEvRK29SerializationCommandArgumentsR31RuntimeSerializationCommandInfo
fOf:__ZL65Il2CppArray_CustomAttributesCacheGenerator_Array_Sort_m3002148658P21CustomAttributesCache
Ba:invoke_iiiiiiiiii
RN:__ZNK7Texture10GetVRUsageEv
ona:__ZN18LoadSceneOperation19IntegrateTimeSlicedEi
tUg:_Scheduler_SchedulerThread_m2209572785
cdf:_SortKeyBuffer_GetResultAndReset_m2516956577
M9a:__ZN10FileSystem19SetCurrentDirectoryERKN4core12basic_stringIcNS0_20StringStorageDefaultIcEEEE
rYi:_ObjectPool_1_get_countAll_m4217365918_gshared
U3:__ZN16ScriptingManager24NotifyScriptCacheReleaseEi
Z3f:__ZL85UriParser_t1012511323_CustomAttributesCacheGenerator_UriParser_OnRegister_m4010407891P21CustomAttributesCache
QRf:__ZL63UnmanagedMemoryStream_t822875729_CustomAttributesCacheGeneratorP21CustomAttributesCache
Zcc:__Z47Register_UnityEngine_Coroutine_ReleaseCoroutinev
BI:__ZN15AudioReverbZone13SetFMODValuesEv
nni:_Component_GetComponentInChildren_m3925629424
e1:__ZL19StaticDestroyShaderPv
he:_glRenderbufferStorageMultisample
Hug:_SoapTypeAttribute_get_XmlTypeName_m2546866572
fA:__ZN23AnimationPlayableOutput17SetTargetAnimatorEP8Animator
tOe:_ReadOnlyCollection_1_System_Collections_IList_get_IsFixedSize_m158012227_gshared
kKi:_X509Chain__ctor_m1113875360
lIb:__Z35Transfer_Blittable_SingleValueFieldI14SafeBinaryReadfEvRT_R17GeneralMonoObjectRK23StaticTransferFieldInfo
rwf:_TlsServerHello_processProtocol_m1241336522
o2f:__ZL79ModulusRing_t80355992_CustomAttributesCacheGenerator_ModulusRing_Pow_m661630322P21CustomAttributesCache
WDh:_InternalEnumerator_1_System_Collections_IEnumerator_Reset_m324760031_AdjustorThunk
pzi:_ContextAttribute_IsContextOK_m3281216012
F5e:_PathTooLongException__ctor_m3212099251
l1j:_pthread_cond_broadcast__wrapper
Myg:_ObjectManager_RaiseDeserializationEvent_m1611173032
Dr:__ZN17PackedFloatVector8TransferI18StreamedBinaryReadILb0EEEEvRT_
$6f:__ZL88Screen_t786852042_CustomAttributesCacheGenerator_Screen_t786852042____width_PropertyInfoP21CustomAttributesCache
Unb:__ZN7Cubemap23VirtualRedirectTransferER17RemapPPtrTransfer
MPa:_longest_match_fast
a$d:_DropdownItem_get_image_m2752143412
A1i:__ZL24UnresolvedVirtualCall_60P12Il2CppObjectaPK10MethodInfo
F6b:__ZN22BlockMemoryCacheWriter11GetPathNameEv
B0d:_Graphic_Rebuild_m2617722358
xUf:__ZL86SafeHandle_t2733794115_CustomAttributesCacheGenerator_SafeHandle_SetHandle_m1980208835P21CustomAttributesCache
YTi:_InvokableCall_1__ctor_m563785030_gshared
mId:_DateTime_ToString_m3108726445_AdjustorThunk
AQ:__ZN19CloudServiceHandlerD2Ev
c6a:__ZN13dynamic_arrayIN23ReflectionProbesContext23ReflectionProbeCubeInfoELj4EE18resize_initializedEjRKS1_12ResizePolicy
Ile:_Array_InternalArray__get_Item_TisTableRange_t2011406615_m602485977_gshared
L5d:_InputField_Append_m2623574152
aF:__Z116Register_UnityEngine_Experimental_Director_AnimatorControllerPlayable_INTERNAL_CALL_GetNextAnimatorStateInfoInternalv
smf:_ApplicationException__ctor_m1120437222
MNg:_MonoMethod__ctor_m4091684020
hp:stackAlloc
sdc:__Z44Camera_CUSTOM_INTERNAL_CALL_ScreenPointToRayP12Il2CppObjectRK8Vector3fR3Ray
UKa:__ZN25SingleBlockMemoryFileData4LockEPPv
OLa:__ZN12HandlerChain5TouchER13FileEntryData
aKg:_MethodBuilder_GetHashCode_m1713271764
F7b:__ZN15dense_hashtableINSt3__24pairIK12TriangleEdgeiEES2_16TriangleEdgeHashN14dense_hash_mapIS2_iS5_NS0_8equal_toIS2_EENS0_9allocatorIS4_EEE9SelectKeyES8_SA_E12resize_deltaEjj
_vi:_Marshal__cctor_m802981325
mEe:_Collection_1_IsSynchronized_m1319022347_gshared
mcf:_MSCompatUnicodeTable_GetResource_m3816716847
Eec:__Z32RectOffset_Get_Custom_PropBottomP12Il2CppObject
$Zh:__Z49RuntimeInvoker_UInt16_t986882611_Int64_t909078037PK10MethodInfoPvPS2_
Zod:_Array_CreateInstance_m15016505
j9f:__ZL103DataUtility_t4181890362_CustomAttributesCacheGenerator_DataUtility_INTERNAL_CALL_GetPadding_m1621366113P21CustomAttributesCache
yHb:__ZNSt3__26vectorI17AnimationCurveTplIfE13stl_allocatorIS2_L18MemLabelIdentifier1ELi16EEE6assignINS_11__wrap_iterIPS2_EEEENS_9enable_ifIXaasr21__is_forward_iteratorIT_EE5valuesr16is_constructibleIS2_NS_15iterator_traitsISC_E9referenceEEE5valueEvE4typeESC_SC_
tPj:_stat
Gbd:_RijndaelTransform_Decrypt128_m1282993908
Ofe:_Array_InternalArray__ICollection_CopyTo_TisUInt16_t986882611_m3228377237_gshared
kse:_List_1_Add_m4157722533_gshared
wpg:__ZL68Navigation_t1571958496_CustomAttributesCacheGenerator_m_SelectOnDownP21CustomAttributesCache
Bki:_Bounds_op_Inequality_m2315096783
azc:__ZN15b2DistanceJoint23InitVelocityConstraintsERK12b2SolverData
Msa:__ZNSt3__218__insertion_sort_3IRNS_4lessIN22BuiltinResourceManager8ResourceEEEPS3_EEvT0_S7_T_
Jni:_Component_BroadcastMessage_m1308086896
_ad:_RC2_set_KeySize_m2015782960
ma:invoke_iiiiiiiiiiii
VJe:_Collection_1_SetItem_m3715941382_gshared
RXe:_NumberFormatInfo_get_CurrencyGroupSeparator_m2480433019
Njf:_StrongName_get_PublicKey_m3777577320
A4f:__ZL120AssetBundleCreateRequest_t1038783543_CustomAttributesCacheGenerator_AssetBundleCreateRequest_get_assetBundle_m2931245245P21CustomAttributesCache
nvi:_RuntimeCompatibilityAttribute__ctor_m1331212510
vfc:__Z43Register_UnityEngine_GameObject_SendMessagev
K6:__ZNSt3__26__treeINS_12__value_typeIN4core12basic_stringIcNS2_20StringStorageDefaultIcEEEES6_EENS_19__map_value_compareIS6_S7_NS_4lessIS6_EELb1EEE13stl_allocatorIS7_L18MemLabelIdentifier12ELi16EEE7destroyEPNS_11__tree_nodeIS7_PvEE
f$i:__ZN6il2cpp2vm17SetupFieldsLockedEP11Il2CppClassRKNS_2os12FastAutoLockE
WL:__ZN11AudioSourceD0Ev
Zli:_CanvasRenderer_set_hasPopInstruction_m1388844875
Rte:_List_1_System_Collections_ICollection_CopyTo_m1530390632_gshared
ALe:_Collection_1_System_Collections_IEnumerable_GetEnumerator_m1452790461_gshared
uFh:_InternalEnumerator_1_System_Collections_IEnumerator_Reset_m3194282029_AdjustorThunk
mab:__ZN16MemoryFileSystem4NameEv
cwe:__ZN21InterfaceFuncInvoker0I18Color32_t874517518E6InvokeEjP11Il2CppClassP12Il2CppObject
nRd:_BaseRaycaster_OnEnable_m3641767070
fCe:_List_1_ToArray_m2810936944_gshared
vVe:_Func_2_BeginInvoke_m669892004_gshared
bof:_PrimeGeneratorBase_get_PrimalityTest_m308005118
sNf:__ZL71Enum_t2459695545_CustomAttributesCacheGenerator_Enum_Format_m2294492821P21CustomAttributesCache
W5g:_GUIStyle_Internal_CalcSize_m1309259680
Jmc:__ZNK8GUIStyle8CalcSizeER10GUIContent
xte:_List_1_CheckIndex_m2328469916_gshared
KCe:_List_1_AddRange_m3345533268_gshared
tNc:_UNITY_FT_New_Size
Aac:__Z42ScriptingGetComponentsOfTypeFromGameObjectRK26ScriptingGetComponentsArgs
hDe:_List_1_get_Item_m3157283227_gshared
Tbe:__ZN21InterfaceFuncInvoker2Ii38CustomAttributeNamedArgument_t94157543S0_E6InvokeEjP11Il2CppClassP12Il2CppObjectS0_S0_
GUi:_InvokableCall_4_Invoke_m1555001411_gshared
MFd:_Convert_ToString_m2915777777
Fia:__ZNSt3__27__sort4IRPFbRKNS_4pairIN9ShaderLab16FastPropertyNameEN18UnityPropertySheet11UnityTexEnvEEES8_EPS6_EEjT0_SD_SD_SD_T_
LVc:_cf2_hintmap_build
d4h:__Z92RuntimeInvoker_AnimatorStateInfo_t2577870592_PlayableHandleU26_t3483893774_Int32_t2071877448PK10MethodInfoPvPS2_
zTc:_Line_Up
Eaf:_MonoType_GetGenericTypeDefinition_m2363776160
wTf:__ZL62ParameterAttributes_t1266705348_CustomAttributesCacheGeneratorP21CustomAttributesCache
yuf:_Context_set_SentConnectionEnd_m2641458842
oe:_emscripten_glBufferSubData
isd:_Buffer_BlockCopyInternal_m2627156229
jJb:__Z18Transfer_BlittableI17RemapPPtrTransferLb1EyEvRK29SerializationCommandArgumentsR31RuntimeSerializationCommandInfo
u0d:_Graphic_set_material_m329335629
YQd:_ExecuteEvents_get_pointerExitHandler_m3250605428
Lja:__ZN6prcoreL12RemapGenericI15TexFormatRGB88817TexFormatARGB8888EEvPKNS_9InnerInfoE
vD:__Z17CalculateGlobalRS23TransformAccessReadOnly
iyg:__ZN21InterfaceFuncInvoker1IP12Il2CppObject28StreamingContext_t1417235061E6InvokeEjP11Il2CppClassS1_S2_
Wki:_Camera_ScreenPointToRay_m614889538
Nef:_Kernel_multiByteDivide_m735279869
Flh:_Dictionary_2_ToTValue_m542772656_gshared
C8c:__ZN23UnityPurchasingSettings10InitializeER6Object
TTg:_Thread_GetNewManagedId_internal_m3211695465
VPa:_unity_z_deflateReset
T0g:_SkinChangedDelegate_Invoke_m2801964040
LAa:__ZN17GenericDynamicVBO17DrawChunkInternalERK21DynamicVBOChunkHandle17ShaderChannelMaskS3_P17VertexDeclarationP16DrawBuffersRangeij
w9c:__ZN13RuntimeStaticINSt3__26vectorIN5physx25PxVehicleWheelQueryResultENS0_9allocatorIS3_EEEELb0EE16StaticInitializeEPv
uRb:__ZN22MemoryCacherReadBlocks14LockCacheBlockEjPPhS1_
jrd:_Boolean_System_IConvertible_ToChar_m2637404801_AdjustorThunk
phd:_SecurityContext_Capture_m2535194991
ZXg:_UInt16_System_IConvertible_ToSByte_m3044765342_AdjustorThunk
RGg:_DerivedType_IsArrayImpl_m684825803
GLf:__ZL47Byte_t3683104436_CustomAttributesCacheGeneratorP21CustomAttributesCache
bAj:__ZN4utf88internal15increase_safelyIPKcEENS0_9utf_errorERT_S5_
rMc:__ZN20TextRenderingPrivate8FontImpl16CacheFontForTextEPtiifjPK13dynamic_arrayINS_16TextFormatChangeELj4EE
Aie:_Array_qsort_TisUIVertex_t1204258818_TisUIVertex_t1204258818_m512606409_gshared
Uad:__Z21ArrayElementTypeCheckP11Il2CppArrayPv
r_j:_emscripten_glTexSubImage2D__wrapper
GBf:_NameValueCollection_AsSingleString_m10599052
mRj:__ZNSt3__212basic_stringIcNS_11char_traitsIcEENS_9allocatorIcEEE6appendEjc
Fbf:_Object_InternalGetHashCode_m1371384246
oth:_Navigation_get_defaultNavigation_m2185194207
Hrg:__ZL73LayoutElement_t2808691390_CustomAttributesCacheGenerator_m_FlexibleHeightP21CustomAttributesCache
Hpi:_ArgumentCache_get_stringArgument_m3051619173
e$e:_Int32_System_IConvertible_ToSByte_m1449623243_AdjustorThunk
Mlf:_AccessViolationException__ctor_m1270251537
n3c:__Z42Register_UnityEngine_Canvas_get_rootCanvasv
DKi:_X509ExtensionCollection_IndexOf_m3972100651
BGb:__Z14resize_trimmedINSt3__26vectorI8MonoPPtr13stl_allocatorIS2_L18MemLabelIdentifier1ELi16EEEEEvRT_j
Agb:__ZN39AssetBundleLoadFromStreamAsyncOperation11GetProgressEv
Xe:_TTF_RenderText_Solid
sEb:__ZN13MonoBehaviour25TransferEngineAndInstanceI24GenerateTypeTreeTransferEEvRT_
TYg:_UInt32_System_IConvertible_ToInt64_m3091851828
N8e:_MissingMethodException__ctor_m3898429715
gwg:_RemotingConfiguration_RegisterClientProviderTemplate_m514821425
ffh:_Enumerator_System_Collections_IEnumerator_Reset_m3085583937_gshared
Idi:__Z66RuntimeInvoker_ClientCertificateType_t4001384466_Int32_t2071877448PK10MethodInfoPvPS2_
Yif:_RSAManaged_ExportParameters_m2873993187
Ebe:_Array_InternalArray__IEnumerable_GetEnumerator_TisVector4_t2243707581_m829381058_gshared
jDe:_Enumerator__ctor_m2816143215_AdjustorThunk
W8c:__ZN11UnityEngine7Connect16PersistentValuesC2Ev
TGf:_X509Chain_FindParent_m404663796
L8e:_MissingMemberException__ctor_m2164043278
NWi:__ZL7log2_32j
CHe:_Collection_1_CopyTo_m2282972507_gshared
xBb:__ZN13EmscriptenWWW10OnProgressEPvjj
EWd:_BaseVertexEffect__ctor_m358261091
yJf:_Interpreter_GetGroupInfo_m312421921
vJb:__Z19TransferField_ArrayI17RemapPPtrTransfer27Converter_UnityEngineObjectEvRK23StaticTransferFieldInfoR31RuntimeSerializationCommandInfoRT0_
uQh:__Z48RuntimeInvoker_Void_t1841601450_SByte_t454417549PK10MethodInfoPvPS2_
EXf:__ZL53HMACSHA384_t3026079344_CustomAttributesCacheGeneratorP21CustomAttributesCache
u5h:__Z120RuntimeInvoker_Void_t1841601450_Single_t2076509932_Single_t2076509932_Single_t2076509932_Single_t2076509932_Il2CppObjectPK10MethodInfoPvPS2_
cmb:__ZN14RenderSettings8TransferI18StreamedBinaryReadILb0EEEEvRT_
Yme:_Object_Instantiate_TisIl2CppObject_m4219963824_gshared
_0e:_IntPtr_System_Runtime_Serialization_ISerializable_GetObjectData_m21554269_AdjustorThunk
Yid:_Single_GetHashCode_m3102305584_AdjustorThunk
Xpa:__ZN29SerializeTraitsForStringTypesIN4core12basic_stringIcNS0_20StringStorageDefaultIcEEEEE8TransferI24GenerateTypeTreeTransferEEvRS4_RT_
yke:_Array_swap_TisVector3_t2243707580_m3036634038_gshared
sK:__ZN4FMOD6System9createDSPEP20FMOD_DSP_DESCRIPTIONPPNS_3DSPE
Yz:__ZN7mecanim9animation26DestroyControllerWorkspaceEPNS0_19ControllerWorkspaceERNS_6memory9AllocatorE
QHi:_UriParser_set_SchemeName_m3624672465
AG:__ZN4FMOD8ChannelI11EndCallbackEv
Red:_ToBase64Transform_TransformBlock_m2201454137
xmc:__ZN8GUIStyle14SetDefaultFontEPN13TextRendering4FontE
LKg:_OpCode_get_StackBehaviourPop_m3787015663_AdjustorThunk
uCi:_PatternCompiler_EmitCount_m3609178511
rrb:__ZN15QualitySettings23VirtualRedirectTransferER24GenerateTypeTreeTransfer
kSi:_U3CCreateWhereIteratorU3Ec__Iterator1D_1_System_Collections_Generic_IEnumerableU3CTSourceU3E_GetEnumerator_m2682676065_gshared
R5g:_GUIStyle_Internal_GetCursorStringIndex_m1491806746
Alg:__ZL89PointerEventData_t1599784723_CustomAttributesCacheGenerator_U3CpositionU3Ek__BackingFieldP21CustomAttributesCache
Yfj:__ZN6il2cpp2os10FileHandleC2Ev
xhc:__Z59Register_UnityEngine_MonoBehaviour_Internal_CancelInvokeAllv
hZf:__ZL84Encoding_t663144255_CustomAttributesCacheGenerator_Encoding_GetByteCount_m4104502544P21CustomAttributesCache
ESd:__ZN23InterfaceActionInvoker1IP25AxisEventData_t1524870173E6InvokeEjP11Il2CppClassP12Il2CppObjectS1_
$ug:_ObjRef_set_TypeInfo_m1661789743
n6i:__ZN30dense_hashtable_const_iteratorINSt3__24pairIK10KeyWrapperIPK19Il2CppGenericMethodEPK26Il2CppGenericMethodIndicesEES6_N6il2cpp8metadata23Il2CppGenericMethodHashEN14dense_hash_mapIS6_SA_SE_NS6_14EqualsComparerINSD_26Il2CppGenericMethodCompareEEENS0_9allocatorISB_EEE9SelectKeyESI_SK_EppEv
y3g:_GUISkin_get_box_m533626169
zAf:_HybridDictionary_Add_m1037587952
u8g:_Mathf_Cos_m238853451
XMc:_UNITY_FT_Request_Metrics
bea:__ZN7Texture8TransferI18StreamedBinaryReadILb0EEEEvRT_
euj:__ZN6il2cpp6icalls8mscorlib6System10Reflection10MonoMethod29get_IsGenericMethodDefinitionEP22Il2CppReflectionMethod
Mqj:__ZN6il2cpp2vm6Thread21AllocThreadStaticDataEi
jFi:__ZN23InterfaceActionInvoker4IiibP19LinkRef_t2090853131E6InvokeEjP11Il2CppClassP12Il2CppObjectiibS1_
JCd:_DateTime_YearMonthDayFormats_m4204607055
eYd:_ColorBlock_set_disabledColor_m3502887543_AdjustorThunk
xDj:__ZN30dense_hashtable_const_iteratorINSt3__24pairIK10KeyWrapperIPK19Il2CppGenericMethodEP10MethodInfoEES6_N6il2cpp8metadata23Il2CppGenericMethodHashEN14dense_hash_mapIS6_S9_SD_NS6_14EqualsComparerINSC_26Il2CppGenericMethodCompareEEENS0_9allocatorISA_EEE9SelectKeyESH_SJ_EppEv
wO:__Z13RegisterClassI13AudioListenerEvv
WTi:_InvokableCall_1_Find_m951110817_gshared
NRi:_Aes__ctor_m4020215067
xD:__ZN23AnimationOffsetPlayable11GetPositionEv
src:__Z18Transfer_BlittableI9JSONWriteLb0E8Vector3fEvRK29SerializationCommandArgumentsR31RuntimeSerializationCommandInfo
i7:__ZN13RuntimeStaticI17UniqueIDGeneratorLb0EE13StaticDestroyEPv
Wf:_emscripten_glUniform4i
LXf:__ZL46MD5_t1507972490_CustomAttributesCacheGeneratorP21CustomAttributesCache
z0d:_Graphic_OnDisable_m2360886868
wYi:_ObjectPool_1_Release_m1615270002_gshared
gf:_emscripten_glUniform4f
zj:___unlock
zFj:_GC_default_oom_fn
Kwh:_ScrollRect_InternalCalculateOffset_m3083065267
_Hh:_InternalEnumerator_1_System_Collections_IEnumerator_Reset_m1561424184_AdjustorThunk
Exd:_Comparer_Compare_m4132969818
CM:__ZN20SoundChannelInstance19setReverbPropertiesEP29FMOD_REVERB_CHANNELPROPERTIES
m6d:_U3CCaretBlinkU3Ec__Iterator0_System_Collections_Generic_IEnumeratorU3CobjectU3E_get_Current_m3541562536
bMh:_InternalEnumerator_1__ctor_m2808001655_AdjustorThunk
eJh:_InternalEnumerator_1_System_Collections_IEnumerator_Reset_m2571770313_AdjustorThunk
MLg:_FieldInfo_get_UMarshal_m1934544188
UWh:__Z68RuntimeInvoker_Void_t1841601450_IntPtr_t_MonoMethodInfoU26_t16045984PK10MethodInfoPvPS2_
uRh:__Z86RuntimeInvoker_Int32_t2071877448_Int32_t2071877448_Int32_t2071877448_Int32_t2071877448PK10MethodInfoPvPS2_
ZC:__ZNK26AnimatorControllerPlayable14IsInTransitionEi
unh:_DefaultComparer_Equals_m2171836276_gshared
Dsj:__ZN6il2cpp2vm9Exception18GetFormatExceptionEPKc
rci:__Z56RuntimeInvoker_Void_t1841601450_ResourceInfo_t3933049236PK10MethodInfoPvPS2_
HVf:__ZL55IMessageSink_t2189618969_CustomAttributesCacheGeneratorP21CustomAttributesCache
ikc:__Z40Register_UnityEngine_Transform_IsChildOfv
x5g:_GUIStyle_Draw_m1435796321
wvd:_ArrayList_Sort_m923359189
dAh:_Text_CalculateLayoutInputVertical_m1732119136
tec:__Z45Register_UnityEngine_Display_GetSystemExtImplv
NIa:__ZN9GfxDevice31DrawIndexedNullGeometryIndirectE16GfxPrimitiveTypeP9GfxBuffer15ComputeBufferIDj
zEh:_InternalEnumerator_1_System_Collections_IEnumerator_get_Current_m3088751576_gshared
WXh:__Z78RuntimeInvoker_Void_t1841601450_Int64_t909078037_Il2CppObject_Int64_t909078037PK10MethodInfoPvPS2_
pki:_Bounds_set_center_m2069004927_AdjustorThunk
elf:_X509Certificate_GetSubjectName_m2120755276
Doc:__Z46GUIStyle_CUSTOM_Internal_DrawWithTextSelectionP12Il2CppObjectR43MonoInternal_DrawWithTextSelectionArguments
KWi:__ZL17log2withScale_128yyi
P8f:__ZL58ResourceRequest_t2560315377_CustomAttributesCacheGeneratorP21CustomAttributesCache
x$c:__ZNSt3__218__insertion_sort_3IRNS_6__lessIN2UI14DepthSortEntryES3_EEPS3_EEvT0_S7_T_
ENg:_MonoField_CheckGeneric_m1527550038
zZ:__ZN13RuntimeStaticI15DirectorManagerLb0EE16StaticInitializeEPv
Euc:__ZN8JSONRead8TransferI23ManagedObjectTransfererEEvRT_PKc17TransferMetaFlagsb
UTg:_Thread_get_ManagedThreadId_m1995754972
HQd:_BaseInput_get_touchCount_m998724785
Zxb:__ZN11TimeManager6UpdateEv
lKi:_X509Chain_get_Status_m2726750609
d6d:_InputField_get_preferredWidth_m3185355225
g1g:_GUIUtility_get_pixelsPerPoint_m2667928361
CKe:_Collection_1_RemoveItem_m1406181352_gshared
LTg:_Thread_SetState_m3198426726
Qvd:_ArrayListWrapper_Contains_m1158465965
lke:_Array_swap_TisColor32_t874517518_m2203309732_gshared
Xnf:_BigInteger_op_LessThan_m3825358479
APj:_fflush
voa:__ZN17LightProbeContext4InitERK16LightmapSettingsRK14RenderSettings
xrd:_Convert_ToInt32_m55151042
n1d:_GraphicRaycaster_Raycast_m1206612976
eNj:__GLOBAL__sub_I_Error_cpp
HEi:_Alternation_GetWidth_m4218808325
oTe:_ReadOnlyCollection_1_System_Collections_IList_Insert_m2651065875_gshared
ONf:__ZL80Il2CppArray_CustomAttributesCacheGenerator_Array_SetValue_m169741241____indices1P21CustomAttributesCache
iia:__ZN10ColorRGBAf8TransferI19StreamedBinaryWriteILb0EEEEvRT_
PPc:_ft_bitmap_glyph_bbox
NBf:_TypeConverterAttribute__ctor_m4061167050
szj:__ZN6il2cpp2vm11MethodStack17GetStackFramesRawEv
Z$g:_Font_add_textureRebuilt_m1282639736
ylh:_Dictionary_2_ContainsValue_m2760581195_gshared
iHj:_GC_reclaim_uninit
s1a:__Z34ProcessIndexListIsNodeVisibleStep2RK22SceneCullingParametersPK9SceneNodePK4AABBR9IndexList
rCb:__ZN10MonoScriptD2Ev
Zja:__ZN6prcoreL12RemapGenericI17TexFormatARGB888817TexFormatBGRA8888EEvPKNS_9InnerInfoE
Ryh:_Slider_OnRectTransformDimensionsChange_m4109401172
XDf:_WebHeaderCollection_Get_m3391944907
fZ:__GLOBAL__sub_I_half_cpp
Rfc:__Z39Input_CUSTOM_INTERNAL_get_mousePositionP8Vector3f
ASc:_tt_cmap13_char_next
Dwg:_ServerIdentity__ctor_m1576469955
yOa:__ZN9ShaderLab4Pass16SetupPassOptionsEv
isi:_AnimatorControllerPlayable_INTERNAL_CALL_SetTriggerID_m508896534
XWi:_UnityEvent_4__ctor_m3102731553_gshared
Vei:__Z78RuntimeInvoker_Int32_t2071877448_UICharInfo_t3056636800_UICharInfo_t3056636800PK10MethodInfoPvPS2_
jh:_JS_Sound_ReleaseInstance
Big:__ZL72IL2CPPStructAlignmentAttribute_t130316838_CustomAttributesCacheGeneratorP21CustomAttributesCache
Pua:__ZN13GfxDeviceGLES19DrawBuffersIndirectEP9GfxBufferPK18VertexStreamSourceiP17VertexDeclaration17ShaderChannelMask16GfxPrimitiveType15ComputeBufferIDj
eze:_List_1_Shift_m439051997_gshared
Deh:_Renderer_get_sortingLayerID_m2403577271
Yvi:_InAttribute__ctor_m1401060713
cZj:_emscripten_glPixelStorei__wrapper
HJd:_Decimal_System_IConvertible_ToDecimal_m1541432424_AdjustorThunk
IQb:__Z29Transfer_Blittable_ArrayFieldI18StreamedBinaryReadILb0EEaEvRT_R9ArrayInfoRK23StaticTransferFieldInfo
lic:__Z21Resources_CUSTOM_LoadP12Il2CppStringP12Il2CppObject
Fm:FUNCTION_TABLE_diddi
Smd:_EncoderExceptionFallbackBuffer__ctor_m3538569575
sic:__Z26Material_CUSTOM_SetIntImplP12Il2CppObjectii
$Ze:_Int16_System_IConvertible_ToSingle_m3277935657_AdjustorThunk
_cj:__ZNSt3__26vectorIPK10MethodInfoNS_9allocatorIS3_EEE21__push_back_slow_pathIRKS3_EEvOT_
Eji:_AttributeHelperEngine_CheckIsEditorScript_m2980171478
G3b:__ZN8GUILayerD2Ev
Rzi:_InternalRemotingServices__cctor_m3821625125
Rec:__Z42Register_UnityEngine_RectOffset_get_bottomv
MQg:_StringBuilder_Insert_m3322917127
Dmh:_DefaultComparer_Equals_m724229128_gshared
Aye:_List_1__cctor_m1337542316_gshared
Wfh:_Enumerator_VerifyCurrent_m1702320752_AdjustorThunk
HBh:_ArrayReadOnlyList_1_Clear_m2539474626_gshared
vvg:__ZN21InterfaceFuncInvoker0IP24ObjectU5BU5D_t3614634134E6InvokeEjP11Il2CppClassP12Il2CppObject
$Ui:_UnityAction_1_EndInvoke_m2603848420_gshared
mEd:_Convert_ToDouble_m3520060872
vYj:_emscripten_glUniform1f__wrapper
mTj:dynCall_di
Qxf:_SslCipherSuite_ComputeServerRecordMAC_m1876572367
bOc:__ZN20TextRenderingPrivate19NativeTextGeneratorC2ERK11UTF16StringPNS_8FontImplE11ColorRGBA32ifRK8Vector2fbifiibffbbbP13dynamic_arrayIN2UI8UIVertexELj4EE
crc:__Z28RegisterModule_JSONSerializev
dF:__Z111Register_UnityEngine_Experimental_Director_AnimatorControllerPlayable_INTERNAL_CALL_GetAnimatorClipInfoInternalv
dTg:_Interlocked_CompareExchange_m3227034792
VCg:_HashAlgorithm_get_Hash_m931854461
Ffj:_il2cpp_monitor_enter
hNh:_DefaultComparer_Compare_m3564013922_gshared
yXb:__ZN2UI13RectTransform8TransferI14SafeBinaryReadEEvRT_
$8b:__Z20IsHumanControllingUsv
tRa:__ZNK19RenderEventsContext21ExecuteCommandBuffersEijR17ShaderPassContextR15RenderNodeQueueP19ProfilerInformationi
eJe:_Collection_1_RemoveAt_m3454169520_gshared
aV:__ZNK20DynamicHeapAllocatorI17LowLevelAllocatorE10GetPtrSizeEPKv
Nti:_AnimatorControllerPlayable_PlayInFixedTime_m172593751
Ueb:__ZN10systeminfo21GetPersistentDataPathEv
t_d:_Dropdown_set_value_m2945561009
Gua:__ZN13GfxDeviceGLES17DestroyGpuProgramEPK10GpuProgram
JXe:_GregorianCalendar_GetMonth_m523739832
hFb:__Z44InitializeTransferFunctionScriptingTraitsForI18StreamedBinaryReadILb0EEEvR31TransferFunctionScriptingTraits
sZa:__ZNSt3__218__insertion_sort_3IR23CompareReflectionProbesP31RuntimeReflectionProbeBlendInfoEEvT0_S5_T_
FJb:__ZN12NativeBufferI27Converter_SimpleNativeClassI8GradientEE15SetupForWritingER9ArrayInfo
VOe:_ReadOnlyCollection_1_System_Collections_ICollection_get_IsSynchronized_m2987885125_gshared
m0g:_GameObject_AddComponent_m3757565614
daa:__ZN12_GLOBAL__N_113StaticDestroyEPv
Vai:__Z54RuntimeInvoker_Boolean_t3825574718_Vector4_t2243707581PK10MethodInfoPvPS2_
yZe:_Guid_ToString_m51661589
elc:__ZNK8GUIStyle4DrawER8GUIStateRK5RectTIfER10GUIContentbbbb
wzh:_Text_set_font_m1095513810
f1j:_glUnmapBuffer__wrapper
vHd:_DateTime_System_IConvertible_ToUInt32_m1363211018_AdjustorThunk
w3d:_InputField_get_cachedInputTextGenerator_m881618486
Ali:_Canvas_get_rootCanvas_m1790974328
Jgc:__Z32Mesh_CUSTOM_ExtractArrayFromListP12Il2CppObject
GEg:_Binder_get_DefaultBinder_m965620943
hvc:__ZN8JSONRead21TransferSTLStyleArrayINSt3__26vectorI8Gradient13stl_allocatorIS3_L18MemLabelIdentifier1ELi16EEEEEEvRT_17TransferMetaFlags
cvf:_SecurityParameters_Clear_m3409219757
vyb:__ZNSt3__218__insertion_sort_3IRNS_6__lessINS_4pairIPKN5Unity4TypeE7Hash128EES8_EEPS8_EEvT0_SC_T_
aDi:_PatternCompiler_EmitAlternationEnd_m889639343
XKb:__ZN10RectOffset8TransferI24GenerateTypeTreeTransferEEvRT_
Zpd:_SimpleEnumerator_get_Current_m482975946
Q9b:__Z18GetResourceManagerv
eQj:_srand
akj:__ZNK15dense_hashtableINSt3__24pairIK10KeyWrapperINS1_IPK10MethodInfoP11Il2CppClassEEEjEES9_17ReflectionMapHashIS8_EN14dense_hash_mapIS9_jSD_NS9_14EqualsComparerINS0_8equal_toIS8_EEEENS0_9allocatorISB_EEE9SelectKeyESI_SK_E10test_emptyERK30dense_hashtable_const_iteratorISB_S9_SD_SM_SI_SK_E
L9e:_MonoTypeInfo__ctor_m1398838196
j$c:__ZN2UI13CanvasManager19RemoveDirtyRendererEPNS_6CanvasEPNS_14CanvasRendererE
Kch:_Rect_get_position_m24550734
yAh:_Toggle_Rebuild_m929023818
SN:__ZN7Texture34UpdateFileTextureUploadInstructionEP28FileTextureUploadInstructionj
Vaa:__Z15GetIApplicationv
Kji:_AudioClip_InvokePCMSetPositionCallback_Internal_m2304858844
e6c:__ZN11UnityEngine15PlatformWrapper25GetGraphicsRendererStringEv
ESh:__Z51RuntimeInvoker_UInt16_t986882611_Decimal_t724701077PK10MethodInfoPvPS2_
r5d:_InputField_KeyPressed_m3066588581
PNi:_Time_get_unscaledTime_m862335845
M7i:__ZNK15dense_hashtableINSt3__24pairIK10KeyWrapperI13dynamic_arrayIPK10Il2CppTypeLj4EEEPFvvEEES8_N6il2cpp8metadata19Il2CppSignatureHashEN14dense_hash_mapIS8_SB_SF_NS8_14EqualsComparerINSE_22Il2CppSignatureCompareEEENS0_9allocatorISC_EEE9SelectKeyESJ_SL_E13find_positionERS9_
Wxh:_Selectable_DoStateTransition_m539253088
_dd:_SHA512_Create_m439875055
Vb:invoke_vi
Sdd:_SHA384Managed_update_m2629600295
dEc:__ZNSt3__26vectorINS0_IN10ClipperLib8IntPointENS_9allocatorIS2_EEEENS3_IS5_EEE7reserveEj
IJa:__ZN15dense_hashtableINSt3__24pairIKN4core12basic_stringIcNS2_20StringStorageDefaultIcEEEEP20ArchiveStorageReaderEES6_20StringHash32FunctionIS6_EN14dense_hash_mapIS6_S9_SC_NS0_8equal_toIS6_EE13stl_allocatorISA_L18MemLabelIdentifier54ELi16EEE9SelectKeyESF_SI_ED2Ev
Tb:invoke_vd
tb:invoke_vf
Y5g:_GUIStyle_Internal_CalcSizeWithConstraints_m3375255978
XKh:_InternalEnumerator_1__ctor_m32322958_AdjustorThunk
s5:__ZNK10GameObject8IsActiveEv
oW:__ZN18ScreenManagerWebGL21SetCursorInsideWindowEb
IAg:_SByte_System_IConvertible_ToUInt32_m4256495110
jTd:_PointerEventData_set_eligibleForClick_m2036057844
DDa:__ZN18GfxFramebufferGLES23SetupDefaultFramebufferEPP17RenderSurfaceBaseS2_N2gl6HandleILNS3_10ObjectTypeE9EEE
IPj:_mbsinit
f5g:_GUIStyle_get_Internal_clipOffset_m4237737448
Mkg:__ZL70EventSystem_t3466835263_CustomAttributesCacheGenerator_m_FirstSelectedP21CustomAttributesCache
wW:__ZN13ScreenManager18RequestOrientationE17ScreenOrientation
E$i:__ZN6il2cpp2vm5Class12SetupMethodsEP11Il2CppClass
uS:__ZN11UnityEngine15CloudWebService13WWWRestClient18GetResponseHeadersEv
icc:__Z39DeleteLastPathNameComponentWithAnySlashRKN4core12basic_stringIcNS_20StringStorageDefaultIcEEEE
xU:__ZN13EmscriptenWWW14BlockUntilDoneEv
Jog:__ZL68InputField_t1631627530_CustomAttributesCacheGenerator_m_KeyboardTypeP21CustomAttributesCache
aBh:_VerticalLayoutGroup_CalculateLayoutInputHorizontal_m497637066
HWd:_Button_get_onClick_m1595880935
RXi:_ListPool_1_Release_m3716853512_gshared
Mva:__ZN13GfxDeviceGLES17UploadTextureCubeE9TextureIDPKhiii13TextureFormati18TextureUploadFlags17TextureColorSpace
seh:_RectTransformUtility_PixelAdjustPoint_m560908615
qAi:_MethodCall__ctor_m4106494862
aEg:_Module_IsResource_m663979284
Toc:__Z37Register_UnityEngine_GUIStyle_Cleanupv
Oa:invoke_iiifii
J3b:__ZN8GUILayer12AddToManagerEv
w7f:__ZL109TouchScreenKeyboard_t601950206_CustomAttributesCacheGenerator_TouchScreenKeyboard_Open_m3410222954____secure4P21CustomAttributesCache
rdj:__ZN6il2cpp6icalls8mscorlib6System8MonoType13IsPointerImplEP20Il2CppReflectionType
YDd:_Convert_ToDecimal_m2284596541
dtb:__ZN14Texture2DArray34UpdateFileTextureUploadInstructionEP28FileTextureUploadInstructionj
Si:_emscripten_glFramebufferRenderbuffer
G2f:__ZL64CipherSuiteCollection_t2431504453_CustomAttributesCacheGeneratorP21CustomAttributesCache
ixi:__ZN21InterfaceFuncInvoker3IP12Il2CppObjectP8String_tS1_PS3_E6InvokeEjP11Il2CppClassS1_S3_S1_S4_
fwf:_TlsServerCertificateRequest_ProcessAsSsl3_m3017921864
s0e:_Int64_GetHashCode_m4047499913
C4a:__ZN9Transform30EnsureTransformHierarchyExistsEv
gP:__ZN11AudioModule26SetDefaultMicrophoneDriverEPv
l5f:__ZL102Camera_t189460977_CustomAttributesCacheGenerator_Camera_INTERNAL_CALL_ScreenToViewportPoint_m529506484P21CustomAttributesCache
vqd:_Attribute_IsDefined_m216577166
zud:_Char_ToUpper_m109978609
CGh:_InternalEnumerator_1_get_Current_m1089848479_gshared
lMd:_Double_System_IConvertible_ToInt64_m3798425616
UUd:_StandaloneInputModule_get_repeatDelay_m3025279
Hg:___cxa_find_matching_catch_4
nhc:__ZN13MonoBehaviour13StopCoroutineEPKc
F7a:__ZNSt3__26vectorINS_4pairIN4core12basic_stringIcNS2_20StringStorageDefaultIcEEEEPK17MessageIdentifierEENS_9allocatorISA_EEE12__move_rangeEPSA_SE_SE_
pVa:__ZN14qsort_internal17MedianOfThreeSwapIP17RODataReplacement19ROSorterReplacementEEvT_S4_S4_T0_
TFe:_Collection_1_System_Collections_IList_Insert_m3303840316_gshared
v_i:__ZNK15dense_hashtableINSt3__24pairIK10KeyWrapperIPK22Il2CppGenericParameterEP11Il2CppClassEES6_N6il2cpp5utils11PointerHashIS4_EEN14dense_hash_mapIS6_S9_SE_NS6_14EqualsComparerINS0_8equal_toIS5_EEEENS0_9allocatorISA_EEE9SelectKeyESJ_SL_E3endEv
ecc:__ZN17TransformInternal36OnScaleChangedCalculateTransformTypeE15TransformAccess
HJa:__ZN15dense_hashtableINSt3__24pairIKN4core12basic_stringIcNS2_20StringStorageDefaultIcEEEEP20ArchiveStorageReaderEES6_20StringHash32FunctionIS6_EN14dense_hash_mapIS6_S9_SC_NS0_8equal_toIS6_EE13stl_allocatorISA_L18MemLabelIdentifier54ELi16EEE9SelectKeyESF_SI_E4swapERSL_
Uwd:_SynchronizedArrayListWrapper_InsertRange_m709359548
eMa:__ZN17ArchiveFileSystem10ToAbsoluteEPKc
Rnf:_BigInteger_op_Modulus_m13450242
Vkb:__ZN4PPtrI8MaterialE8TransferI18StreamedBinaryReadILb0EEEEvRT_
Sbi:__Z56RuntimeInvoker_Int32_t2071877448_RaycastResult_t21186376PK10MethodInfoPvPS2_
OEd:_Convert_ToInt32_m2988544165
Tie:_Array_Resize_TisColor32_t874517518_m2219502085_gshared
ww:__ZN7mecanim6CRCKeyENS_7eStringE
Izf:_SslStreamBase_get_CanWrite_m2069502593
aZb:__ZL12SetPrefValueRKN4core12basic_stringIcNS_20StringStorageDefaultIcEEEERK9PrefValue
a8h:__Z31RuntimeInvoker_Mode_t1081683921PK10MethodInfoPvPS2_
ySb:__ZL30ReconstructParamNamesFromTableIN9ShaderLab20SerializedSubProgram15MatrixParameterEEvRK14dense_hash_mapIiN4core17string_with_labelILi1EEE18SInt32HashFunctionNSt3__28equal_toIiEE13stl_allocatorINS8_4pairIKiS6_EEL18MemLabelIdentifier1ELi16EEERNS8_6vectorIT_NS8_9allocatorISL_EEEE
e0:__ZN19ShaderPropertySheet20ReservePropertyCountEj
Jzj:__ZN6il2cpp5utils11StringUtils6PrintfEPKcz
kKc:__ZN16NovodexAllocatorD0Ev
Sia:__ZN15NameToObjectMapI6ShaderNSt3__23mapI4PPtrIS0_EN4core12basic_stringIcNS5_20StringStorageDefaultIcEEEENS1_4lessIS4_EENS1_9allocatorINS1_4pairIKS4_S9_EEEEEENS1_8multimapIS9_S4_NSA_IS9_EENSC_INSD_IKS9_S4_EEEEEEE4FindERSK_
cgh:_ShimEnumerator_Reset_m98005789_gshared
Wpa:__ZN24GenerateTypeTreeTransfer21TransferResourceImageE19ActiveResourceImagePKcR13StreamingInfoPvjiPKN5Unity4TypeE
Fah:_Object_INTERNAL_CALL_Internal_InstantiateSingle_m3932420250
Upf:_PKCS1_Compare_m552424558
kQb:__Z18Transfer_BlittableI18StreamedBinaryReadILb0EELb0EyEvRK29SerializationCommandArgumentsR31RuntimeSerializationCommandInfo
kRe:_ReadOnlyCollection_1_System_Collections_IList_set_Item_m1377990618_gshared
CPa:_UNITY_png_zstream_error
AJg:_ILGenerator_make_room_m373147874
dmh:_Dictionary_2_Init_m1045257495_gshared
C0j:_emscripten_glLinkProgram__wrapper
Ssf:_TlsClientSettings_set_TargetHost_m3421266913
xif:_PKCS1_Verify_v15_m2571212635
Llb:__ZNSt3__212__deque_baseI18ReflectionProbeJobNS_9allocatorIS1_EEED2Ev
Kv:__ZN11UnityEngine9Animation27DestroyAnimationSetBindingsEPNS0_20AnimationSetBindingsERN7mecanim6memory9AllocatorE
ESb:__ZN15dense_hashtableINSt3__24pairIKiN4core17string_with_labelILi1EEEEEi18SInt32HashFunctionN14dense_hash_mapIiS5_S7_NS0_8equal_toIiEE13stl_allocatorIS6_L18MemLabelIdentifier1ELi16EEE9SelectKeyESA_SD_E13set_empty_keyERKS6_
TB:__ZN8Animator12CleanupClassEv
Imd:_DecoderReplacementFallbackBuffer__ctor_m1305504326
fvc:__Z13TransferFieldI8JSONReadLb0E27Converter_SimpleNativeClassI10RectOffsetEEvRK23StaticTransferFieldInfoR31RuntimeSerializationCommandInfoRT1_
ikd:_String_IndexOf_m570401060
f3d:_Image_CalculateLayoutInputVertical_m1340533162
XMd:_Enum_System_IConvertible_ToDateTime_m2924690746
wdb:__ZN11AssetBundle9AssetInfo8TransferI14SafeBinaryReadEEvRT_
V_d:_Dropdown_CreateBlocker_m4109366440
QCg:_HashAlgorithm_System_IDisposable_Dispose_m2106335965
pvj:__GLOBAL__sub_I_GenericMetadata_cpp
Taf:_NotImplementedException__ctor_m1305569814
xbi:__Z59RuntimeInvoker_Int32_t2071877448_KeyValuePair_2_t1174980068PK10MethodInfoPvPS2_
Zbh:_RangeAttribute__ctor_m1657271662
Wfg:__ZL67GUISettings_t622856320_CustomAttributesCacheGenerator_m_CursorColorP21CustomAttributesCache
dlc:__ZNK8GUIStyle4DrawER8GUIStateRK5RectTIfER10GUIContentib
Fcj:__ZN6il2cpp6icalls8mscorlib6System8MonoType18GetFields_internalEP20Il2CppReflectionTypeiS5_
V0a:__Z24CalculateSpotLightBoundsffRK10Matrix4x4fR15SpotLightBounds
ocf:_TailoringInfo__ctor_m2248501932
dda:__ZNK13RenderTexture21GetShadowSamplingModeEv
vQ:__ZN23CloudWebServicesManager23VirtualRedirectTransferER14SafeBinaryRead
qwd:_FixedSizeArrayListWrapper_InsertRange_m2690348965
QDb:__Z19ShouldTransferFieldR32SerializationCommandQueueBuilder17ScriptingClassPtriR18TransferField_InfoRK20CoreScriptingClasses
ZKg:_FieldInfo_get_IsStatic_m1411173225
V4e:_MemoryStream_Read_m2289595005
xL:__ZN5audio5mixer22UpdateAudioMixerMemoryERKNS0_18AudioMixerConstantERNS0_16AudioMixerMemoryEfPN4FMOD6SystemEf
OKc:__ZL21InitializeCachedStripPv
Vcd:_SignatureDescription_set_DigestAlgorithm_m3219799565
khi:_CustomEventData_Add_m4139356558
rrj:__ZN6il2cpp6icalls8mscorlib6System9Threading6Thread23GetCachedCurrentCultureEP12Il2CppThread
rkg:__ZL94PlayerEditorConnectionEvents_t2252784345_CustomAttributesCacheGenerator_messageTypeSubscribersP21CustomAttributesCache
pxh:_Selectable_get_allSelectables_m3045831006
qVa:__ZNK6Camera22GetWorldToCameraMatrixEv
fqd:_ArrayTypeMismatchException__ctor_m2892687300
ozj:__ZN6il2cpp2vm12GenericClass11IsValueTypeEP18Il2CppGenericClass
Qke:_Dictionary_2_Do_CopyTo_TisKeyValuePair_2_t3716250094_TisIl2CppObject_m715850636_gshared
dDb:__ZN13MonoBehaviour7SetNameEPKc
Lqf:_ContentInfo__ctor_m3579805263
mBc:__ZN25b2PolygonAndCircleContact7DestroyEP9b2ContactP16b2BlockAllocator
xwh:_ScrollRect_get_verticalNormalizedPosition_m1701804869
Dna:__ZN18AwakeFromLoadQueue5ClearEv
Phh:_Enumerator_get_Current_m2986380627_AdjustorThunk
G$a:__ZNSt3__27__sort5IR15ReflProbeSorterPP15ReflectionProbeEEjT0_S6_S6_S6_S6_T_
VZ:__ZN8Playable10DisconnectEPS_i
uk:_glGenTransformFeedbacks
Qra:__ZN13LoadOperationD2Ev
dhf:_KeyPairPersistence__ctor_m1817312194
J8d:_Array_InternalArray__ICollection_Contains_TisMark_t2724874473_m1640201705_gshared
xwi:_ActivatedClientTypeEntry_get_ContextAttributes_m53051138
Rla:__Z21PlayerStartFirstSceneb
pHg:_TypeBuilder_get_AssemblyQualifiedName_m2097258567
Gia:__ZNSt3__27__sort5IRPFbRKNS_4pairIN9ShaderLab16FastPropertyNameEN18UnityPropertySheet11UnityTexEnvEEES8_EPS6_EEjT0_SD_SD_SD_SD_T_
hza:__ZNK7ApiGLES18GetExtensionStringEv
WFa:__ZN31TransformFeedbackSkinPoseBufferD0Ev
wYj:_emscripten_glVertexAttrib1f__wrapper
nLa:__ZNK12HandlerChain4SizeERK13FileEntryData
Ymh:_DefaultComparer_Equals_m1281232537_gshared
fp:FUNCTION_TABLE_iiiiiiiii
E4d:_InputField_set_asteriskChar_m619206227
UBg:_DES_IsSemiWeakKey_m3967392585
Y5:__Z24GetComponentOrScriptNameRN5Unity9ComponentE
hEc:__Z22GetPhysicsGroundBody2Dv
dVe:_Comparison_1__ctor_m2159122699_gshared
f_e:_Int16_System_IConvertible_ToUInt32_m883204517_AdjustorThunk
Ncg:__ZL137AnimatorControllerPlayable_t4078305555_CustomAttributesCacheGenerator_AnimatorControllerPlayable_CrossFade_m2119841183____normalizedTime3P21CustomAttributesCache
AOg:_MonoProperty_get_PropertyType_m1921201152
rZd:_FloatTween_TweenValue_m3881535116_AdjustorThunk
YFj:_GC_allochblk
n5c:__ZN22BaseUnityConnectClient19SendAppRunningEventEv
Gna:__Z15UnloadGameScenev
a1j:_glCheckFramebufferStatus__wrapper
Vjg:__ZL59WriteOnlyAttribute_t14323075_CustomAttributesCacheGeneratorP21CustomAttributesCache
MB:__ZN16MecanimAnimationD0Ev
Wmf:_BigInteger_get_Rng_m2525288368
wxg:_BinaryCommon_IsPrimitive_m2132448955
yx:__ZN7mecanim9animation14DeltasFromClipERKNS0_18ClipMuscleConstantERKNS0_12ClipBindingsERKNS_14ValueArrayMaskERNS_10ValueArrayESB_SB_
qIf:_X509ExtensionEnumerator_Reset_m3200687545
Fxd:_CaseInsensitiveHashCodeProvider__ctor_m3775398833
yNh:_Comparer_1_System_Collections_IComparer_Compare_m674728644_gshared
A7f:__ZL80Input_t1785128008_CustomAttributesCacheGenerator_Input_GetButtonDown_m2792523731P21CustomAttributesCache
Dfc:__Z36Renderer_Get_Custom_PropSortingOrderP12Il2CppObject
djj:__ZNK15dense_hashtableINSt3__24pairIK10KeyWrapperIPK10Il2CppTypeEjEES6_N6il2cpp8metadata14Il2CppTypeHashEN14dense_hash_mapIS6_jSB_NS6_14EqualsComparerINSA_26Il2CppTypeEqualityComparerEEENS0_9allocatorIS8_EEE9SelectKeyESF_SH_E13find_positionERS7_
Uca:__ZN7Texture5ResetEv
zxc:__ZNK14b2CapsuleShape7RayCastEP15b2RayCastOutputRK14b2RayCastInputRK11b2Transformi
Deg:__ZL82Canvas_t209405766_CustomAttributesCacheGenerator_Canvas_get_renderMode_m1816014618P21CustomAttributesCache
PJb:__Z18Transfer_BlittableI24GenerateTypeTreeTransferLb1EhEvRK29SerializationCommandArgumentsR31RuntimeSerializationCommandInfo
cvb:__ZN10VertexData10DeallocateEv
_Ic:__ZN10Collider2D16TransformChangedEi
Hgj:__ZNSt3__214__split_bufferIiRNS_9allocatorIiEEEC2EjjS3_
ybc:__ZNK16TypeTreeIterator10ByteOffsetEv
zce:_Array_FindLastIndex_TisIl2CppObject_m3885928623_gshared
e0d:_Graphic_get_rectTransform_m2697395074
d8:__ZnwjRKSt9nothrow_t
cs:__ZN8Animator11ClearObjectEv
vAb:__ZNSt3__26vectorIi13stl_allocatorIiL18MemLabelIdentifier12ELi16EEE8__appendEj
Aaa:__Z20PlayerLoadFirstSceneb
Xga:__ZN14SafeBinaryRead19TransferSTLStyleMapINSt3__23mapI39DeprecatedFastPropertyNameSerializationN18UnityPropertySheet11UnityTexEnvENS1_4lessIS3_EENS1_9allocatorINS1_4pairIKS3_S5_EEEEEEEEvRT_17TransferMetaFlags
Chc:__Z45Register_UnityEngine_MonoBehaviour_IsInvokingv
pYh:__Z65RuntimeInvoker_Void_t1841601450_Int64_t909078037_Int64_t909078037PK10MethodInfoPvPS2_
cDf:_IPv6Address_set_ScopeId_m1442934355
VDc:__ZNSt3__27__sort4IRPFbPN10ClipperLib13IntersectNodeES3_EPS3_EEjT0_S8_S8_S8_T_
NPf:__ZL72PKCS12_t1362584794_CustomAttributesCacheGenerator_U3CU3Ef__switchU24mapBP21CustomAttributesCache
Nyg:_ObjectManager_RaiseOnDeserializedEvent_m512850179
Leg:__ZL83Canvas_t209405766_CustomAttributesCacheGenerator_Canvas_get_renderOrder_m2874842494P21CustomAttributesCache
skg:__ZL87PlayerEditorConnectionEvents_t2252784345_CustomAttributesCacheGenerator_connectionEventP21CustomAttributesCache
o5f:__ZL86Camera_t189460977_CustomAttributesCacheGenerator_Camera_get_allCamerasCount_m989474043P21CustomAttributesCache
kac:__Z35UnregisterSerializationCacheBuilderPFv17ScriptingClassPtrR23CachedSerializationDataRbE
xfa:__Z30GetBuiltinVectorParamArraySize24BuiltinShaderVectorParam
N8h:__Z31RuntimeInvoker_Axis_t1431825778PK10MethodInfoPvPS2_
kij:__ZNSt3__218uninitialized_copyIPNS_4pairIK10KeyWrapperINS1_IPK14Il2CppAssemblyP11Il2CppClassEEEjEESC_EET0_T_SE_SD_
acf:_CodePointIndexer__ctor_m797342079
Kog:__ZL64InputField_t1631627530_CustomAttributesCacheGenerator_m_LineTypeP21CustomAttributesCache
JXf:__ZL61KeyedHashAlgorithm_t1374150027_CustomAttributesCacheGeneratorP21CustomAttributesCache
tTi:_Predicate_1__ctor_m3243601712_gshared
mmg:__ZL103PointerEventData_t1599784723_CustomAttributesCacheGenerator_PointerEventData_set_clickCount_m2095939005P21CustomAttributesCache
w2a:__ZN21RendererUpdateManager11AddRendererER8Renderer
F_b:__Z13RegisterClassI15ResourceManagerEvv
dzg:_SerializationEntry_t3485203212_marshal_pinvoke_back
hub:__ZN14SafeBinaryRead21TransferSTLStyleArrayI13dynamic_arrayIfLj4EEEEvRT_17TransferMetaFlags
f_f:__ZL79Thread_t241561612_CustomAttributesCacheGenerator_Thread_GetHashCode_m2038641494P21CustomAttributesCache
Kzj:__ZN6il2cpp5utils11StringUtils11Utf16ToUtf8EPKDs
bNg:_MonoEventInfo_GetEventInfo_m2331957186
v6c:__ZN11UnityEngine15PlatformWrapper20IsRootedOrJailbrokenEv
VFf:_X509Certificate2_GetNameInfo_m402390219
Q0a:__Z33IntersectAABBPlaneBoundsOptimizedRK4AABBPKN4math7_float4Ei
cqd:_Swapper_BeginInvoke_m2652511022
xdh:_RectOffset_t3387826427_marshal_pinvoke_back
kSg:_UTF8Encoding_GetBytes_m2973831055
Tua:__ZN9GfxDevice19EndGeometryJobFrameEv
OZh:__Z49RuntimeInvoker_SByte_t454417549_Int32_t2071877448PK10MethodInfoPvPS2_
MUe:_Comparison_1_Invoke_m2645957248_gshared
KJb:__ZN27Converter_SimpleNativeClassI17AnimationCurveTplIfEE17ScriptingToNativeER18ScriptingObjectPtrPS1_
E_h:__Z197RuntimeInvoker_Boolean_t3825574718_Il2CppObject_Il2CppObject_Il2CppObject_Int32_t2071877448_DateTimeU26_t3448131235_SByte_t454417549_BooleanU26_t3168250738_SByte_t454417549_ExceptionU26_t1467204777PK10MethodInfoPvPS2_
PLj:__ZN6il2cpp8metadata24Il2CppGenericInstCompare7CompareERK10KeyWrapperIPK17Il2CppGenericInstES8_
k6i:__ZNK15dense_hashtableINSt3__24pairIK10KeyWrapperIPK19Il2CppGenericMethodEPK26Il2CppGenericMethodIndicesEES6_N6il2cpp8metadata23Il2CppGenericMethodHashEN14dense_hash_mapIS6_SA_SE_NS6_14EqualsComparerINSD_26Il2CppGenericMethodCompareEEENS0_9allocatorISB_EEE9SelectKeyESI_SK_E5beginEv
v0d:_Graphic_get_materialForRendering_m2600868951
yvf:_TlsClientSettings_get_ClientCertificate_m89435195
gXf:__ZL61AsymmetricAlgorithm_t784058677_CustomAttributesCacheGeneratorP21CustomAttributesCache
Zti:_AnimatorControllerPlayable_INTERNAL_CALL_PlayInternal_m3496633968
EJg:__ZN21InterfaceFuncInvoker1IiP12MemberInfo_tE6InvokeEjP11Il2CppClassP12Il2CppObjectS1_
oci:__Z54RuntimeInvoker_Void_t1841601450_ILTokenInfo_t149559338PK10MethodInfoPvPS2_
ZHe:_Collection_1_System_Collections_IList_Contains_m3210868188_gshared
SEi:_AnchorInfo_get_IgnoreCase_m2406760852
VHa:__ZN9GfxDevice22UploadTextureCubeArrayE9TextureIDPKhjii13TextureFormati18TextureUploadFlags17TextureColorSpace
a0b:__ZNK17AnimationCurveTplIfE8EvaluateEfPNS0_5CacheE
oNa:__Z31ManagerContextInitializeClassesv
Icj:__ZNSt3__213__vector_baseIP9FieldInfoNS_9allocatorIS2_EEED2Ev
sWe:_NumberFormatter_AppendIntegerString_m868842252
mQc:_ft_smooth_transform
EQf:__ZL53SortedList_t3004938869_CustomAttributesCacheGeneratorP21CustomAttributesCache
zNc:_UNITY_FT_List_Finalize
ALj:__ZN6il2cpp6icalls8mscorlib6System7Runtime8Remoting10Activation18ActivationServices34AllocateUninitializedClassInstanceEP20Il2CppReflectionType
FWa:__Z20LightAttenuateApproxRKfS0_
c3:__ZN9Scripting30SetCachedPtrOnScriptingWrapperE18ScriptingObjectPtrP6Object
_H:__ZNK12AudioManager26GetTypeInfoVirtualInternalEv
rMb:__Z18Transfer_BlittableI19StreamedBinaryWriteILb0EELb0EdEvRK29SerializationCommandArgumentsR31RuntimeSerializationCommandInfo
jcb:__ZN17LowLevelAllocator6MallocEj
Zld:_ASCIIEncoding_GetBytes_m3649277167
k1g:_GUILayoutUtility_Internal_GetWindowRect_m1287880151
oRh:__Z49RuntimeInvoker_Char_t3454481338_Int32_t2071877448PK10MethodInfoPvPS2_
Ukh:_Dictionary_2__ctor_m2457723796_gshared
Tzc:__ZN16b2PrismaticJoint4DumpEv
y5h:__Z49RuntimeInvoker_Il2CppObject_Il2CppObject_IntPtr_tPK10MethodInfoPvPS2_
zaf:_MonoType_GetObjectData_m2888677152
Cqa:__ZN18BlockRangeInternal16PopLastNodeIndexEP10BlockRangeji
o$g:_Version__ctor_m2972638031
ipe:_Enumerator_System_Collections_IEnumerator_Reset_m886102771_AdjustorThunk
sff:_Kernel_MultiplyByDword_m155008287
ytb:__ZN4MeshD0Ev
G9c:__ZL42RequestRecreateEyeTexturesBeforeNextUpdatev
Gih:_ValueCollection_System_Collections_Generic_ICollectionU3CTValueU3E_get_IsReadOnly_m3005456072_gshared
EQe:_ReadOnlyCollection_1_System_Collections_ICollection_get_SyncRoot_m1577944046_gshared
Nea:__ZNK6Camera20IsCurrentlyRenderingEv
Yrh:_LayoutUtility_U3CGetMinHeightU3Em__4_m1769295917
V1c:__Z36CanvasRenderer_CUSTOM_SetPopMaterialP12Il2CppObjectS0_i
_Xf:__ZL58RijndaelManaged_t1034060848_CustomAttributesCacheGeneratorP21CustomAttributesCache
esc:__Z18Transfer_BlittableI9JSONWriteLb0EdEvRK29SerializationCommandArgumentsR31RuntimeSerializationCommandInfo
pzc:__ZNK11b2GearJoint16GetReactionForceEf
Y5e:_TextReader__ctor_m3276128267
$se:_List_1_System_Collections_Generic_ICollectionU3CTU3E_get_IsReadOnly_m3598018290_gshared
SOe:_ReadOnlyCollection_1_System_Collections_IList_Insert_m3679749778_gshared
DAh:_Toggle_OnDidApplyAnimationProperties_m325835214
xOj:_wctomb
rsi:_AnimatorControllerPlayable_INTERNAL_CALL_IsParameterControlledByCurveString_m1715379406
wdc:__Z27Camera_CUSTOM_GetAllCamerasP11Il2CppArray
eDb:__ZNK13MonoBehaviour25GetNeedsPerObjectTypeTreeEv
bSj:__ZNSt11logic_errorD0Ev
IBd:_Convert_InternalFromBase64String_m3682756716
bd:___cxa_rethrow
Ctc:__Z18Transfer_BlittableI8JSONReadLb1EhEvRK29SerializationCommandArgumentsR31RuntimeSerializationCommandInfo
zGc:__ZN18Overlap2DQueryBase13ReportFixtureEP9b2Fixture
Kfg:__ZL86GUI_t4082743951_CustomAttributesCacheGenerator_U3CnextScrollStepTimeU3Ek__BackingFieldP21CustomAttributesCache
V9b:__ZN10systeminfo23SupportsLocationServiceEv
J7f:__ZL85Input_t1785128008_CustomAttributesCacheGenerator_Input_get_touchSupported_m3352846145P21CustomAttributesCache
hS:__ZNKSt3__26__treeINS_12__value_typeIN4core12basic_stringIcNS2_20StringStorageDefaultIcEEEES6_EENS_19__map_value_compareIS6_S7_NS_4lessIS6_EELb1EEENS_9allocatorIS7_EEE4findIS6_EENS_21__tree_const_iteratorIS7_PNS_11__tree_nodeIS7_PvEEiEERKT_
oEi:_Regex_System_Runtime_Serialization_ISerializable_GetObjectData_m4035555909
kVg:_TimeSpan_Add_m3228293154
$mh:_DefaultComparer_Equals_m4098991076_gshared
u4a:__ZN13MonoBehaviour8SetClassE17ScriptingClassPtr18ScriptingObjectPtr
qqf:_RC4__cctor_m523650203
uzi:_CrossContextDelegate_Invoke_m2908136830
lRi:_Locale_GetText_m3480617287
vmf:_ApplicationIdentity_ToString_m800036884
EW:__ZN20LocalFileSystemPosix4ReadER13FileEntryDatayyPvPy
e_a:__ZNSt3__211__sift_downIRN23ForwardShaderRenderLoop18RenderObjectSorterILb0EEEP21ForwardRenderPassDataEEvT0_S7_T_NS_15iterator_traitsIS7_E15difference_typeES7_
X7e:_UnmanagedMemoryStream_get_Position_m4093669769
QVf:__ZL83MethodDictionary_t1742974787_CustomAttributesCacheGenerator_U3CU3Ef__switchU24map21P21CustomAttributesCache
YUj:dynCall_iiiiiiffiiiiiiiiiffffiiii
tDb:__ZN13MonoBehaviour5DoGUIENS_13GUILayoutTypeEii
Cnf:_Kernel_Multiply_m1938858919
jHg:_DerivedType_IsDefined_m555719351
GBi:_Mark_get_IsDefined_m3332701456
ybb:__ZNK12TLSAllocatorI14StackAllocatorE8ContainsEPKv
$xb:__ZN11TimeManager8TransferI18StreamedBinaryReadILb0EEEEvRT_
WWb:__ZN15SerializeTraitsINSt3__23mapI4PPtrI6ShaderEN4core12basic_stringIcNS5_20StringStorageDefaultIcEEEENS0_4lessIS4_EENS0_9allocatorINS0_4pairIKS4_S9_EEEEEEE8TransferI24GenerateTypeTreeTransferEEvRSH_RT_
yif:_EncryptedPrivateKeyInfo__ctor_m3964541963
dCg:_DESTransform__cctor_m1179482644
Roh:_EqualityComparer_1_System_Collections_IEqualityComparer_GetHashCode_m1465362976_gshared
Bah:_Object_t1021602117_marshal_pinvoke_cleanup
Mtb:__ZN14BlendShapeData8TransferI14SafeBinaryReadEEvRT_
vNi:_TextGenerator_PopulateWithErrors_m467881283
gNd:_Enum_Format_m2294492821
a$f:__ZL81Convert_t2607082565_CustomAttributesCacheGenerator_Convert_ToDateTime_m3810846875P21CustomAttributesCache
ynb:__ZN7Texture25ReloadFromStorageIfNeededEPvb
QAb:__ZN24GenerateTypeTreeTransfer8TransferINSt3__26vectorIN30RuntimeInitializeOnLoadManager15ClassMethodInfoE13stl_allocatorIS4_L18MemLabelIdentifier12ELi16EEEEEEvRT_PKc17TransferMetaFlags
emg:__ZL106PointerEventData_t1599784723_CustomAttributesCacheGenerator_PointerEventData_set_pressPosition_m2094137883P21CustomAttributesCache
fgh:_ShimEnumerator_get_Entry_m2332479818_gshared
jRd:_BaseRaycaster_get_priority_m247683215
bId:_DateTime_CheckDateTimeKind_m329345155_AdjustorThunk
HYc:_Update_Max
pui:_PlayableHandle_Equals_m1435096530_AdjustorThunk
erj:__ZN6il2cpp6icalls8mscorlib6SystemL15ThrowNoWideningEv
k0b:__ZNK23TransformChangeDispatch24GetChangeMaskForInterestENS_12InterestTypeE
Njc:__Z45Transform_CUSTOM_INTERNAL_CALL_TransformPointP12Il2CppObjectRK8Vector3fRS1_
HHe:__ZN23InterfaceActionInvoker2Ii18Color32_t874517518E6InvokeEjP11Il2CppClassP12Il2CppObjectiS0_
bbb:__ZL10KeyHandleriPK23EmscriptenKeyboardEventPv
n8i:__ZN14dense_hash_mapI10KeyWrapperI13dynamic_arrayIPK10Il2CppTypeLj4EEEPFvvEN6il2cpp8metadata19Il2CppSignatureHashENS6_14EqualsComparerINSA_22Il2CppSignatureCompareEEENSt3__29allocatorINSF_4pairIKS6_S8_EEEEEC2EjRKSB_RKSE_
uha:__ZNSt3__26__treeINS_12__value_typeI39DeprecatedFastPropertyNameSerializationfEENS_19__map_value_compareIS2_S3_NS_4lessIS2_EELb1EEENS_9allocatorIS3_EEE7destroyEPNS_11__tree_nodeIS3_PvEE
dSc:_tt_cmap4_char_index
t2h:__Z54RuntimeInvoker_Void_t1841601450_Vector2U26_t3911752445PK10MethodInfoPvPS2_
Aji:_AsyncOperation_get_allowSceneActivation_m2825451182
LVg:_TimeSpan_op_Addition_m3421801803
xLa:__ZNK12HandlerChain8IsHiddenERK13FileEntryData
cog:__ZL50Graphic_t2426225576_CustomAttributesCacheGeneratorP21CustomAttributesCache
cJb:__ZL26Transfer_SimpleNativeClassI17RemapPPtrTransfer10RectOffsetLb0EEvRK29SerializationCommandArgumentsR31RuntimeSerializationCommandInfo
aOc:__Z14ValidateFormatR13dynamic_arrayIN20TextRenderingPrivate16TextFormatChangeELj4EE
Nte:_List_1__ctor_m2672294496_gshared
JPi:_Vector2_op_Implicit_m1064335535
dHd:_DateTime_System_IConvertible_ToInt32_m2789391054_AdjustorThunk
agf:_ASN1Convert_FromInt32_m1541043489
mUd:_PointerInputModule_ProcessMove_m3200120346
pCd:_Convert_ToByte_m1008221737
rpf:_MD2Managed_MD2Transform_m3825201358
MIe:_Collection_1_System_Collections_IList_IndexOf_m3976312928_gshared
Kpg:__ZL69Scrollbar_t3248359358_CustomAttributesCacheGenerator_m_OnValueChangedP21CustomAttributesCache
Ane:_KeyValuePair_2__ctor_m3201181706_gshared
BDc:__ZN10ClipperLib14PointInPolygonERKNS_8IntPointEPNS_5OutPtE
nug:_SoapFieldAttribute_get_XmlElementName_m4100905008
y_d:_Dropdown_AddOptions_m835420907
IQi:_Vector4_get_sqrMagnitude_m2115578799_AdjustorThunk
Plg:__ZL107PointerEventData_t1599784723_CustomAttributesCacheGenerator_PointerEventData_get_rawPointerPress_m448871540P21CustomAttributesCache
zfa:__ZNK9ShaderLab20ShaderBlendStateDesc15ToGfxBlendStateEPK19ShaderPropertySheetS3_R13GfxBlendState
vQf:__ZL92Hashtable_t909839986_CustomAttributesCacheGenerator_Hashtable_t909839986____hcp_PropertyInfoP21CustomAttributesCache
OXd:_CanvasUpdateRegistry_IsRebuildingLayout_m1677873278
ZEc:__ZN15dense_hashtableINSt3__24pairIKNS1_IPK10Collider2DS4_EE11Collision2DEES5_NS2_23ColliderPairHashFunctorEN14dense_hash_mapIS5_S7_S9_NS0_8equal_toIS5_EE13stl_allocatorIS8_L18MemLabelIdentifier65ELi16EEE9SelectKeyESC_SF_E9copy_fromERKSI_j
n3h:__Z64RuntimeInvoker_Boolean_t3825574718_PlayableHandleU26_t3483893774PK10MethodInfoPvPS2_
_v:__ZN11UnityEngine9AnimationL22GenericBindingCallbackEPvS1_i
pYc:_Compute_Point_Displacement
GWb:__ZN9ShaderLab9IntShaderC2Ev
ydj:__ZN6il2cpp6icalls8mscorlib6SystemL9IsPrivateEPK9EventInfo
pKj:__ZN6il2cpp6icalls8mscorlib6System10Reflection4Emit11TypeBuilder20setup_internal_classEP27Il2CppReflectionTypeBuilderS7_
SEh:_InternalEnumerator_1_System_Collections_IEnumerator_Reset_m3237341717_AdjustorThunk
J3i:__ZL25UnresolvedVirtualCall_177P12Il2CppObject23RaycastResult_t21186376S1_PK10MethodInfo
v2g:_RectOffset_set_left_m620681523
qbh:_Physics2D_Raycast_m2560154475
pCh:_ArrayReadOnlyList_1_IndexOf_m1809425308_gshared
Jbi:__Z61RuntimeInvoker_Int32_t2071877448_ResourceCacheItem_t333236149PK10MethodInfoPvPS2_
kfj:_il2cpp_gc_disable
jE:__Z69AnimatorControllerPlayable_CUSTOM_INTERNAL_CALL_GetLayerIndexInternalR9HPlayableP12Il2CppString
XSd:_ExecuteEvents_U3Cs_HandlerListPoolU3Em__0_m2903690915
vzd:_Hashtable_Clone_m165405752
Wzc:__ZN16b2PrismaticJoint24SolveVelocityConstraintsERK12b2SolverData
VSf:__ZL61CallingConventions_t1097349142_CustomAttributesCacheGeneratorP21CustomAttributesCache
zQh:__Z140RuntimeInvoker_Boolean_t3825574718_Il2CppObject_Int32_t2071877448_Il2CppObject_SByte_t454417549_Int64U26_t763825331_ExceptionU26_t1467204777PK10MethodInfoPvPS2_
Lni:_Component_BroadcastMessage_m444672650
Q5c:__ZN11UnityEngine15PlatformWrapper19GetPhysicalMemoryMBEv
Xmg:__ZL144U3CStartU3Ec__Iterator0_t3220237554_CustomAttributesCacheGenerator_U3CStartU3Ec__Iterator0_System_Collections_IEnumerator_get_Current_m290565900P21CustomAttributesCache
IX:__Z15CreateDirectoryRKN4core12basic_stringIcNS_20StringStorageDefaultIcEEEE
Ioa:__Z21CalculateGlobalMatrix23TransformAccessReadOnly
pPf:__ZL70InternalsVisibleToAttribute_t1037732567_CustomAttributesCacheGeneratorP21CustomAttributesCache
C2e:_MonoIO_GetCurrentDirectory_m1509324201
Vdd:_SHA384Managed_adjustByteCounts_m410900820
xRg:_UTF32Encoding_GetHashCode_m4205784236
eDd:_DateTime_ToUniversalTime_m1815024752
fng:__ZL73U3COnFinishSubmitU3Ec__Iterator0_t99135383_CustomAttributesCacheGeneratorP21CustomAttributesCache
D_b:__Z13RegisterClassI14RenderSettingsEvv
bNi:_TextGenerator_Finalize_m4242493229
kEe:_Collection_1_ConvertItem_m3563206219_gshared
IVg:_TimeSpan_Subtract_m3597791685_AdjustorThunk
UMg:_MonoCMethod_get_Name_m764669486
Jti:_AnimatorControllerPlayable_CrossFade_m3146661810
az:__ZN7mecanim12statemachine24CreateStateMachineOutputEPKNS0_20StateMachineConstantEjRNS_6memory9AllocatorE
T7g:_Logger__ctor_m3834134587
wej:_il2cpp_assembly_get_image
qva:__ZNK9GfxDevice27GetActiveRenderSurfaceWidthEv
iae:_SetPropertyUtility_SetClass_TisIl2CppObject_m3524554928_gshared
jdb:__ZNK11AssetBundle26GetTypeInfoVirtualInternalEv
cJi:_PKCS12_get_Keys_m1312614820
g6c:__ZN11UnityEngine15PlatformWrapper28GetCleanGraphicsFixedVersionEv
aab:__ZN16MemoryFileSystem5WriteER13FileEntryDatayyPvPy
w:tempBigIntP
nhj:__ZN6il2cpp2vm4Type7GetTypeEPK10Il2CppType
qKf:_Interval_t2354235237_marshal_pinvoke_cleanup
idh:_Rect_Contains_m1334685291_AdjustorThunk
GEc:__ZN23ColliderTilingExtensionD0Ev
T0b:__ZN16SpriteRenderData28PrepareRenderingDataIfNeededEv
hqd:_AssemblyLoadEventHandler_Invoke_m108373765
m6h:__Z64RuntimeInvoker_Boolean_t3825574718_Il2CppObject_Int64_t909078037PK10MethodInfoPvPS2_
lUd:_PointerInputModule_ShouldStartDrag_m4163638715
zng:__ZL61Dropdown_t1985816271_CustomAttributesCacheGenerator_m_OptionsP21CustomAttributesCache
Q1i:__ZL24UnresolvedVirtualCall_76P12Il2CppObjectPK10MethodInfo
Mka:__ZN6prcoreL17RemapGenericFloatI18TexFormatRGBAFloat17TexFormatRGBAHalfEEvPKNS_9InnerInfoE
SQa:__Z16FindCameraStacksRKNSt3__24listI4PPtrI6CameraENS_9allocatorIS3_EEEERNS_6vectorI11CameraStackNS4_ISA_EEEE
kRi:_WebRequestUtils__cctor_m893658947
npb:__ZN10GISettings8TransferI14SafeBinaryReadEEvRT_
xn:FUNCTION_TABLE_vifff
vRe:_ReadOnlyCollection_1_System_Collections_Generic_ICollectionU3CTU3E_Remove_m2957273994_gshared
dRd:_BaseInputModule_ShouldActivateModule_m2899747874
cda:__ZN13RenderTexture13ApplySettingsEv
EZf:__ZL92UTF8Encoding_t111055448_CustomAttributesCacheGenerator_UTF8Encoding_GetByteCount_m2547312609P21CustomAttributesCache
$e:_JS_Sound_SetListenerPosition
qn:FUNCTION_TABLE_fiffi
AKg:_ModuleBuilderTokenGenerator_GetToken_m3427457873
DCb:__ZN9TextAsset9SetScriptERKN4core12basic_stringIcNS0_20StringStorageDefaultIcEEEEb
Exh:_Selectable_get_isPointerInside_m3162215687
$re:_List_1_System_Collections_IList_Contains_m149594880_gshared
Rxj:__ZNK15dense_hashtableINSt3__24pairIK10KeyWrapperINS1_IPKcS4_EEEiEES6_24NamespaceAndNamePairHashN14dense_hash_mapIS6_iS9_NS6_14EqualsComparerI26NamespaceAndNamePairEqualsEENS0_9allocatorIS8_EEE9SelectKeyESD_SF_E10test_emptyERK24dense_hashtable_iteratorIS8_S6_S9_SH_SD_SF_E
I$f:__ZL78Convert_t2607082565_CustomAttributesCacheGenerator_Convert_ToSByte_m2585959569P21CustomAttributesCache
mdh:_Rect_Overlaps_m4145874649
P_g:_UnauthorizedAccessException__ctor_m3480402128
pff:_BigInteger_op_Modulus_m3788401748
Wzi:_ArgInfo_GetInOutArgs_m3184132151
Qma:__ZNK8Material16MarkDependenciesER27GarbageCollectorThreadState
b_f:__ZL85Thread_t241561612_CustomAttributesCacheGenerator_Thread_get_CurrentThread_m3667342817P21CustomAttributesCache
gsc:__ZL17Transfer_GUIStyleI9JSONWriteLb0EEvRK29SerializationCommandArgumentsR31RuntimeSerializationCommandInfo
EUa:__Z28GetHaloVertexPositionsStereoP8Vector3fRKS_S2_f
Cla:__ZN6prcoreL27StretchGenericFloatBilinearI15TexFormatRGHalfEEvPKNS_9InnerInfoE
Mjg:__ZL85UnityEvent_1_t4075366602_CustomAttributesCacheGenerator_UnityEvent_1__ctor_m152711818P21CustomAttributesCache
Uoe:_Enumerator_MoveNext_m598197344_AdjustorThunk
y2i:__ZL25UnresolvedVirtualCall_112P12Il2CppObjectsS0_aaaPK10MethodInfo
Uoi:_DisplaysUpdatedDelegate_Invoke_m3646339243
PMi:_TextGenerationSettings_t2543476768_marshal_pinvoke_back
Xkd:_String_JoinUnchecked_m1880555587
Qfa:__ZNK9ShaderLab7Program21GetMatchingSubProgramEPK6ShaderPKNS_4PassERK16ShaderKeywordSetjPS7_R19ShaderSnippetResult
nge:_Array_InternalArray__Insert_TisKeyValuePair_2_t1174980068_m2464431954_gshared
M4f:__ZL109AsyncOperation_t3814632279_CustomAttributesCacheGenerator_AsyncOperation_set_allowSceneActivation_m3988498951P21CustomAttributesCache
oic:__Z49Register_UnityEngine_Resources_GetBuiltinResourcev
hFi:_BalancingGroup_set_Balance_m3452171919
pSc:_tt_cmap10_char_index
u_d:_Dropdown_Awake_m335654827
X7:__Z18GetITerrainManagerv
Ilh:_Dictionary_2_U3CCopyToU3Em__0_m1479035402_gshared
mxd:_BitArray_set_Item_m3801461194
aVd:_StandaloneInputModule_get_cancelButton_m1563746440
J_i:__ZN15dense_hashtableINSt3__24pairIK10KeyWrapperIPK22Il2CppGenericParameterEP11Il2CppClassEES6_N6il2cpp5utils11PointerHashIS4_EEN14dense_hash_mapIS6_S9_SE_NS6_14EqualsComparerINS0_8equal_toIS5_EEEENS0_9allocatorISA_EEE9SelectKeyESJ_SL_E3endEv
Hkd:_String_Remove_m3580114465
lPc:_UNITY_FT_Destroy_Class_cff_field_handlers
mVb:__ZN9ShaderLab22SerializedBindChannels8TransferI19StreamedBinaryWriteILb0EEEEvRT_
WNf:__ZL65Il2CppArray_CustomAttributesCacheGenerator_Array_Copy_m1969461849P21CustomAttributesCache
SDh:_InternalEnumerator_1_MoveNext_m1791963761_AdjustorThunk
Omc:__ZN5IMGUI20MoveWindowFromLayoutER8GUIStateiRK5RectTIfE
xTf:__ZL56ParameterInfo_t2249040075_CustomAttributesCacheGeneratorP21CustomAttributesCache
Gwi:_UrlAttribute_get_UrlValue_m3448699483
J6f:__ZL83GameObject_t1756533147_CustomAttributesCacheGenerator_GameObject_set_tag_m717375123P21CustomAttributesCache
K2g:_Mathf_Max_m1875893177
q_g:_UIntPtr__ctor_m2737768530
FNc:_UNITY_FT_Stream_ReadUShort
nki:_Bounds_get_center_m129401026_AdjustorThunk
R4d:_InputField_OnEnable_m3797157569
Vec:__Z51Register_UnityEngine_GUILayer_INTERNAL_CALL_HitTestv
Skc:__Z50Register_UnityEngine_Object_FindSceneObjectsOfTypev
Vga:__ZNSt3__26__treeINS_12__value_typeIN4core12basic_stringIcNS2_20StringStorageDefaultIcEEEES6_EENS_19__map_value_compareIS6_S7_NS_4lessIS6_EELb1EEE13stl_allocatorIS7_L18MemLabelIdentifier1ELi16EEE7destroyEPNS_11__tree_nodeIS7_PvEE
oSi:_Nullable_1__ctor_m796575255_gshared
LEj:__ZN6il2cpp2vm8Profiler7GCEventE13Il2CppGCEvent
nHd:_DateTimeUtils_ToString_m3878360633
drj:__ZN6il2cpp6icalls8mscorlib6SystemL16ThrowInvalidCastEPK11Il2CppClassS5_
xLh:_InternalEnumerator_1_get_Current_m3732458101_AdjustorThunk
czb:__ZN12AspectRatios8TransferI24GenerateTypeTreeTransferEEvRT_
rVd:_StandaloneInputModule_ForceAutoSelect_m1167170508
xDh:_InternalEnumerator_1_MoveNext_m1636015243_gshared
esf:_Context_get_ServerWriteIV_m2960700649
Xgi:_CustomEventData_AddUInt64_m1437973832
CVd:_TouchInputModule_Process_m1373751353
Rf:_emscripten_glUniform1fv
fgb:__ZNK17FileSystemHandler8IsHiddenERK13FileEntryData
uSd:_ExecuteEvents_Execute_m898902863
jJ:__ZN4FMOD7Channel7setModeEj
WGg:_DerivedType_InvokeMember_m4149586013
ftg:__ZL76WhiteCellController_t1439096391_CustomAttributesCacheGenerator_resetPositionP21CustomAttributesCache
oU:__ZN13EmscriptenWWW6CancelEv
Zzf:_TlsStream_SetLength_m1460039587
Vmc:__ZN11IMGUIModule12AddGUIScriptER8ListNodeI13MonoBehaviourE
qb:invoke_difi
xTd:_PointerEventData_set_rawPointerPress_m1484888025
C7:__ZL50StaticRegisterSceneLoadedCallback_LightmapSettingsPv
Awd:_SimpleEnumerator_Clone_m215554974
IXa:__ZN29MotionVectorRenderLoopScratch15ThreadedCleanupEv
Pm:FUNCTION_TABLE_iiffi
A1d:_GridLayoutGroup_get_cellSize_m1061731753
iyj:__ZN15dense_hashtableINSt3__24pairIK10KeyWrapperINS1_IPKcS4_EEEiEES6_24NamespaceAndNamePairHashN14dense_hash_mapIS6_iS9_NS6_14EqualsComparerI26NamespaceAndNamePairEqualsEENS0_9allocatorIS8_EEE9SelectKeyESD_SF_E12expand_arrayEjN21dense_hash_map_traits17integral_constantIbLb0EEE
Soh:_EqualityComparer_1_System_Collections_IEqualityComparer_Equals_m300683774_gshared
_za:__ZN21GLESGpuProgramApplier11ApplyVectorERKN20GpuProgramParameters14ValueParameterEPK8Vector4ft
q0a:__Z17PrepareSceneNodesP11CullResults
PQi:_Vector4_ToString_m2340321043_AdjustorThunk
zla:__ZN6prcoreL27StretchGenericFloatBilinearI18TexFormatRGBAFloatEEvPKNS_9InnerInfoE
kGi:_Parser_IsIgnoreCase_m4155598997
vuj:__ZN15dense_hashtableINSt3__24pairIK10KeyWrapperIP14Il2CppIUnknownEjEES5_N6il2cpp5utils11PointerHashIS3_EEN14dense_hash_mapIS5_jSB_NS5_14EqualsComparerINS0_8equal_toIS4_EEEENS0_9allocatorIS7_EEE9SelectKeyESG_SI_E12expand_arrayEjN21dense_hash_map_traits17integral_constantIbLb0EEE
EUc:_cff_size_done
Xoh:_EqualityComparer_1_System_Collections_IEqualityComparer_Equals_m3376587337_gshared
WRa:__ZN22RenderingCommandBuffer13GetAndCheckRTE24BuiltinRenderTextureTypeRKN9ShaderLab16FastPropertyNameEPKcPP13RenderTexture
c7a:__ZN6Camera34UpdatePreviousViewProjectionMatrixEv
Tfa:__ZN9ShaderLab11ShaderState25RemoveUnsupportedProgramsEPK6Shader
ZVb:__ZL23AddGpuProgramParametersR20GpuProgramParametersRKNSt3__26vectorIN9ShaderLab20SerializedSubProgram15MatrixParameterENS1_9allocatorIS5_EEEERKNS2_INS4_15VectorParameterENS6_ISB_EEEEiP16PropertyNamesSet
l4f:__ZL179U3CCreateWhereIteratorU3Ec__Iterator1D_1_t2523986802_CustomAttributesCacheGenerator_U3CCreateWhereIteratorU3Ec__Iterator1D_1_System_Collections_IEnumerator_get_Current_m1354814095P21CustomAttributesCache
Kkc:__Z44Register_UnityEngine_Object_DestroyImmediatev
UQf:__ZL57CompareOptions_t2829943955_CustomAttributesCacheGeneratorP21CustomAttributesCache
fec:__Z47Register_UnityEngine_Component_BroadcastMessagev
Ar:__ZN18StreamedBinaryReadILb0EE21TransferSTLStyleArrayI13dynamic_arrayI4PPtrI6ObjectELj4EEEEvRT_17TransferMetaFlags
GUf:__ZL62_ConstructorBuilder_t1236878896_CustomAttributesCacheGeneratorP21CustomAttributesCache
Dac:__Z26scripting_class_has_parent17ScriptingClassPtrS_
Z$e:_Int64_System_IConvertible_ToInt16_m2022633688_AdjustorThunk
Sbf:_OrdinalComparer__ctor_m2952942058
VMj:__ZN6il2cpp8metadata25Il2CppGenericClassCompare7CompareEPK18Il2CppGenericClassS4_
Eu:__ZNK8Animator20IsInMatchTargetStateEv
Em:FUNCTION_TABLE_viiifiii
Anc:__Z36Register_UnityEngine_GUI_set_changedv
JYd:_ColorTween_get_startColor_m278546349_AdjustorThunk
Uhd:_Encoding_get_Unicode_m1382741113
gyi:_LifetimeServices_set_SponsorshipTimeout_m1403222216
qae:_SetPropertyUtility_SetStruct_TisFitMode_t4030874534_m2608169783_gshared
oVh:__Z64RuntimeInvoker_Single_t2076509932_Il2CppObject_Int32_t2071877448PK10MethodInfoPvPS2_
Eud:_Char_ToString_m1401375624_AdjustorThunk
dee:_Array_InternalArray__ICollection_Add_TisTableRange_t2011406615_m147373358_gshared
vDd:_Convert_ToDateTime_m1251728572
fee:_Array_InternalArray__ICollection_Add_TisBoolean_t3825574718_m1009318882_gshared
qSe:_ReadOnlyCollection_1_System_Collections_IList_set_Item_m1149349508_gshared
My:__ZN27AnimationLayerMixerPlayable18SetInputConnectionEP8Playablei
cpc:__Z42Register_UnityEngine_GUIStyle_get_wordWrapv
nyg:_ObjectReader_ReadObjectContent_m3949770110
Rwe:_List_1_System_Collections_ICollection_get_SyncRoot_m3031553207_gshared
Hni:_Component_SendMessage_m4199581575
_sa:__ZZ19InitializeGfxDevice20GfxCreateDeviceFlagsEN38PreLateUpdateEndGraphicsJobsLatestruct7ForwardEv
t0i:__ZN6il2cpp2vm5Class40GetInterfaceInvokeDataFromVTableSlowPathEPK12Il2CppObjectPK11Il2CppClassj
Xng:__ZL69FontData_t2614388407_CustomAttributesCacheGenerator_m_AlignByGeometryP21CustomAttributesCache
Wkb:__ZN20TierGraphicsSettings8TransferI18StreamedBinaryReadILb0EEEEvRT_
uzh:_Text_get_font_m3115501113
nqj:__GLOBAL__sub_I_Thread_cpp
eha:__ZN14SafeBinaryRead8TransferINSt3__24pairIN9ShaderLab16FastPropertyNameE10ColorRGBAfEEEEvRT_PKc17TransferMetaFlags
AWi:__ZL9rshift128PyS_
pYb:__Z10pqHeapInitP13PriorityQHeap
hyg:_ObjectReader_RecordFixup_m1893348030
QHg:_EnumBuilder_GetElementType_m1228393631
boj:__ZN14dense_hash_mapI10KeyWrapperINSt3__24pairIPK12PropertyInfoP11Il2CppClassEEEj17ReflectionMapHashIS8_ENS9_14EqualsComparerINS1_8equal_toIS8_EEEENS1_9allocatorINS2_IKS9_jEEEEE13set_empty_keyERSH_
fk:_glRenderbufferStorage
Vxj:__ZNK15dense_hashtableINSt3__24pairIK10KeyWrapperINS1_IPKcS4_EEEiEES6_24NamespaceAndNamePairHashN14dense_hash_mapIS6_iS9_NS6_14EqualsComparerI26NamespaceAndNamePairEqualsEENS0_9allocatorIS8_EEE9SelectKeyESD_SF_E13find_positionERS7_
eSf:__ZL80ILGenerator_t99948092_CustomAttributesCacheGenerator_ILGenerator_Emit_m116557729P21CustomAttributesCache
hLf:__ZL43Il2CppObject_CustomAttributesCacheGeneratorP21CustomAttributesCache
kgc:__Z45Register_UnityEngine_Input_get_touchSupportedv
k6c:__ZN11UnityEngine15PlatformWrapper28GetTextureFormatSupportFlagsEv
fQc:_UNITY_FT_Create_Class_pshinter_module_class
e5h:__Z103RuntimeInvoker_Void_t1841601450_Vector2U26_t3911752445_Il2CppObject_Il2CppObject_Vector2U26_t3911752445PK10MethodInfoPvPS2_
ekd:_String_CompareOrdinalCaseInsensitiveUnchecked_m2002640463
Yrd:_Boolean_GetHashCode_m1894638460
hVc:_cf2_setError
omf:_AppDomainInitializer_BeginInvoke_m2446455399
B_g:_UIntPtr_ToUInt32_m1679632738_AdjustorThunk
PRg:_UTF7Encoding_InternalGetChars_m4157428055
Boa:__Z33InterpolateLightProbeCoefficientsRK17LightProbeContextRK29LightProbeSamplingCoordinatesR20SphericalHarmonicsL2
m9f:__ZL86Texture_t2243626319_CustomAttributesCacheGenerator_Texture_Internal_GetWidth_m56137242P21CustomAttributesCache
Bhf:_SmallXmlParser_HandleBufferedContent_m3397096753
dh:_glDisable
Z5d:_InputField_OnDeselect_m3963675647
EEh:_InternalEnumerator_1_MoveNext_m1994485778_AdjustorThunk
e3c:__Z44Register_UnityEngine_Canvas_get_pixelPerfectv
Qne:_KeyValuePair_2_get_Value_m1916631176_AdjustorThunk
_Eg:_MethodBase__ctor_m3951051358
Ylb:__ZN4PPtrI9Texture2DE8TransferI14SafeBinaryReadEEvRT_
dAj:__ZN6il2cpp5utils11StringUtils15StringDuplicateEPKDsj
g_d:_Dropdown_get_template_m3014799983
HIf:_BaseMachine_Scan_m122450399
$ti:_AnimatorControllerPlayable_PlayInternal_m3385259863
qvd:_ArrayList_CopyTo_m2353632788
KSf:__ZL71AssemblyFileVersionAttribute_t2897687916_CustomAttributesCacheGeneratorP21CustomAttributesCache
Gei:__Z33RuntimeInvoker_Color32_t874517518PK10MethodInfoPvPS2_
y7:__ZNSt3__26vectorINS_4pairIyP17VertexDeclarationEENS_9allocatorIS4_EEE6assignIPS4_EENS_9enable_ifIXaasr21__is_forward_iteratorIT_EE5valuesr16is_constructibleIS4_NS_15iterator_traitsISB_E9referenceEEE5valueEvE4typeESB_SB_
due:_List_1_Add_m943275925_gshared
lbi:__Z100RuntimeInvoker_Int32_t2071877448_Il2CppObject_Color32_t874517518_Int32_t2071877448_Int32_t2071877448PK10MethodInfoPvPS2_
$Cg:_HMAC_get_BlockSizeValue_m603907214
$Xa:__ZNK8Material12GetPassCountEv
WAd:_Enumerator__cctor_m3784927209
B1j:b110
C1j:b111
D1j:b112
xSj:_bitshift64Ashr
G1j:b114
H1j:b115
I1j:b116
Hga:__ZNK8Material26GetTypeInfoVirtualInternalEv
mIc:__ZN11Rigidbody2D23VirtualRedirectTransferER14SafeBinaryRead
K0b:__ZN14SpriteRenderer12CleanupClassEv
ABa:__ZN4crnd12crn_unpacker22decode_alpha_endpointsEv
q1a:__Z23CullDynamicObjectsUmbraPK4AABBPKN5Umbra15OcclusionBufferER9IndexList
Ssg:__ZL67FieldWithTarget_t2256174789_CustomAttributesCacheGenerator_m_TargetP21CustomAttributesCache
fJe:_Collection_1_RemoveItem_m2565709010_gshared
eSc:_tt_cmap4_char_next
J6h:__Z86RuntimeInvoker_Void_t1841601450_Il2CppObject_StringU26_t638738783_StringU26_t638738783PK10MethodInfoPvPS2_
rPb:__ZN18StreamedBinaryReadILb1EE21TransferSTLStyleArrayI13dynamic_arrayIiLj4EEEEvRT_17TransferMetaFlags
o$:__ZN17DirectorFrameTime14ResetDSPValuesEv
cIi:_GeneralNames_ToString_m800435094
CWd:_BaseMeshEffect_OnDidApplyAnimationProperties_m2484799839
iXf:__ZL73AsymmetricSignatureDeformatter_t3580832979_CustomAttributesCacheGeneratorP21CustomAttributesCache
fmd:_ASCIIEncoding_GetString_m3931709239
s6f:__ZL97GameObject_t1756533147_CustomAttributesCacheGenerator_GameObject__ctor_m1633632305____components1P21CustomAttributesCache
R_a:__ZN23ForwardShaderRenderLoopD2Ev
qIa:__ZN9GfxDevice20SetComputeBufferDataE15ComputeBufferIDPKvj
oYg:_UInt16_Parse_m3560204090
Jvc:__ZN8JSONRead21TransferSTLStyleArrayI13dynamic_arrayIsLj2EEEEvRT_18MemLabelIdentifier17TransferMetaFlags
XI:__ZN4FMOD7Channel11setPositionEjj
Xh:_glBindSampler
B8:__Z22CreateMutexLockedQueuev
FTe:_ReadOnlyCollection_1_System_Collections_Generic_ICollectionU3CTU3E_Clear_m964488020_gshared
_hd:_SecurityFrame_get_Domain_m3219347572_AdjustorThunk
_h:_glGetVertexAttribiv
fdd:_SHA1__ctor_m788472966
hee:_Array_InternalArray__ICollection_Add_TisChar_t3454481338_m422084244_gshared
V5i:__ZNSt3__218uninitialized_fillIPNS_4pairIK10KeyWrapperIPKcEP11Il2CppClassEES9_EEvT_SB_RKT0_
P_c:__ZN2UI11CanvasGroup23VirtualRedirectTransferER18StreamedBinaryReadILb0EE
jhh:_Transform_1_EndInvoke_m803975703_gshared
CTe:_ReadOnlyCollection_1_get_Item_m3778245964_gshared
N0f:__ZL52EventArgs_t3289624707_CustomAttributesCacheGeneratorP21CustomAttributesCache
Bsi:_AnimatorControllerPlayable_GetLayerName_m2571001466
Quc:__ZN8JSONRead8TransferIbEEvRT_PKc17TransferMetaFlagsb
AFe:_Collection_1_RemoveAt_m290627370_gshared
Vhi:_AnimationEvent_get_objectReferenceParameter_m3565420672
uTd:_PointerEventData_get_lastPress_m3835070463
C7g:_DefaultValueAttribute_Equals_m3216982933
OEf:_X509KeyUsageExtension_Decode_m3292847033
O7:__ZN26SharedLightmapSettingsDataD2Ev
DMg:_Module_filter_by_type_name_ignore_case_m3574895736
ZVf:__ZL57ProxyAttribute_t4031752430_CustomAttributesCacheGeneratorP21CustomAttributesCache
Zob:__ZN26CustomRenderTextureManager19PreAllocateMaterialEP19CustomRenderTexture
yKc:__ZN19ControllerHitReport13onObstacleHitERKN5physx23PxControllerObstacleHitE
Pxg:_ObjectReader_ReadObject_m397855326
GFj:_GC_promote_black_lists
B2d:_Image_get_fillAmount_m3354146540
Bvc:__Z29Transfer_Blittable_ArrayFieldI8JSONRead8Vector4fEvRT_R9ArrayInfoRK23StaticTransferFieldInfo
Mre:_List_1_Sort_m1518807012_gshared
hOc:__ZNK13TextRendering4Font9GetAscentEv
Yn:FUNCTION_TABLE_vf
xo:FUNCTION_TABLE_vd
XWg:_Type_GetMethod_m1930231379
zo:FUNCTION_TABLE_vi
$wg:_WellKnownServiceTypeEntry_ToString_m493996021
LRf:__ZL55StreamReader_t2360341767_CustomAttributesCacheGeneratorP21CustomAttributesCache
b7g:_HumanBone_get_humanName_m2091758568_AdjustorThunk
FVf:__ZL51IMessage_t3044378324_CustomAttributesCacheGeneratorP21CustomAttributesCache
Rcf:_SimpleCollator_GetContraction_m1391584430
$rd:_CultureInfo_get_InvariantCulture_m398972276
Brd:_Boolean_System_IConvertible_ToInt64_m4142756949_AdjustorThunk
h5f:__ZL84Camera_t189460977_CustomAttributesCacheGenerator_Camera_get_targetTexture_m705925974P21CustomAttributesCache
NC:__ZNK8Animator17HasBoundPlayablesEv
uHc:__ZN17Physics2DSettings8TransferI24GenerateTypeTreeTransferEEvRT_
fpf:_HMAC_initializePad_m3828610671
Oag:__ZL68DrivenTransformProperties_t2488747555_CustomAttributesCacheGeneratorP21CustomAttributesCache
jve:_List_1_Contains_m980727749_gshared
Ocd:_RSAParameters_t1462703416_marshal_pinvoke_cleanup
myi:_ConfigHandler_OnChars_m2004226744
yji:_AsyncOperation_get_priority_m966065939
va:invoke_iiifiii
jsj:__ZN6il2cpp2vm9Exception11FromNameMsgEPK11Il2CppImagePKcS6_S6_
$Xe:_NumberFormatInfo_get_NumberDecimalDigits_m3706097953
GWg:_Type_internal_from_name_m1506974323
gn:FUNCTION_TABLE_fiiifii
gC:__ZN10HumanTrait15InitializeClassEv
D$:__Z14GetTimeManagerv
hcg:__ZL143AnimatorControllerPlayable_t4078305555_CustomAttributesCacheGenerator_AnimatorControllerPlayable_INTERNAL_CALL_GetLayerNameInternal_m2049776925P21CustomAttributesCache
KZb:__ZneRK20SpriteTilingPropertyS1_
t3h:__Z67RuntimeInvoker_Void_t1841601450_Scene_t1684909666_Int32_t2071877448PK10MethodInfoPvPS2_
jhb:__Z12GUIDToStringRK9UnityGUIDPc
Meb:__ZN15FileSystemEntry4LockE12FileLockModeP12FileAccessor
Q7d:_Array_get_swapper_TisIl2CppObject_m1701356863_gshared
mM:__ZN11AudioSource22UnmuteActiveVideoSinksEv
aAj:__ZN4utf88internal20is_overlong_sequenceIiEEbjT_
Ti:_glReadBuffer
TVh:__Z31RuntimeInvoker_SByte_t454417549PK10MethodInfoPvPS2_
Gwd:_SynchronizedArrayListWrapper_get_Count_m4104930530
WCg:_HashAlgorithm_get_HashSize_m2625667696
hZa:__Z30SetupBakedOcclusionForGeometrybRK26SharedLightmapSettingsDataRK15LightmapIndicesR17ShaderPassContext
eje:_Array_Resize_TisVector4_t2243707581_m1528805937_gshared
Wfd:_SecurityPermission_IsSubsetOf_m1087302418
lec:__Z41Register_UnityEngine_Cursor_get_lockStatev
GYa:__Z14SetupLightmapsRK8Vector4fS1_R17ShaderPassContext
tKf:_Interval_get_Empty_m3170923997
Y1g:_GUILayoutEntry_CalcWidth_m2520096159
$$b:__Z20DestroyObjectDelayedP6Objectf
WU:__ZN20DynamicHeapAllocatorI17LowLevelAllocatorED0Ev
m5d:_InputField_OnDrag_m726194348
iDc:__ZN10ClipperLib11ClipperBase5ResetEv
Xvi:_GuidAttribute__ctor_m1099153635
Zdf:_PreviousInfo__ctor_m1442166472_AdjustorThunk
TVa:__ZN9DepthPassD2Ev
LHd:_DateTime_get_Kind_m1331920314_AdjustorThunk
RH:__ZN11AudioFilter6GetDSPEv
Y4i:__ZN13Il2CppHashMapIPKcP11Il2CppClassN6il2cpp5utils11StringUtils12StringHasherIS1_EENS6_21CaseSensitiveComparerENSt3__29allocatorINSA_4pairIK10KeyWrapperIS1_ES3_EEEEEC2EjRKS8_RKS9_
ZMc:__ZN20TextRenderingPrivate15DynamicFontData36GetFaceForCharacterIfAvailableInFontERKNS_7FontRefERKNSt3__26vectorI4PPtrIN13TextRendering4FontEE13stl_allocatorIS9_L18MemLabelIdentifier34ELi16EEEEj
I1:__ZN19RuntimeSceneManager14CanUnloadSceneEP10UnityScene
hWa:__Z22ExtractRenderNodeQueueRK11CullResults15ExtractionFlagsR15RenderNodeQueue
aie:_Array_InternalArray__set_Item_TisContentType_t1028629049_m703420360_gshared
FBj:__ZN6il2cpp2vm6Method7GetNameEPK10MethodInfo
iDe:_List_1_set_Item_m1431784996_gshared
dH:__ZN24AudioScriptBufferManagerC2Ev
Kwc:__ZN11UnityEngine9Analytics18SceneLoadTimeEvent12ToJsonStringER9JSONWrite
zMc:__ZNSt3__26vectorIh13stl_allocatorIhL18MemLabelIdentifier1ELi16EEE8__appendEj
CMc:__ZN20TextRenderingPrivate8FontImpl16ResetPackingDataEv
YUg:_TimeSpan_get_Hours_m3804628138_AdjustorThunk
Yce:_Array_InternalArray__IndexOf_TisLink_t865133271_m3612939760_gshared
orc:__Z18Transfer_BlittableI9JSONWriteLb0EfEvRK29SerializationCommandArgumentsR31RuntimeSerializationCommandInfo
pda:__Z21GetAsyncUploadManagerv
Kj:_emscripten_glDetachShader
v_g:_UIntPtr__cctor_m889490270
Zbf:_SafeHandleZeroOrMinusOneIsInvalid_get_IsInvalid_m2033528032
qud:_Char_IsUpper_m4083577610
MAa:__ZN17GenericDynamicVBO20ReleaseChunkInternalERK21DynamicVBOChunkHandlejj
sZc:__ZL27CleanupModule_TextRenderingv
Ybf:_SafeHandleZeroOrMinusOneIsInvalid__ctor_m3340306667
ZOj:_fmodl
gvg:_SerializationInfo_AddValue_m902275108
lPj:_fmodf
_Le:_Collection_1_RemoveItem_m2272047354_gshared
uNb:__Z18Transfer_BlittableI18StreamedBinaryReadILb1EELb1E4AABBEvRK29SerializationCommandArgumentsR31RuntimeSerializationCommandInfo
mea:__ZN12CachedWriter11Align4WriteEv
kXa:__Z20DoDeferredRenderLoopR17RenderLoopContextR13dynamic_arrayI16RenderObjectDataLj4EES4_RK11CullResultsRP13RenderTextureSA_Pb
sra:__ZNSt3__26vectorIiNS_9allocatorIiEEE21__push_back_slow_pathIKiEEvRT_
Ldg:__ZL137AnimatorControllerPlayable_t4078305555_CustomAttributesCacheGenerator_AnimatorControllerPlayable_INTERNAL_CALL_ResetTriggerID_m3592790433P21CustomAttributesCache
Vra:__ZN19RuntimeSceneManager11CreateSceneEv
cAg:_RuntimeTypeHandle__ctor_m235560320_AdjustorThunk
uUc:_ps_get_standard_strings
cHe:_Collection_1_IsValidItem_m1908012838_gshared
gZa:__Z27SetupBakedOcclusionForLightbRK15SharedLightDataR17ShaderPassContext
qLj:__ZN6il2cpp2os5Mutex6UnlockEv
CCf:__ZN21InterfaceFuncInvoker1IP13Uri_t19570940S1_E6InvokeEjP11Il2CppClassP12Il2CppObjectS1_
d4i:__ZL25UnresolvedVirtualCall_199P12Il2CppObject22Navigation_t1571958496PK10MethodInfo
Iwh:_ScrollRect_OnScroll_m3346515304
Icg:__ZL137AnimatorControllerPlayable_t4078305555_CustomAttributesCacheGenerator_AnimatorControllerPlayable_CrossFadeInFixedTimeInternal_m3729673154P21CustomAttributesCache
DRj:__ZN10__cxxabiv116__shim_type_infoD2Ev
Qpe:_Enumerator_System_Collections_IEnumerator_get_Current_m3461301268_gshared
Akh:_Dictionary_2_CopyToCheck_m1638253305_gshared
rRa:__Z18RenderImageFiltersR10RenderLoopb
rw:__ZN24dense_hashtable_iteratorINSt3__24pairIKN11UnityEngine9Animation14GenericBindingENS3_10BoundIndexEEES4_NS3_25GenericBindingHashFunctorEN14dense_hash_mapIS4_S6_S8_NS3_30GenericBindingValueArrayUniqueE13stl_allocatorIS7_L18MemLabelIdentifier1ELi16EEE9SelectKeyESA_SD_E30advance_past_empty_and_deletedEv
IU:__Z19free_alloc_internalPv18MemLabelIdentifier
Ggb:__ZNK23ArchiveStorageConverter16GetDirectoryInfoEv
R1c:__Z43CanvasRenderer_Get_Custom_PropMaterialCountP12Il2CppObject
f8g:__ZN23InterfaceActionInvoker2IP21Exception_t1927440687P18Object_t1021602117E6InvokeEjP11Il2CppClassP12Il2CppObjectS1_S3_
a5a:__ZN10GameObjectD2Ev
KOe:_ReadOnlyCollection_1_System_Collections_Generic_IListU3CTU3E_set_Item_m25653560_gshared
D1g:_GUIContent_t4210063000_marshal_pinvoke_cleanup
up:__ZN6Object23VirtualRedirectTransferER19StreamedBinaryWriteILb1EE
Fbc:__ZNK9BlobWrite24HasOffsetPtrWithDebugPtrEv
nqg:__ZL68Selectable_t1490392188_CustomAttributesCacheGenerator_m_InteractableP21CustomAttributesCache
oBb:__ZN33AssetBundleLoadFromAsyncOperation12IsCrc32ValidEv
hni:_Color32_op_Implicit_m889975790
pac:__ZN19RuntimeSceneManager32LoadSceneAsyncByNameOrBuildIndexERKN4core12basic_stringIcNS0_20StringStorageDefaultIcEEEEiNS_11LoadingModeEb
Aqi:_UnityEventBase_RebuildPersistentCallsIfNeeded_m1583202007
frf:_CertificateSelectionCallback_Invoke_m2902629105
c7:__ZN10InputEventD2Ev
uXe:_DateTimeFormatInfo_GetAllDateTimePatternsInternal_m1587126173
vPi:_Vector2_ToString_m775491729_AdjustorThunk
tgd:_Evidence__ctor_m1638117806
LIe:__ZN21InterfaceFuncInvoker1Ib22UICharInfo_t3056636800E6InvokeEjP11Il2CppClassP12Il2CppObjectS0_
KWe:_NumberFormatter_Append_m3268121457
Pmj:__ZNK15dense_hashtableINSt3__24pairIK10KeyWrapperIPK14Il2CppAssemblyEPK16MonoAssemblyNameEES6_N6il2cpp5utils11PointerHashIS4_EEN14dense_hash_mapIS6_SA_SF_NS6_14EqualsComparerINS0_8equal_toIS5_EEEENS0_9allocatorISB_EEE9SelectKeyESK_SM_E3endEv
yFh:_InternalEnumerator_1_Dispose_m3578333724_AdjustorThunk
xcd:_RSA_ToXmlString_m4145056574
$aa:__Z20SetPlayerPauseDirect11PlayerPause
wMd:_Double_System_IConvertible_ToUInt64_m1318285078_AdjustorThunk
EOj:_isalpha
Efj:_il2cpp_object_unbox
ovh:_Selectable_FindSelectable_m2739582497
sgb:__ZN17FileSystemHandler5TouchER13FileEntryData
zzc:__ZNK12b2MotorJoint17GetReactionTorqueEf
pHd:_DateTimeUtils_ZeroPad_m86470512
zai:__Z73RuntimeInvoker_Boolean_t3825574718_CustomAttributeNamedArgument_t94157543PK10MethodInfoPvPS2_
hbj:__ZN6il2cpp2vmL17IsSocketAsyncCallEP14Il2CppDelegate
JJc:__Z13RegisterClassI11Rigidbody2DEvv
_7g:_Logger_IsLogTypeAllowed_m1750132386
$Dj:__ZN6il2cpp2vm6String6NewLenEPKcj
Yib:__ZN6Camera23VirtualRedirectTransferER19StreamedBinaryWriteILb0EE
RAj:__ZN6il2cpp2os6Thread12GetApartmentEv
GIa:__ZN9GfxDevice28UpdateComputeConstantBuffersEjP12ObjectHandleI18ConstantBuffer_TagPvEjjPKhPKjS8_PKi
Zk:_time
ibd:_RC2Transform__cctor_m4079629627
qci:__Z60RuntimeInvoker_Void_t1841601450_ResourceCacheItem_t333236149PK10MethodInfoPvPS2_
ETc:_ps_hints_done
Brh:_EqualityComparer_1_System_Collections_IEqualityComparer_Equals_m1091252481_gshared
Z0d:_Graphic_UnregisterDirtyLayoutCallback_m1724443555
bpf:_CryptoConvert_ToHex_m2874017189
QVc:_cf2_stack_free
f2:__ZN15dense_hashtableINSt3__24pairIKiP6ObjectEEi21InstanceIDHashFunctorN14dense_hash_mapIiS4_S6_NS0_8equal_toIiEE13stl_allocatorIS5_L18MemLabelIdentifier65ELi16EEE9SelectKeyES9_SC_E12resize_deltaEjj
Lrg:__ZL94LayoutGroup_t3962498969_CustomAttributesCacheGenerator_LayoutGroup_DelayedSetDirty_m4276695617P21CustomAttributesCache
MA:__ZN8Animator31ClearInternalControllerPlayableEv
v5a:__ZN10GameObject8TransferI24GenerateTypeTreeTransferEEvRT_
tqe:_Enumerator_VerifyState_m3913376581_gshared
org:__ZL72GridLayoutGroup_t1515633077_CustomAttributesCacheGenerator_m_StartCornerP21CustomAttributesCache
j4f:__ZL83U3CCreateWhereIteratorU3Ec__Iterator1D_1_t2523986802_CustomAttributesCacheGeneratorP21CustomAttributesCache
tij:__ZN15dense_hashtableINSt3__24pairIK10KeyWrapperINS1_IPK9FieldInfoP11Il2CppClassEEEjEES9_17ReflectionMapHashIS8_EN14dense_hash_mapIS9_jSD_NS9_14EqualsComparerINS0_8equal_toIS8_EEEENS0_9allocatorISB_EEE9SelectKeyESI_SK_E4findERSA_
y0j:_glDeleteSync__wrapper
KLi:_SerializePrivateVariables__ctor_m806793207
VDd:_Decimal_op_Implicit_m623319612
oih:_ValueCollection_System_Collections_Generic_ICollectionU3CTValueU3E_Remove_m98888100_gshared
XRd:_EventTrigger_OnPointerExit_m2119176877
WTg:_ThreadAbortException__ctor_m1623816114
l1b:__ZN13ProduceHelperI30RuntimeInitializeOnLoadManagerLb0EE7ProduceE18MemLabelIdentifier18ObjectCreationMode
t3a:__ZN13RenderTexture19SetAutoGenerateMipsEb
jja:__Z20GetTextureFormatInfo13TextureFormat
apc:__Z43Register_UnityEngine_GUIStyle_get_alignmentv
Fz:__ZN26AnimatorControllerPlayable8GetFloatEiRf
sth:_Shadow__ctor_m924057531
JTd:_PointerEventData_set_worldPosition_m192283671
xFe:_Collection_1_InsertItem_m1391780791_gshared
rUj:dynCall_iiifiiii
nOb:__ZN18StreamedBinaryReadILb1EE5AlignEv
pQi:_Vector3_get_right_m1884123822
LJj:__ZN6il2cpp5utils10MemoryPool6MallocEj
wG:__ZN11SoundHandle8InstanceD2Ev
g9:__ZN31CanvasBatchIntermediateRenderer13StaticDestroyEPv
fLi:_X509Store_BuildCrlsCollection_m52567568
G9i:__ZNK15dense_hashtableINSt3__24pairIK10KeyWrapperIPK11Il2CppClassEPKcEES6_N6il2cpp5utils11PointerHashIS3_EEN14dense_hash_mapIS6_S9_SE_NS6_14EqualsComparerINS0_8equal_toIS5_EEEENS0_9allocatorISA_EEE9SelectKeyESJ_SL_E10test_emptyERK24dense_hashtable_iteratorISA_S6_SE_SN_SJ_SL_E
$yg:_CallbackHandler__ctor_m1235509347
Mgc:__Z29Mesh_CUSTOM_RecalculateBoundsP12Il2CppObject
nPe:_ReadOnlyCollection_1_System_Collections_Generic_ICollectionU3CTU3E_get_IsReadOnly_m3561954522_gshared
fNd:_Enum_ToString_m662345249
Pre:_List_1_get_Capacity_m531373308_gshared
zZj:_emscripten_glBindProgramARB__wrapper
sXf:__ZL66DESCryptoServiceProvider_t933603253_CustomAttributesCacheGeneratorP21CustomAttributesCache
iec:__Z41Register_UnityEngine_CullingGroup_Disposev
Snb:__ZN7Cubemap23VirtualRedirectTransferER19StreamedBinaryWriteILb0EE
m4h:__Z100RuntimeInvoker_Void_t1841601450_Il2CppObject_Single_t2076509932_Int32_t2071877448_Single_t2076509932PK10MethodInfoPvPS2_
AKa:__ZN25MultiBlocksMemoryFileData5WriteEyyPKv
aAc:__ZNK13b2PulleyJoint16GetReactionForceEf
qTh:__Z78RuntimeInvoker_Il2CppObject_Int64_t909078037_Int64_t909078037_Int64_t909078037PK10MethodInfoPvPS2_
olj:__ZNSt3__218uninitialized_fillIPNS_4pairIK10KeyWrapperINS1_IPK12PropertyInfoP11Il2CppClassEEEjEESB_EEvT_SD_RKT0_
Eye:_List_1_System_Collections_IList_Add_m4271264217_gshared
gBh:_Action_1_BeginInvoke_m1305519803_gshared
wNa:__ZZ23InitPlayerLoopCallbacksvEN47InitializationAsyncUploadTimeSlicedUpdatestruct7ForwardEv
xnj:__ZN14dense_hash_mapI10KeyWrapperIPK10Il2CppTypeEjN6il2cpp8metadata14Il2CppTypeHashENS4_14EqualsComparerINS6_26Il2CppTypeEqualityComparerEEENSt3__29allocatorINSB_4pairIKS4_jEEEEE13set_empty_keyERSE_
Wdc:__Z35Component_CUSTOM_SendMessageUpwardsP12Il2CppObjectP12Il2CppStringS0_i
KCa:__ZL17ProgramUniform2fvPK7ApiGLESjiihPKv
iOf:__ZL65Il2CppArray_CustomAttributesCacheGenerator_Array_Sort_m4096942812P21CustomAttributesCache
uMc:__ZN20TextRenderingPrivate8FontImpl21HasCharacterInTextureEjijfPj
Sgb:__ZN13Lz4CompressorD0Ev
_Pj:_htonl
Yxa:__Z20GetBufferManagerGLESv
bce:__ZN21InterfaceFuncInvoker1Ii18Color32_t874517518E6InvokeEjP11Il2CppClassP12Il2CppObjectS0_
wQb:__ZN18StreamedBinaryReadILb0EE21TransferSTLStyleArrayI31ArrayOfManagedObjectsTransfererEEvRT_17TransferMetaFlags
_Rg:_UTF7Decoder_GetChars_m2790530452
$Pj:_htons
k4h:__Z82RuntimeInvoker_Boolean_t3825574718_PlayableHandleU26_t3483893774_Int32_t2071877448PK10MethodInfoPvPS2_
Vtc:__Z18Transfer_BlittableI8JSONReadLb0EtEvRK29SerializationCommandArgumentsR31RuntimeSerializationCommandInfo
Olj:__ZN15dense_hashtableINSt3__24pairIK10KeyWrapperINS1_IPK9EventInfoP11Il2CppClassEEEjEES9_17ReflectionMapHashIS8_EN14dense_hash_mapIS9_jSD_NS9_14EqualsComparerINS0_8equal_toIS8_EEEENS0_9allocatorISB_EEE9SelectKeyESI_SK_E12expand_arrayEjN21dense_hash_map_traits17integral_constantIbLb0EEE
x4g:_GUIStyle_t1799908754_marshal_pinvoke_back
DNa:__ZZ23InitPlayerLoopCallbacksvEN44EarlyUpdateResetFrameStatsAfterPresentstruct7ForwardEv
vQh:__Z49RuntimeInvoker_Int32_t2071877448_Int64_t909078037PK10MethodInfoPvPS2_
Mzh:_Text_set_fontSize_m2101304336
eob:__ZNK7Cubemap20GetTextureLayerCountEv
gPc:_pshinter_module_class_pic_free
xpg:__ZL68Navigation_t1571958496_CustomAttributesCacheGenerator_m_SelectOnLeftP21CustomAttributesCache
Yu:__ZN34AnimationStateMachineMixerPlayable13EndTransitionEv
bEc:__ZNSt3__26vectorIxNS_9allocatorIxEEE6assignIPxEENS_9enable_ifIXaasr21__is_forward_iteratorIT_EE5valuesr16is_constructibleIxNS_15iterator_traitsIS7_E9referenceEEE5valueEvE4typeES7_S7_
AI:__ZN12AudioManager21FixMasterGroupRoutingEv
Ced:_SymmetricAlgorithm_set_Key_m2973350820
yIc:__ZN6b2Body9SetActiveEb
Qng:__ZL58FontData_t2614388407_CustomAttributesCacheGenerator_m_FontP21CustomAttributesCache
RDf:_WebHeaderCollection_IsHeaderValue_m1723393133
Vyd:_Hashtable__ctor_m4280223555
e2d:_HorizontalOrVerticalLayoutGroup_get_childForceExpandWidth_m227100883
DBj:__ZN6il2cpp2os10ThreadImpl33UnregisterCurrentThreadForCleanupEv
D5f:__ZL97Component_t3819376471_CustomAttributesCacheGenerator_Component_GetComponentInChildren_m3985003615P21CustomAttributesCache
Oy:__ZN27AnimationLayerMixerPlayable22PrepareAnimationEventsEfR13dynamic_arrayI22AnimationClipEventInfoLj4EE
FFb:__Z18Transfer_BlittableI14SafeBinaryReadLb1E4AABBEvRK29SerializationCommandArgumentsR31RuntimeSerializationCommandInfo
oAj:__ZN6il2cpp6icalls8mscorlib6System4Enum12get_hashcodeEP12Il2CppObject
m7g:_Input_INTERNAL_get_mouseScrollDelta_m1140491498
_ri:_AnimatorControllerPlayable_SetInteger_m1311149575
Ise:_List_1_Sort_m2895170076_gshared
jW:__ZNK13ScreenManager16GetScreenTimeoutEv
jH:__ZN9AudioClip7WWWOpenEPKciPjPPvS4_
W3f:__ZL66Uri_t19570940_CustomAttributesCacheGenerator_Uri__ctor_m3854873816P21CustomAttributesCache
$$h:__Z79RuntimeInvoker_Void_t1841601450_Il2CppObject_Int32_t2071877448_Int64_t909078037PK10MethodInfoPvPS2_
yFb:__Z18Transfer_BlittableI14SafeBinaryReadLb0E8Vector2fEvRK29SerializationCommandArgumentsR31RuntimeSerializationCommandInfo
Wqg:__ZL101ToggleGroup_t1030026315_CustomAttributesCacheGenerator_ToggleGroup_U3CAnyTogglesOnU3Em__0_m1218114300P21CustomAttributesCache
kDf:_IPv6Address_SwapUShort_m1481806078
Oti:_AnimatorControllerPlayable_PlayInFixedTime_m2562520484
R$:__ZN13RuntimeStaticINSt3__23setI19RepeatingLogMessageNS0_4lessIS2_EE13stl_allocatorIS2_L18MemLabelIdentifier70ELi16EEEELb0EE16StaticInitializeEPv
Uc:_emscripten_glVertexAttrib2f
jTb:__ZN15SerializeTraitsIN9ShaderLab20SerializedSubProgram16TextureParameterEE8TransferI14SafeBinaryReadEEvRS2_RT_
Csd:_Byte_System_IConvertible_ToInt16_m1575115635_AdjustorThunk
vxi:_CrossAppDomainData_get_ProcessID_m2865289777
Mt:__ZN11UnityEngine9Animation31SetHumanTransformPropertyValuesERKNS0_21AvatarBindingConstantERKN7mecanim8skeleton13SkeletonPoseTIN4math4trsXEEEbb
cYg:_UInt16_System_IConvertible_ToUInt16_m1646506872_AdjustorThunk
Jyi:_Context_get_HasGlobalDynamicSinks_m3205328884
odf:_SimpleCollator_CompareQuick_m619038530
uqg:__ZL93Selectable_t1490392188_CustomAttributesCacheGenerator_Selectable_get_isPointerDown_m774209881P21CustomAttributesCache
uzf:_SslStreamBase_EndRead_m1072850679
grf:_CertificateSelectionCallback_BeginInvoke_m990408067
IIa:__ZN9GfxDevice22DispatchComputeProgramE12ObjectHandleI18ComputeProgram_TagPvEjjj
nd:_SDL_GetTicks
BGe:_Collection_1_System_Collections_IList_Contains_m3345685421_gshared
k0c:__ZN2UI14CanvasRenderer11SyncCullingENS0_8SyncFlagE
mkj:__ZN15dense_hashtableINSt3__24pairIK10KeyWrapperINS1_IPK11Il2CppImageP11Il2CppClassEEEjEES9_17ReflectionMapHashIS8_EN14dense_hash_mapIS9_jSD_NS9_14EqualsComparerINS0_8equal_toIS8_EEEENS0_9allocatorISB_EEE9SelectKeyESI_SK_E6insertERKSB_
dw:__Z16AppendPathToHashRKN7mecanim5crc32EPKc
X0a:__Z21CreateShadowCullerJobP30CreateUmbraShadowCullerJobData
i8g:_Material_get_mainTexture_m432794412
CCa:__ZL18ProgramUniform2uivPK7ApiGLESjiihPKv
wXi:_U3CStartU3Ec__Iterator0_System_Collections_Generic_IEnumeratorU3CobjectU3E_get_Current_m1702093362_gshared
e$j:_glUniform4iv__wrapper
E7b:__ZNK15dense_hashtableINSt3__24pairIK12TriangleEdgeiEES2_16TriangleEdgeHashN14dense_hash_mapIS2_iS5_NS0_8equal_toIS2_EENS0_9allocatorIS4_EEE9SelectKeyES8_SA_E23find_position_with_hashERS3_j
Fud:_Char_GetTypeCode_m2251277629_AdjustorThunk
bqe:_Enumerator_Dispose_m3109097029_AdjustorThunk
tmh:_Dictionary_2_ToTKey_m4209561517_gshared
bVc:_cf2_computeDarkening
KY:__GLOBAL__sub_I_runtime_gfxdevice_lump_cpp
zji:_AsyncOperation_set_priority_m3581020444
aGj:_GC_expand_hp_inner
N7i:__ZNK15dense_hashtableINSt3__24pairIK10KeyWrapperI13dynamic_arrayIPK10Il2CppTypeLj4EEEPFvvEEES8_N6il2cpp8metadata19Il2CppSignatureHashEN14dense_hash_mapIS8_SB_SF_NS8_14EqualsComparerINSE_22Il2CppSignatureCompareEEENS0_9allocatorISC_EEE9SelectKeyESJ_SL_E12test_deletedEj
nc:invoke_viiiififfi
Gfc:__Z25Screen_Get_Custom_PropDpiv
VMb:__Z29Transfer_Blittable_ArrayFieldI19StreamedBinaryWriteILb0EEsEvRT_R9ArrayInfoRK23StaticTransferFieldInfo
_Vd:_AnimationTriggers_get_disabledTrigger_m2987312382
zSa:__ZN13ComputeShader20GetCompatibleVariantE17GfxDeviceRendereri
Rzj:__ZN4utf812find_invalidIPKcEET_S3_S3_
lIf:_X509ExtensionCollection_System_Collections_ICollection_CopyTo_m3421329346
uFj:_GC_err_printf
BIg:_FieldBuilder_SetValue_m3109503557
i0d:_Graphic_OnBeforeTransformParentChanged_m1866292273
cGf:_X509Certificate2_Verify_m1574874641
Pmg:__ZL58PhysicsRaycaster_t249603239_CustomAttributesCacheGeneratorP21CustomAttributesCache
hMc:__ZN20TextRenderingPrivate19NativeTextGenerator23FixLineHorizontalOffsetEiii
Arh:_EqualityComparer_1_System_Collections_IEqualityComparer_GetHashCode_m1473684243_gshared
OAd:_SortedList_GetEnumerator_m1318483481
Yod:_Array_CreateInstance_m3327690220
Q$d:_FontData_UnityEngine_ISerializationCallbackReceiver_OnBeforeSerialize_m2486694676
nw:__ZN7mecanim9animation19DestroyAnimationSetEPNS0_12AnimationSetERNS_6memory9AllocatorE
Q0e:_IntPtr__ctor_m2996690883_AdjustorThunk
pVh:__Z64RuntimeInvoker_Double_t4078015681_Il2CppObject_Int32_t2071877448PK10MethodInfoPvPS2_
a4:__ZN14SerializedFile7ReleaseEv
LNf:__ZL69Il2CppArray_CustomAttributesCacheGenerator_Array_GetValue_m1507415734P21CustomAttributesCache
Z9a:__ZN16MemoryFileSystem4OpenER13FileEntryData14FilePermission16FileAutoBehavior
JMe:_Collection_1_Remove_m3355928137_gshared
iSh:__Z52RuntimeInvoker_UInt64_t2909196914_Decimal_t724701077PK10MethodInfoPvPS2_
U8:__ZN13RuntimeStaticI13RendererSceneLb0EE13StaticDestroyEPv
zO:__ZN12AudioManager12CleanupClassEv
tKb:__Z18Transfer_BlittableI24GenerateTypeTreeTransferLb1E12PropertyNameEvRK29SerializationCommandArgumentsR31RuntimeSerializationCommandInfo
nyb:__ZN14SafeBinaryRead21TransferSTLStyleArrayI10vector_mapIPKN5Unity4TypeE7Hash128NSt3__24lessIS5_EENS7_9allocatorINS7_4pairIS5_S6_EEEEEEEvRT_17TransferMetaFlags
iH:__ZN9AudioClip18GetQueuedAudioDataEPPvj
bci:__Z59RuntimeInvoker_Void_t1841601450_DictionaryEntry_t3048875398PK10MethodInfoPvPS2_
Fnh:_DefaultComparer_GetHashCode_m3439703487_gshared
D8b:__ZNK9Texture2D17CheckHasPixelDataEv
gHc:__ZN15b2ContactSolver13StoreImpulsesEv
CVa:__Z18SetShadowsKeywordsR17ShaderPassContext9LightType10ShadowType16ShadowProjectionbb
aoj:__ZN14dense_hash_mapI10KeyWrapperINSt3__24pairIPK12PropertyInfoP11Il2CppClassEEEj17ReflectionMapHashIS8_ENS9_14EqualsComparerINS1_8equal_toIS8_EEEENS1_9allocatorINS2_IKS9_jEEEEEC2EjRKSB_RKSF_
n3b:__ZN17CollisionMeshDataC2Ev
YDg:_Assembly_GetModule_m2064378601
KVi:_UnityEvent_1_AddListener_m846589010_gshared
T$f:__ZL79Convert_t2607082565_CustomAttributesCacheGenerator_Convert_ToUInt16_m3866680988P21CustomAttributesCache
jwh:_ScrollRect_SetDirty_m93243192
epb:__ZN16LightmapSettings23VirtualRedirectTransferER19StreamedBinaryWriteILb0EE
dJc:__ZN19CollisionListener2DC2Ev
yah:_MessageTypeSubscribers__ctor_m743474932
V_j:_glTexParameteriv__wrapper
Rqa:__ZN18IDCollectorFunctor18GenerateInstanceIDEi17TransferMetaFlags
ghe:_Array_InternalArray__set_Item_TisTableRange_t2011406615_m2386708730_gshared
qQh:__Z40RuntimeInvoker_Il2CppObject_Il2CppObjectPK10MethodInfoPvPS2_
fHc:__ZN15b2ContactSolver9WarmStartEv
VWe:_NumberFormatter_ToDecHex_m1474793296
mbb:__ZN14StackAllocatorD0Ev
Lqj:__ZN6il2cpp2vm6Thread8SetStateEP12Il2CppThreadNS0_11ThreadStateE
Pbf:_OperatingSystem_Clone_m1943707477
J$d:_FontData_set_richText_m29558601
lUg:_Scheduler_Change_m4063588742
m9i:__ZN6il2cpp2vm13MetadataCache25GetMethodGenericContainerEPK10MethodInfo
bje:_Array_Resize_TisVector2_t2243707579_m1117258774_gshared
sS:__ZN11UnityEngine15CloudWebService13WWWRestClientD0Ev
UCh:_InternalEnumerator_1_Dispose_m1640363425_AdjustorThunk
GLi:_HitInfo_SendMessage_m3368777144_AdjustorThunk
t8h:__Z41RuntimeInvoker_SelectionState_t3187567897PK10MethodInfoPvPS2_
dra:__ZN17PersistentManager4LockEv
Mhc:__Z22PlayableValidityChecksRK9HPlayableb
gei:__Z53RuntimeInvoker_RaycastHit_t87180320_Int32_t2071877448PK10MethodInfoPvPS2_
szb:__ZN15ResourceManagerD2Ev
mxe:_List_1_Insert_m2532850849_gshared
Ndc:__Z41Register_UnityEngine_Camera_GetAllCamerasv
b6f:__ZL91CullingGroup_t1091689465_CustomAttributesCacheGenerator_CullingGroup_SendEvents_m1292564468P21CustomAttributesCache
nze:_List_1_Sort_m2659614836_gshared
epg:__ZL154U3CCaretBlinkU3Ec__Iterator0_t906898126_CustomAttributesCacheGenerator_U3CCaretBlinkU3Ec__Iterator0_System_Collections_IEnumerator_get_Current_m2309548992P21CustomAttributesCache
w9g:_Mesh_get_vertices_m626989480
Qsh:_MaskableGraphic_OnCanvasHierarchyChanged_m2012659245
uBa:__ZN4crnd12crn_unpacker10unpack_dxnEPPhjjjjjj
W7c:__ZN28PerformanceReportingSettings8TransferI14SafeBinaryReadEEvRT_
KMh:_DefaultComparer__ctor_m3668042_gshared
oEd:_Double_Parse_m2344589511
jbi:__Z122RuntimeInvoker_Int32_t2071877448_Il2CppObject_CustomAttributeTypedArgument_t1498197914_Int32_t2071877448_Int32_t2071877448PK10MethodInfoPvPS2_
$rj:__ZN6il2cpp2vm22EmbeddedResourceRecordC2ERKS1_
pWb:__ZNSt3__26vectorIN9ShaderLab20SerializedSubProgram15VectorParameterENS_9allocatorIS3_EEE21__push_back_slow_pathIKS3_EEvRT_
GVh:__Z109RuntimeInvoker_Void_t1841601450_Int32U26_t455636984_Int32U26_t455636984_Int32U26_t455636984_Int32_t2071877448PK10MethodInfoPvPS2_
Nnb:__ZN9Texture2D13AwakeFromLoadE17AwakeFromLoadMode
xef:_Kernel_SingleByteDivideInPlace_m1760318278
Hcf:_MSCompatUnicodeTableUtil__cctor_m1479836795
iGi:_PositionAssertion__ctor_m3703837499
_6d:_LayoutGroup_get_minWidth_m4111745491
u6e:_StreamWriter_Initialize_m1707678624
dzj:__ZN6il2cpp2vm3RCW14QueryInterfaceILb0EEEP14Il2CppIUnknownP15Il2CppComObjectRK10Il2CppGuid
cwh:_ScrollRect_set_verticalScrollbar_m2903688658
A6g:_GUIStyle_INTERNAL_CALL_SetMouseTooltip_m1802284884
oka:__ZN6prcoreL17RemapGenericFloatI15TexFormatRFloat18TexFormatARGBFloatEEvPKNS_9InnerInfoE
Xfb:__ZNK21AssetBundleFileSystem4SizeERK13FileEntryData
VUf:__ZL50_Thread_t1894135853_CustomAttributesCacheGeneratorP21CustomAttributesCache
MGh:_InternalEnumerator_1_get_Current_m1047712960_gshared
GY:__GLOBAL__sub_I_runtime_camera_renderlayers_lump_cpp
H7c:__ZN11UnityEngine15PlatformWrapper20GetPlayerPrefsUInt64ERKN4core12basic_stringIcNS1_20StringStorageDefaultIcEEEEy
vZa:__ZN20ReflectionProbeCacheC2ER13BatchRendererR15RenderLoopStats
ffa:__ZN7Texture23VirtualRedirectTransferER18StreamedBinaryReadILb0EE
Bvh:_U3CClickRepeatU3Ec__Iterator0_System_Collections_Generic_IEnumeratorU3CobjectU3E_get_Current_m3444627780
I9:__ZN18AssetBundleManagerC2Ev
PLa:__ZNK12HandlerChain6ExistsERK13FileEntryData
a4f:__ZL61ExtensionAttribute_t1840441203_CustomAttributesCacheGeneratorP21CustomAttributesCache
MEd:_Convert_ToInt32_m2734833291
m_a:__Z30FindDirectAttenuationFromProbeP18ForwardLightsBlockbiRK10RenderNodeRK23FindForwardLightsParamsf
sxb:__ZN12InputManager23VirtualRedirectTransferER24GenerateTypeTreeTransfer
_Xb:__ZN9Transform23VirtualRedirectTransferER24GenerateTypeTreeTransfer
Wna:__Z18GetLODGroupManagerv
gBe:_List_1_Sort_m3574220472_gshared
lWb:__ZNSt3__26vectorIN9ShaderLab20SerializedSubProgram12UAVParameterENS_9allocatorIS3_EEE21__push_back_slow_pathIKS3_EEvRT_
kgi:__Z92RuntimeInvoker_Il2CppObject_CustomAttributeNamedArgument_t94157543_Il2CppObject_Il2CppObjectPK10MethodInfoPvPS2_
nxi:_CrossAppDomainChannel_RegisterCrossAppDomainChannel_m43456045
WHf:_X509ChainElement_Count_m228862214
WVg:_TimeZone_IsDaylightSavingTime_m1840774423
JXc:_UNITY_tt_size_ready_bytecode
QKc:__ZN13TextRendering4FontD2Ev
Yma:__ZN27GenericSlowGarbageCollectorD2Ev
R$h:__Z48RuntimeInvoker_Void_t1841601450_Byte_t3683104436PK10MethodInfoPvPS2_
ONc:_UNITY_FT_Stream_Open
n$c:__GLOBAL__sub_I_runtime_ui_lump_cpp
JKa:__ZN10MemoryFile4ReadEyyPvPy
kua:__ZN13GfxDeviceGLES26UpdateViewProjectionMatrixEv
Coi:_DebugLogHandler__ctor_m3134219506
Hsa:__ZNSt3__26vectorIN22BuiltinResourceManager8ResourceENS_9allocatorIS2_EEE21__push_back_slow_pathIKS2_EEvRT_
GCh:_InternalEnumerator_1_System_Collections_IEnumerator_Reset_m1181480250_AdjustorThunk
MF:__ZN4FMOD3DSP12setParameterEif
oaa:__ZN13MemoryManager16StaticInitializeEv
PQf:__ZL53StackFrame_t2050294881_CustomAttributesCacheGeneratorP21CustomAttributesCache
sf:___cxa_free_exception
GSe:_ReadOnlyCollection_1_System_Collections_ICollection_CopyTo_m4126742951_gshared
GJ:__ZN4FMOD22FakeModChannelCallbackEPv
yf:_emscripten_glValidateProgram
LRa:__ZN4Mesh10CreateMeshEv
ulj:__ZN6il2cpp2gc19AppendOnlyGCHashMapINSt3__24pairIPK9EventInfoP11Il2CppClassEEP21Il2CppReflectionEvent17ReflectionMapHashIS9_ENS2_8equal_toIS9_EEE3AddERKS9_SB_
EG:__ZN4FMOD7SystemI11createSoundEPKcjP22FMOD_CREATESOUNDEXINFOPPNS_5SoundE
aMi:_Sprite_get_associatedAlphaSplitTexture_m3617241169
cxg:_ArrayFixupRecord_FixupImpl_m2377725358
zVc:_cf2_stack_clear
YLd:_Double_System_IConvertible_ToBoolean_m4251806534_AdjustorThunk
xff:_BigInteger_op_GreaterThanOrEqual_m1998498565
jgh:_ShimEnumerator_Reset_m2247049027_gshared
Gcg:__ZL150AnimatorControllerPlayable_t4078305555_CustomAttributesCacheGenerator_AnimatorControllerPlayable_CrossFadeInFixedTimeInternal_m793606818____fixedTime4P21CustomAttributesCache
hDc:__ZN10ClipperLib11ClipperBase5ClearEv
u3a:__ZN7Texture13SetAnisoLevelEi
nGf:_X509Chain_Process_m2508784250
rIa:__ZN9GfxDevice20GetComputeBufferDataE15ComputeBufferIDPvj
bCe:_List_1_RemoveAt_m2929488689_gshared
Twc:__ZN27PerformanceReportingManager23VirtualRedirectTransferER24GenerateTypeTreeTransfer
K1i:__ZL24UnresolvedVirtualCall_70P12Il2CppObjectS0_S0_iS0_S0_PK10MethodInfo
FPc:_raccess_guess_vfat
Y2c:__Z44Canvas_CUSTOM_GetETC1SupportedCanvasMaterialv
XKi:_X509Extension_Decode_m972859652
F8:__ZN33InstancedMeshIntermediateRenderer13StaticDestroyEPv
t_e:_Int16_Parse_m3012618547
bDi:_PatternLinkStack_set_BaseAddress_m781925478
kuj:__ZN14dense_hash_mapI10KeyWrapperIP14Il2CppIUnknownEjN6il2cpp5utils11PointerHashIS1_EENS3_14EqualsComparerINSt3__28equal_toIS2_EEEENS9_9allocatorINS9_4pairIKS3_jEEEEE13set_empty_keyERSF_
HBd:_Convert__cctor_m926133987
Cjb:__Z21DestroyShadowMapCacheP14ShadowMapCache
$y:__ZN7mecanim9animation25CreateControllerWorkspaceEPKNS0_18ControllerConstantERNS_6memory9AllocatorE
Cde:_Array_InternalArray__IndexOf_TisUInt64_t2909196914_m3958307360_gshared
_0d:_Graphic_RegisterDirtyVerticesCallback_m4169445219
amh:_Dictionary_2_get_Count_m3636113691_gshared
Anj:__ZN15dense_hashtableINSt3__24pairIK10KeyWrapperIPK10Il2CppTypeEjEES6_N6il2cpp8metadata14Il2CppTypeHashEN14dense_hash_mapIS6_jSB_NS6_14EqualsComparerINSA_26Il2CppTypeEqualityComparerEEENS0_9allocatorIS8_EEE9SelectKeyESF_SH_E14squash_deletedEv
ktj:__ZN6il2cpp2vm13LivenessState5ResetEv
MOi:_Transform_get_parent_m147407266
pqc:__ZN9JSONWrite8TransferI11KeyframeTplIfEEEvRT_PKc17TransferMetaFlags
c$h:__Z71RuntimeInvoker_Double_t4078015681_Double_t4078015681_Double_t4078015681PK10MethodInfoPvPS2_
rzh:_Text_get_cachedTextGenerator_m224335893
Ake:_Array_swap_TisVector4_t2243707581_m3504221493_gshared
n0g:_GameObject_GetComponent_m306258075
YLh:_InternalEnumerator_1_Dispose_m4229866913_AdjustorThunk
Xug:_ObjRef_get_ChannelInfo_m53840305
Ruj:__ZN6il2cpp2vm3RCW23GetOrCreateFromIUnknownEP14Il2CppIUnknownP11Il2CppClass
gsj:__ZN6il2cpp2vm9Exception27RaiseNullReferenceExceptionEv
aJa:__ZN24BuiltinShaderParamValuesC2Ev
grc:__ZL41CreateJSONTransferFunctionScriptingTraitsv
Ktd:_Convert_ToInt32_m3683486440
y3e:_FileStream_get_CanWrite_m775322953
s2f:__ZL72PKCS12_t1362584795_CustomAttributesCacheGenerator_U3CU3Ef__switchU24map7P21CustomAttributesCache
zUg:_TimerCallback_BeginInvoke_m2938818726
kOa:__Z23GetLateBehaviourManagerv
FSd:_ExecuteEvents_Execute_m2863348178
D5:__ZN10MemoryPool10DeallocateEPv
NXe:_NumberFormatInfo__ctor_m2752806684
rWd:_CanvasUpdateRegistry_get_instance_m862315367
fIe:_Collection_1_System_Collections_IList_get_IsReadOnly_m1820916678_gshared
SCi:_PatternCompiler_EmitFastRepeat_m1175707353
Rle:_Array_InternalArray__get_Item_TisKeyValuePair_2_t3716250094_m3120861630_gshared
jPc:_cff_driver_class_pic_free
B_f:__ZL62ApplicationException_t474868623_CustomAttributesCacheGeneratorP21CustomAttributesCache
MKj:__ZNSt3__26__treeINS_12__value_typeIPvxEENS_19__map_value_compareIS2_S3_NS_4lessIS2_EELb1EEENS_9allocatorIS3_EEE16__insert_node_atEPNS_16__tree_node_baseIS2_EERSD_SD_
hy:__ZN17AnimationPlayable22SetStateMachineMessageEN7mecanim12statemachine19StateMachineMessageE
